 GGFConverter

 Timestamp is 59b8e900 (Wed Sep 13 10:14:56 2017)

 Preferred load address is 00400000

 Start         Length     Name                   Class
 0001:00000000 000000e0H .text                   CODE
 0001:000000e0 000006b0H .text$di                CODE
 0001:00000790 0028ae60H .text$mn                CODE
 0001:0028b5f0 00017d00H .text$x                 CODE
 0001:002a32f0 0000012fH .text$yd                CODE
 0002:00000000 000004ccH .idata$5                DATA
 0002:000004cc 00000004H .00cfg                  DATA
 0002:000004d0 00000004H .CRT$XCA                DATA
 0002:000004d4 00000004H .CRT$XCAA               DATA
 0002:000004d8 0000006cH .CRT$XCU                DATA
 0002:00000544 00000004H .CRT$XCZ                DATA
 0002:00000548 00000004H .CRT$XIA                DATA
 0002:0000054c 00000004H .CRT$XIAA               DATA
 0002:00000550 00000004H .CRT$XIAC               DATA
 0002:00000554 00000010H .CRT$XIC                DATA
 0002:00000564 00000004H .CRT$XIZ                DATA
 0002:00000568 00000004H .CRT$XLA                DATA
 0002:0000056c 00000004H .CRT$XLZ                DATA
 0002:00000570 00000004H .CRT$XPA                DATA
 0002:00000574 0000000cH .CRT$XPX                DATA
 0002:00000580 00000004H .CRT$XPXA               DATA
 0002:00000584 00000004H .CRT$XPZ                DATA
 0002:00000588 00000004H .CRT$XTA                DATA
 0002:0000058c 00000004H .CRT$XTZ                DATA
 0002:00000590 00049df4H .rdata                  DATA
 0002:0004a384 00000018H .rdata$T                DATA
 0002:0004a39c 0000c9ccH .rdata$r                DATA
 0002:00056d68 00000404H .rdata$zzzdbg           DATA
 0002:0005716c 00000004H .rtc$IAA                DATA
 0002:00057170 00000004H .rtc$IZZ                DATA
 0002:00057174 00000004H .rtc$TAA                DATA
 0002:00057178 00000008H .rtc$TZZ                DATA
 0002:00057180 0001682cH .xdata$x                DATA
 0002:0006d9ac 00000000H .edata                  DATA
 0002:0006d9ac 0000012cH .idata$2                DATA
 0002:0006dad8 00000014H .idata$3                DATA
 0002:0006daec 000004ccH .idata$4                DATA
 0002:0006dfb8 00001458H .idata$6                DATA
 0002:0006f410 000000b0H .idata$7                DATA
 0003:00000000 00021ed0H .data                   DATA
 0003:00021ed0 000064f0H .data$r                 DATA
 0003:000283c0 00007e54H .bss                    DATA
 0004:00000000 00000130H .gfids$y                DATA
 0005:00000000 00000004H .tls                    DATA
 0005:00000004 00000004H .tls$                   DATA
 0005:00000008 00000001H .tls$ZZZ                DATA
 0006:00000000 00000060H .rsrc$01                DATA
 0006:00000060 00000180H .rsrc$02                DATA

  Address         Publics by Value              Rva+Base       Lib:Object

 0000:00000000       __except_list              00000000     <absolute>
 0000:00000000       ___guard_longjmp_count     00000000     <absolute>
 0000:00000000       ___safe_se_handler_table   00000000     <absolute>
 0000:00000000       ___guard_fids_count        00000000     <absolute>
 0000:00000000       ___guard_longjmp_table     00000000     <absolute>
 0000:00000000       ___safe_se_handler_count   00000000     <absolute>
 0000:00000000       ___guard_fids_table        00000000     <absolute>
 0000:00000000       ___dynamic_value_reloc_table 00000000     <absolute>
 0000:00000000       ___guard_iat_table         00000000     <absolute>
 0000:00000000       ___guard_iat_count         00000000     <absolute>
 0000:0000002c       __tls_array                0000002c     <absolute>
 0000:00000100       ___guard_flags             00000100     <absolute>
 0000:00000000       ___ImageBase               00400000     <linker-defined>
 0001:00000000       _avcodec_close             00401000     avcodec:dzqxes00113.o
 0001:00000008       _av_packet_free_side_data  00401008     avcodec:dzqxes00068.o
 0001:00000010       _av_packet_unref           00401010     avcodec:dzqxes00081.o
 0001:00000018       _avcodec_find_decoder      00401018     avcodec:dzqxes00137.o
 0001:00000020       _avcodec_open2             00401020     avcodec:dzqxes00154.o
 0001:00000028       _av_init_packet            00401028     avcodec:dzqxes00055.o
 0001:00000030       _avcodec_decode_audio4     00401030     avcodec:dzqxes00119.o
 0001:00000038       _avcodec_decode_video2     00401038     avcodec:dzqxes00121.o
 0001:00000040       _avio_alloc_context        00401040     avformat:dqhyes00103.o
 0001:00000048       _av_register_all           00401048     avformat:dqhyes00061.o
 0001:00000050       _avformat_alloc_context    00401050     avformat:dqhyes00079.o
 0001:00000058       _av_probe_input_buffer     00401058     avformat:dqhyes00052.o
 0001:00000060       _avformat_open_input       00401060     avformat:dqhyes00096.o
 0001:00000068       _avformat_find_stream_info 00401068     avformat:dqhyes00083.o
 0001:00000070       _av_find_best_stream       00401070     avformat:dqhyes00010.o
 0001:00000078       _av_read_frame             00401078     avformat:dqhyes00058.o
 0001:00000080       _av_seek_frame             00401080     avformat:dqhyes00065.o
 0001:00000088       _avformat_close_input      00401088     avformat:dqhyes00081.o
 0001:00000090       _av_malloc                 00401090     avutil:dwgrds00259.o
 0001:00000098       _av_freep                  00401098     avutil:dwgrds00180.o
 0001:000000a0       _av_frame_alloc            004010a0     avutil:dwgrds00139.o
 0001:000000a8       _av_frame_free             004010a8     avutil:dwgrds00143.o
 0001:000000b0       _av_samples_alloc_array_and_samples 004010b0     avutil:dwgrds00369.o
 0001:000000b8       _swr_init                  004010b8     swresample:dswwds00012.o
 0001:000000c0       _swr_alloc_set_opts        004010c0     swresample:dswwds00001.o
 0001:000000c8       _swr_free                  004010c8     swresample:dswwds00008.o
 0001:000000d0       _swr_convert               004010d0     swresample:dswwds00004.o
 0001:00000790       ??0CONTROLLER@AI@@QAE@XZ   00401790 f   AIController.obj
 0001:000008d0       ??1CONTROLLER@AI@@UAE@XZ   004018d0 f   AIController.obj
 0001:00000a40       ?Process@CONTROLLER@AI@@QAE_NPAVCOMMAND@2@@Z 00401a40 f   AIController.obj
 0001:00000c30       ?Process@CONTROLLER@AI@@QAE_NI@Z 00401c30 f   AIController.obj
 0001:00000c60       ?Update@CONTROLLER@AI@@QAE_NXZ 00401c60 f   AIController.obj
 0001:00000c90       ?UpdateStates@CONTROLLER@AI@@QAE_NXZ 00401c90 f   AIController.obj
 0001:00000fb0       ?UpdateOverlays@CONTROLLER@AI@@QAE_NXZ 00401fb0 f   AIController.obj
 0001:000011d0       ?ChangeState@CONTROLLER@AI@@QAE_NI@Z 004021d0 f   AIController.obj
 0001:000013d0       ?GetCurrentState@CONTROLLER@AI@@QAEIXZ 004023d0 f   AIController.obj
 0001:000013f0       ?SetState@CONTROLLER@AI@@QAE_NI@Z 004023f0 f   AIController.obj
 0001:00001480       ?PopState@CONTROLLER@AI@@QAEIXZ 00402480 f   AIController.obj
 0001:000014d0       ?PushState@CONTROLLER@AI@@QAE_NI@Z 004024d0 f   AIController.obj
 0001:000014f0       ?InsertState@CONTROLLER@AI@@QAE_NI@Z 004024f0 f   AIController.obj
 0001:00001550       ?PeekStack@CONTROLLER@AI@@QAEIPAI@Z 00402550 f   AIController.obj
 0001:00001590       ?StartOverlay@CONTROLLER@AI@@QAE_NPAVSTATE@2@PAVOVERLAY@2@@Z 00402590 f   AIController.obj
 0001:00001640       ?StopOverlay@CONTROLLER@AI@@QAE_NPAVSTATE@2@PAVOVERLAY@2@@Z 00402640 f   AIController.obj
 0001:000016e0       ?PauseOverlay@CONTROLLER@AI@@QAE_NPAVSTATE@2@PAVOVERLAY@2@@Z 004026e0 f   AIController.obj
 0001:00001770       ?DisableOverlay@CONTROLLER@AI@@QAE_NPAVSTATE@2@PAVOVERLAY@2@@Z 00402770 f   AIController.obj
 0001:000017d0       ?FinishOverlay@CONTROLLER@AI@@QAE_NPAVSTATE@2@PAVOVERLAY@2@@Z 004027d0 f   AIController.obj
 0001:00001880       ?ManageAttachees@CONTROLLER@AI@@QAE_NPAVSTATE@2@PAVOVERLAY@2@@Z 00402880 f   AIController.obj
 0001:00001980       ?Add@CONTROLLER@AI@@QAE_NIPAVSTATE@2@@Z 00402980 f   AIController.obj
 0001:000019c0       ?Add@CONTROLLER@AI@@QAE_NIPAVOVERLAY@2@@Z 004029c0 f   AIController.obj
 0001:00001a00       ??0?$XMAP@IPAVCOMMAND@AI@@@@QAE@XZ 00402a00 f i AIController.obj
 0001:00001a80       ??0?$XMAP@IPAVOVERLAY@AI@@@@QAE@XZ 00402a80 f i AIController.obj
 0001:00001b00       ??0?$XMAP@IPAVSTATE@AI@@@@QAE@XZ 00402b00 f i AIController.obj
 0001:00001b80       ??0?$XMAP@IPAVXVARIANT@@@@QAE@XZ 00402b80 f i AIController.obj
 0001:00001c00       ??0?$XVECTOR@I@@QAE@XZ     00402c00 f i AIController.obj
 0001:00001c20       ??0?$XVECTOR@PAVCOMMAND@AI@@@@QAE@XZ 00402c20 f i AIController.obj
 0001:00001c40       ??0?$XVECTOR@PAVGRPSUBJECT@@@@QAE@XZ 00402c40 f i AIController.obj
 0001:00001c60       ??0?$XVECTOR@PAVOVERLAY@AI@@@@QAE@XZ 00402c60 f i AIController.obj
 0001:00001c80       ??0?$XVECTOR@PAVSTATE@AI@@@@QAE@XZ 00402c80 f i AIController.obj
 0001:00001ca0       ??0?$XVECTOR@PAVXVARIANT@@@@QAE@XZ 00402ca0 f i AIController.obj
 0001:00001cc0       ??0GRPNAMED@@QAE@XZ        00402cc0 f i AIController.obj
 0001:00001d30       ??0GRPOBSERVER@@QAE@XZ     00402d30 f i AIController.obj
 0001:00001d60       ??1?$XMAP@IPAVCOMMAND@AI@@@@UAE@XZ 00402d60 f i AIController.obj
 0001:00001d90       ??1?$XMAP@IPAVOVERLAY@AI@@@@UAE@XZ 00402d90 f i AIController.obj
 0001:00001dc0       ??1?$XMAP@IPAVSTATE@AI@@@@UAE@XZ 00402dc0 f i AIController.obj
 0001:00001df0       ??1?$XMAP@IPAVXVARIANT@@@@UAE@XZ 00402df0 f i AIController.obj
 0001:00001e20       ??1?$XVECTOR@I@@UAE@XZ     00402e20 f i AIController.obj
 0001:00001e70       ??1?$XVECTOR@PAVCOMMAND@AI@@@@UAE@XZ 00402e70 f i AIController.obj
 0001:00001ec0       ??1?$XVECTOR@PAVGRPSUBJECT@@@@UAE@XZ 00402ec0 f i AIController.obj
 0001:00001f10       ??1?$XVECTOR@PAVOVERLAY@AI@@@@UAE@XZ 00402f10 f i AIController.obj
 0001:00001f60       ??1?$XVECTOR@PAVSTATE@AI@@@@UAE@XZ 00402f60 f i AIController.obj
 0001:00001fb0       ??1?$XVECTOR@PAVXVARIANT@@@@UAE@XZ 00402fb0 f i AIController.obj
 0001:00002000       ??1GRPNAMED@@UAE@XZ        00403000 f i AIController.obj
 0001:00002060       ??1GRPOBSERVER@@QAE@XZ     00403060 f i AIController.obj
 0001:000020c0       ??_DCONTROLLER@AI@@QAEXXZ  004030c0 f i AIController.obj
 0001:000020f0       ??_G?$XMAP@IPAVCOMMAND@AI@@@@UAEPAXI@Z 004030f0 f i AIController.obj
 0001:000020f0       ??_E?$XMAP@IPAVCOMMAND@AI@@@@UAEPAXI@Z 004030f0 f i AIController.obj
 0001:00002120       ??_E?$XMAP@IPAVOVERLAY@AI@@@@UAEPAXI@Z 00403120 f i AIController.obj
 0001:00002120       ??_G?$XMAP@IPAVOVERLAY@AI@@@@UAEPAXI@Z 00403120 f i AIController.obj
 0001:00002150       ??_E?$XMAP@IPAVSTATE@AI@@@@UAEPAXI@Z 00403150 f i AIController.obj
 0001:00002150       ??_G?$XMAP@IPAVSTATE@AI@@@@UAEPAXI@Z 00403150 f i AIController.obj
 0001:00002180       ??_G?$XMAP@IPAVXVARIANT@@@@UAEPAXI@Z 00403180 f i AIController.obj
 0001:00002180       ??_E?$XMAP@IPAVXVARIANT@@@@UAEPAXI@Z 00403180 f i AIController.obj
 0001:000021b0       ??_E?$XVECTOR@I@@UAEPAXI@Z 004031b0 f i AIController.obj
 0001:000021b0       ??_G?$XVECTOR@I@@UAEPAXI@Z 004031b0 f i AIController.obj
 0001:000021e0       ??_G?$XVECTOR@PAVCOMMAND@AI@@@@UAEPAXI@Z 004031e0 f i AIController.obj
 0001:000021e0       ??_E?$XVECTOR@PAVCOMMAND@AI@@@@UAEPAXI@Z 004031e0 f i AIController.obj
 0001:00002210       ??_G?$XVECTOR@PAVGRPSUBJECT@@@@UAEPAXI@Z 00403210 f i AIController.obj
 0001:00002210       ??_E?$XVECTOR@PAVGRPSUBJECT@@@@UAEPAXI@Z 00403210 f i AIController.obj
 0001:00002240       ??_G?$XVECTOR@PAVOVERLAY@AI@@@@UAEPAXI@Z 00403240 f i AIController.obj
 0001:00002240       ??_E?$XVECTOR@PAVOVERLAY@AI@@@@UAEPAXI@Z 00403240 f i AIController.obj
 0001:00002270       ??_E?$XVECTOR@PAVSTATE@AI@@@@UAEPAXI@Z 00403270 f i AIController.obj
 0001:00002270       ??_G?$XVECTOR@PAVSTATE@AI@@@@UAEPAXI@Z 00403270 f i AIController.obj
 0001:000022a0       ??_G?$XVECTOR@PAVXVARIANT@@@@UAEPAXI@Z 004032a0 f i AIController.obj
 0001:000022a0       ??_E?$XVECTOR@PAVXVARIANT@@@@UAEPAXI@Z 004032a0 f i AIController.obj
 0001:000022d0       ??_GCOMMAND@AI@@QAEPAXI@Z  004032d0 f i AIController.obj
 0001:00002310       ??_GCONTROLLER@AI@@UAEPAXI@Z 00403310 f i AIController.obj
 0001:00002310       ??_ECONTROLLER@AI@@UAEPAXI@Z 00403310 f i AIController.obj
 0001:00002360       ??_GGRPNAMED@@UAEPAXI@Z    00403360 f i AIController.obj
 0001:00002360       ??_EGRPNAMED@@UAEPAXI@Z    00403360 f i AIController.obj
 0001:00002390       ?Add@?$XMAP@IPAVOVERLAY@AI@@@@QAE_NIPAVOVERLAY@AI@@@Z 00403390 f i AIController.obj
 0001:000023f0       ?Add@?$XMAP@IPAVSTATE@AI@@@@QAE_NIPAVSTATE@AI@@@Z 004033f0 f i AIController.obj
 0001:00002450       ?Add@?$XVECTOR@I@@QAE_NI@Z 00403450 f i AIController.obj
 0001:000024e0       ?Add@?$XVECTOR@PAVOVERLAY@AI@@@@QAE_NPAVOVERLAY@AI@@@Z 004034e0 f i AIController.obj
 0001:00002570       ?Add@?$XVECTOR@PAVSTATE@AI@@@@QAE_NPAVSTATE@AI@@@Z 00403570 f i AIController.obj
 0001:00002600       ?Clean@?$XVECTOR@I@@AAEXXZ 00403600 f i AIController.obj
 0001:00002640       ?Clean@?$XVECTOR@PAVCOMMAND@AI@@@@AAEXXZ 00403640 f i AIController.obj
 0001:00002680       ?Clean@?$XVECTOR@PAVGRPSUBJECT@@@@AAEXXZ 00403680 f i AIController.obj
 0001:000026c0       ?Clean@?$XVECTOR@PAVOVERLAY@AI@@@@AAEXXZ 004036c0 f i AIController.obj
 0001:00002700       ?Clean@?$XVECTOR@PAVSTATE@AI@@@@AAEXXZ 00403700 f i AIController.obj
 0001:00002740       ?Clean@?$XVECTOR@PAVXVARIANT@@@@AAEXXZ 00403740 f i AIController.obj
 0001:00002780       ?Clean@CONTROLLER@AI@@EAEXXZ 00403780 f i AIController.obj
 0001:000027f0       ?Clean@GRPNAMED@@AAEXXZ    004037f0 f i AIController.obj
 0001:00002820       ?Delete@?$XVECTOR@I@@QAE_NI@Z 00403820 f i AIController.obj
 0001:00002890       ?DeleteAll@?$XMAP@IPAVCOMMAND@AI@@@@QAE_NXZ 00403890 f i AIController.obj
 0001:000028c0       ?DeleteAll@?$XMAP@IPAVOVERLAY@AI@@@@QAE_NXZ 004038c0 f i AIController.obj
 0001:000028f0       ?DeleteAll@?$XMAP@IPAVSTATE@AI@@@@QAE_NXZ 004038f0 f i AIController.obj
 0001:00002920       ?DeleteAll@?$XMAP@IPAVXVARIANT@@@@QAE_NXZ 00403920 f i AIController.obj
 0001:00002950       ?DeleteAll@?$XVECTOR@I@@QAE_NXZ 00403950 f i AIController.obj
 0001:000029a0       ?DeleteAll@?$XVECTOR@PAVCOMMAND@AI@@@@QAE_NXZ 004039a0 f i AIController.obj
 0001:000029f0       ?DeleteAll@?$XVECTOR@PAVGRPSUBJECT@@@@QAE_NXZ 004039f0 f i AIController.obj
 0001:00002a40       ?DeleteAll@?$XVECTOR@PAVOVERLAY@AI@@@@QAE_NXZ 00403a40 f i AIController.obj
 0001:00002a90       ?DeleteAll@?$XVECTOR@PAVSTATE@AI@@@@QAE_NXZ 00403a90 f i AIController.obj
 0001:00002ae0       ?DeleteAll@?$XVECTOR@PAVXVARIANT@@@@QAE_NXZ 00403ae0 f i AIController.obj
 0001:00002b30       ?DeleteContents@?$XVECTOR@PAVCOMMAND@AI@@@@QAE_NXZ 00403b30 f i AIController.obj
 0001:00002bd0       ?DeleteContents@?$XVECTOR@PAVOVERLAY@AI@@@@QAE_NXZ 00403bd0 f i AIController.obj
 0001:00002c90       ?DeleteContents@?$XVECTOR@PAVSTATE@AI@@@@QAE_NXZ 00403c90 f i AIController.obj
 0001:00002d50       ?DeleteContents@?$XVECTOR@PAVXVARIANT@@@@QAE_NXZ 00403d50 f i AIController.obj
 0001:00002df0       ?DeleteElementContents@?$XMAP@IPAVCOMMAND@AI@@@@QAE_NXZ 00403df0 f i AIController.obj
 0001:00002e10       ?DeleteElementContents@?$XMAP@IPAVOVERLAY@AI@@@@QAE_NXZ 00403e10 f i AIController.obj
 0001:00002e30       ?DeleteElementContents@?$XMAP@IPAVSTATE@AI@@@@QAE_NXZ 00403e30 f i AIController.obj
 0001:00002e50       ?DeleteElementContents@?$XMAP@IPAVXVARIANT@@@@QAE_NXZ 00403e50 f i AIController.obj
 0001:00002e70       ?DeleteIndex@?$XVECTOR@I@@QAE_NH@Z 00403e70 f i AIController.obj
 0001:00002ec0       ?FastGet@?$XVECTOR@PAVCOMMAND@AI@@@@QAEPAVCOMMAND@AI@@H@Z 00403ec0 f i AIController.obj
 0001:00002ee0       ?FastGet@?$XVECTOR@PAVOVERLAY@AI@@@@QAEPAVOVERLAY@AI@@H@Z 00403ee0 f i AIController.obj
 0001:00002f00       ?FastGet@?$XVECTOR@PAVSTATE@AI@@@@QAEPAVSTATE@AI@@H@Z 00403f00 f i AIController.obj
 0001:00002f20       ?FastGet@?$XVECTOR@PAVXVARIANT@@@@QAEPAVXVARIANT@@H@Z 00403f20 f i AIController.obj
 0001:00002f40       ?Find@?$XMAP@IPAVSTATE@AI@@@@QAEHI@Z 00403f40 f i AIController.obj
 0001:00002f60       ?Find@?$XMAP@IPAVXVARIANT@@@@QAEHI@Z 00403f60 f i AIController.obj
 0001:00002f80       ?Find@?$XVECTOR@I@@QAEHI@Z 00403f80 f i AIController.obj
 0001:00002fe0       ?Get@?$XMAP@IPAVCOMMAND@AI@@@@QAEPAVCOMMAND@AI@@I@Z 00403fe0 f i AIController.obj
 0001:00003030       ?Get@?$XMAP@IPAVOVERLAY@AI@@@@QAEPAVOVERLAY@AI@@I@Z 00404030 f i AIController.obj
 0001:00003080       ?Get@?$XMAP@IPAVSTATE@AI@@@@QAEPAVSTATE@AI@@I@Z 00404080 f i AIController.obj
 0001:000030d0       ?Get@?$XMAP@IPAVXVARIANT@@@@QAEPAVXVARIANT@@I@Z 004040d0 f i AIController.obj
 0001:00003120       ?Get@?$XVECTOR@I@@QAEIH@Z  00404120 f i AIController.obj
 0001:00003160       ?Get@?$XVECTOR@PAVGRPANIMATIONSTACK@@@@QAEPAVGRPANIMATIONSTACK@@H@Z 00404160 f i AIController.obj
 0001:000031a0       ?Get@?$XVECTOR@PAVOVERLAY@AI@@@@QAEPAVOVERLAY@AI@@H@Z 004041a0 f i AIController.obj
 0001:000031e0       ?Get@?$XVECTOR@PAVXVARIANT@@@@QAEPAVXVARIANT@@H@Z 004041e0 f i AIController.obj
 0001:00003220       ?GetAttachees@OVERLAY@AI@@QAEPAV?$XMAP@II@@XZ 00404220 f i AIController.obj
 0001:00003240       ?GetElement@?$XMAP@II@@QAEIH@Z 00404240 f i AIController.obj
 0001:00003260       ?GetElement@?$XMAP@IPAVGRPANIMATIONSTACK@@@@QAEPAVGRPANIMATIONSTACK@@H@Z 00404260 f i AIController.obj
 0001:00003280       ?GetElement@?$XMAP@IPAVOVERLAY@AI@@@@QAEPAVOVERLAY@AI@@H@Z 00404280 f i AIController.obj
 0001:000032a0       ?GetElement@?$XMAP@IPAVXVARIANT@@@@QAEPAVXVARIANT@@H@Z 004042a0 f i AIController.obj
 0001:000032c0       ?GetID@OVERLAY@AI@@QAEIXZ  004042c0 f i AIController.obj
 0001:000032e0       ?GetKey@?$XMAP@II@@QAEIH@Z 004042e0 f i AIController.obj
 0001:00003300       ?GetKey@?$XMAP@IPAVXVARIANT@@@@QAEIH@Z 00404300 f i AIController.obj
 0001:00003320       ?GetLast@?$XVECTOR@I@@QAEIXZ 00404320 f i AIController.obj
 0001:00003340       ?GetName@GRPNAMED@@UAEPAVXSTRING@@XZ 00404340 f i AIController.obj
 0001:00003360       ?GetOverlayables@OVERLAY@AI@@QAEPAV?$XVECTOR@I@@XZ 00404360 f i AIController.obj
 0001:00003380       ?GetSize@?$XMAP@II@@QAEIXZ 00404380 f i AIController.obj
 0001:000033a0       ?GetSize@?$XMAP@IPAVGRPANIMATIONSTACK@@@@QAEIXZ 004043a0 f i AIController.obj
 0001:000033c0       ?GetSize@?$XMAP@IPAVOVERLAY@AI@@@@QAEIXZ 004043c0 f i AIController.obj
 0001:000033e0       ?GetSize@?$XMAP@IPAVXVARIANT@@@@QAEIXZ 004043e0 f i AIController.obj
 0001:00003400       ?GetSize@?$XVECTOR@I@@QAEIXZ 00404400 f i AIController.obj
 0001:00003420       ?GetStates@CONTROLLER@AI@@QAEPAV?$XMAP@IPAVSTATE@AI@@@@XZ 00404420 f i AIController.obj
 0001:00003440       ?GetStatus@OVERLAY@AI@@QAEIXZ 00404440 f i AIController.obj
 0001:00003460       ?GetSubjectType@CONTROLLER@AI@@UAEIXZ 00404460 f i AIController.obj
 0001:00003470       ?GetTag@GRPNAMED@@UAE_KXZ  00404470 f i AIController.obj
 0001:00003490       ?Insert@?$XVECTOR@I@@QAE_NII@Z 00404490 f i AIController.obj
 0001:00003520       ?Notify@CONTROLLER@AI@@UAE_NW4GRPMSGTYPE@@PAVGRPSUBJECT@@@Z 00404520 f i AIController.obj
 0001:00003550       ?ResizeAdd@?$XVECTOR@I@@AAE_NXZ 00404550 f i AIController.obj
 0001:00003610       ?ResizeAdd@?$XVECTOR@PAVOVERLAY@AI@@@@AAE_NXZ 00404610 f i AIController.obj
 0001:000036d0       ?ResizeAdd@?$XVECTOR@PAVSTATE@AI@@@@AAE_NXZ 004046d0 f i AIController.obj
 0001:00003790       ?ResizeRemove@?$XVECTOR@I@@AAE_NI@Z 00404790 f i AIController.obj
 0001:00003800       ?Set@?$XVECTOR@I@@QAE_NHI@Z 00404800 f i AIController.obj
 0001:00003840       ?SetController@OVERLAY@AI@@QAEXPAVCONTROLLER@2@@Z 00404840 f i AIController.obj
 0001:00003860       ?SetController@STATE@AI@@QAEXPAVCONTROLLER@2@@Z 00404860 f i AIController.obj
 0001:00003880       ?SetIsMulti@?$XMAP@IPAVCOMMAND@AI@@@@QAEX_N@Z 00404880 f i AIController.obj
 0001:000038b0       ?SetIsMulti@?$XMAP@IPAVOVERLAY@AI@@@@QAEX_N@Z 004048b0 f i AIController.obj
 0001:000038e0       ?SetIsMulti@?$XMAP@IPAVSTATE@AI@@@@QAEX_N@Z 004048e0 f i AIController.obj
 0001:00003910       ?SetIsMulti@?$XMAP@IPAVXVARIANT@@@@QAEX_N@Z 00404910 f i AIController.obj
 0001:00003940       ?SetIsMulti@?$XVECTOR@I@@QAEX_N@Z 00404940 f i AIController.obj
 0001:00003960       ?SetIsMulti@?$XVECTOR@PAVCOMMAND@AI@@@@QAEX_N@Z 00404960 f i AIController.obj
 0001:00003980       ?SetIsMulti@?$XVECTOR@PAVOVERLAY@AI@@@@QAEX_N@Z 00404980 f i AIController.obj
 0001:000039a0       ?SetIsMulti@?$XVECTOR@PAVSTATE@AI@@@@QAEX_N@Z 004049a0 f i AIController.obj
 0001:000039c0       ?SetIsMulti@?$XVECTOR@PAVXVARIANT@@@@QAEX_N@Z 004049c0 f i AIController.obj
 0001:000039e0       ?SetName@GRPNAMED@@UAEXPA_W@Z 004049e0 f i AIController.obj
 0001:00003a00       ?SetStatus@OVERLAY@AI@@QAEXI@Z 00404a00 f i AIController.obj
 0001:00003a20       ?SetTag@GRPNAMED@@UAEX_K@Z 00404a20 f i AIController.obj
 0001:00003a40       ??0LOGIC@AI@@QAE@XZ        00404a40 f   AILogic.obj
 0001:00003b10       ??1LOGIC@AI@@UAE@XZ        00404b10 f   AILogic.obj
 0001:00003bb0       ?Add@LOGIC@AI@@QAEXPAVCONTROLLER@2@@Z 00404bb0 f   AILogic.obj
 0001:00003bd0       ?Update@LOGIC@AI@@UAE_NXZ  00404bd0 f   AILogic.obj
 0001:00003c20       ?GetSubjectType@LOGIC@AI@@UAEIXZ 00404c20 f   AILogic.obj
 0001:00003c30       ?Notify@LOGIC@AI@@UAE_NW4GRPMSGTYPE@@PAVGRPSUBJECT@@@Z 00404c30 f   AILogic.obj
 0001:00003c40       ??0?$XVECTOR@PAVCONTROLLER@AI@@@@QAE@XZ 00404c40 f i AILogic.obj
 0001:00003c60       ??1?$XVECTOR@PAVCONTROLLER@AI@@@@UAE@XZ 00404c60 f i AILogic.obj
 0001:00003cb0       ??_DLOGIC@AI@@QAEXXZ       00404cb0 f i AILogic.obj
 0001:00003ce0       ??_E?$XVECTOR@PAVCONTROLLER@AI@@@@UAEPAXI@Z 00404ce0 f i AILogic.obj
 0001:00003ce0       ??_G?$XVECTOR@PAVCONTROLLER@AI@@@@UAEPAXI@Z 00404ce0 f i AILogic.obj
 0001:00003d10       ??_ELOGIC@AI@@UAEPAXI@Z    00404d10 f i AILogic.obj
 0001:00003d10       ??_GLOGIC@AI@@UAEPAXI@Z    00404d10 f i AILogic.obj
 0001:00003d50       ?Add@?$XVECTOR@PAVCONTROLLER@AI@@@@QAE_NPAVCONTROLLER@AI@@@Z 00404d50 f i AILogic.obj
 0001:00003de0       ?Clean@?$XVECTOR@PAVCONTROLLER@AI@@@@AAEXXZ 00404de0 f i AILogic.obj
 0001:00003e20       ?Clean@LOGIC@AI@@EAEXXZ    00404e20 f i AILogic.obj
 0001:00003e30       ?DeleteAll@?$XVECTOR@PAVCONTROLLER@AI@@@@QAE_NXZ 00404e30 f i AILogic.obj
 0001:00003e80       ?DeleteContents@?$XVECTOR@PAVCONTROLLER@AI@@@@QAE_NXZ 00404e80 f i AILogic.obj
 0001:00003f40       ?FastGet@?$XVECTOR@PAVCONTROLLER@AI@@@@QAEPAVCONTROLLER@AI@@H@Z 00404f40 f i AILogic.obj
 0001:00003f60       ?GetSize@?$XVECTOR@PAVCONTROLLER@AI@@@@QAEIXZ 00404f60 f i AILogic.obj
 0001:00003f80       ?ResizeAdd@?$XVECTOR@PAVCONTROLLER@AI@@@@AAE_NXZ 00404f80 f i AILogic.obj
 0001:00004040       ??1COMMAND@AI@@QAE@XZ      00405040 f   AIState.obj
 0001:000040c0       ??0STATE@AI@@QAE@IPA_W@Z   004050c0 f   AIState.obj
 0001:000041f0       ??1STATE@AI@@UAE@XZ        004051f0 f   AIState.obj
 0001:000042b0       ?Add@STATE@AI@@QAEXPAVANIMATION@2@@Z 004052b0 f   AIState.obj
 0001:000042d0       ?Begin@STATE@AI@@QAEHXZ    004052d0 f   AIState.obj
 0001:000043f0       ?Play@STATE@AI@@QAEHXZ     004053f0 f   AIState.obj
 0001:00004570       ?Stop@STATE@AI@@QAEHXZ     00405570 f   AIState.obj
 0001:000046b0       ?Step@STATE@AI@@QAEHXZ     004056b0 f   AIState.obj
 0001:000047c0       ?SetMilestones@STATE@AI@@QAEXH@Z 004057c0 f   AIState.obj
 0001:000048e0       ?GetLastAnimation@STATE@AI@@QAEPAVANIMATION@2@XZ 004058e0 f   AIState.obj
 0001:00004910       ?GetCurrentAnimation@STATE@AI@@QAEPAVANIMATION@2@XZ 00405910 f   AIState.obj
 0001:00004940       ?GetNextAnimation@STATE@AI@@QAEPAVANIMATION@2@XZ 00405940 f   AIState.obj
 0001:00004970       ?GetAnimations@STATE@AI@@QAEPAV?$XVECTOR@PAVANIMATION@AI@@@@XZ 00405970 f   AIState.obj
 0001:00004990       ?GetIndex@STATE@AI@@QAEIXZ 00405990 f   AIState.obj
 0001:000049b0       ?StartAsCurrentState@STATE@AI@@QAEXXZ 004059b0 f   AIState.obj
 0001:00004b20       ?FinishCurrentState@STATE@AI@@QAEXXZ 00405b20 f   AIState.obj
 0001:00004c70       ?Accept@STATE@AI@@QAE_NPAV12@@Z 00405c70 f   AIState.obj
 0001:00004da0       ?Reject@STATE@AI@@QAE_NPAV12@@Z 00405da0 f   AIState.obj
 0001:00004dc0       ?GetStack@STATE@AI@@QAEPAVGRPANIMATIONSTACK@@XZ 00405dc0 f   AIState.obj
 0001:00004e00       ?ManageFinish@STATE@AI@@IAE_NPAVGRPANIMATIONSTACK@@@Z 00405e00 f   AIState.obj
 0001:00005490       ??0?$XVECTOR@PAVANIMATION@AI@@@@QAE@XZ 00406490 f i AIState.obj
 0001:000054b0       ??0?$XVECTOR@_J@@QAE@XZ    004064b0 f i AIState.obj
 0001:000054d0       ??0?$XVECTOR@_N@@QAE@XZ    004064d0 f i AIState.obj
 0001:000054f0       ??0TRANSITION@AI@@QAE@XZ   004064f0 f i AIState.obj
 0001:000055a0       ??1?$XMAP@II@@UAE@XZ       004065a0 f i AIState.obj
 0001:000055d0       ??1?$XVECTOR@PAVANIMATION@AI@@@@UAE@XZ 004065d0 f i AIState.obj
 0001:00005620       ??1?$XVECTOR@_J@@UAE@XZ    00406620 f i AIState.obj
 0001:00005670       ??1?$XVECTOR@_N@@UAE@XZ    00406670 f i AIState.obj
 0001:000056c0       ??1ANIMATION@AI@@QAE@XZ    004066c0 f i AIState.obj
 0001:00005730       ??1TRANSITION@AI@@UAE@XZ   00406730 f i AIState.obj
 0001:00005780       ??_DSTATE@AI@@QAEXXZ       00406780 f i AIState.obj
 0001:000057a7       ??_ESTATE@AI@@$4PPPPPPPM@A@AEPAXI@Z 004067a7 f i AIState.obj
 0001:000057b0       ??_G?$XMAP@II@@UAEPAXI@Z   004067b0 f i AIState.obj
 0001:000057b0       ??_E?$XMAP@II@@UAEPAXI@Z   004067b0 f i AIState.obj
 0001:000057e0       ??_E?$XVECTOR@PAVANIMATION@AI@@@@UAEPAXI@Z 004067e0 f i AIState.obj
 0001:000057e0       ??_G?$XVECTOR@PAVANIMATION@AI@@@@UAEPAXI@Z 004067e0 f i AIState.obj
 0001:00005810       ??_E?$XVECTOR@_J@@UAEPAXI@Z 00406810 f i AIState.obj
 0001:00005810       ??_G?$XVECTOR@_J@@UAEPAXI@Z 00406810 f i AIState.obj
 0001:00005840       ??_E?$XVECTOR@_N@@UAEPAXI@Z 00406840 f i AIState.obj
 0001:00005840       ??_G?$XVECTOR@_N@@UAEPAXI@Z 00406840 f i AIState.obj
 0001:00005870       ??_GANIMATION@AI@@QAEPAXI@Z 00406870 f i AIState.obj
 0001:000058a0       ??_GSTATE@AI@@UAEPAXI@Z    004068a0 f i AIState.obj
 0001:000058a0       ??_ESTATE@AI@@UAEPAXI@Z    004068a0 f i AIState.obj
 0001:000058f0       ??_ETRANSITION@AI@@UAEPAXI@Z 004068f0 f i AIState.obj
 0001:000058f0       ??_GTRANSITION@AI@@UAEPAXI@Z 004068f0 f i AIState.obj
 0001:00005930       ?Add@?$XVECTOR@PAVANIMATION@AI@@@@QAE_NPAVANIMATION@AI@@@Z 00406930 f i AIState.obj
 0001:000059c0       ?Clean@?$XVECTOR@PAVANIMATION@AI@@@@AAEXXZ 004069c0 f i AIState.obj
 0001:00005a00       ?Clean@?$XVECTOR@_J@@AAEXXZ 00406a00 f i AIState.obj
 0001:00005a40       ?Clean@?$XVECTOR@_N@@AAEXXZ 00406a40 f i AIState.obj
 0001:00005a80       ?Clean@GRPSUBJECT@@EAEXXZ  00406a80 f i AIState.obj
 0001:00005ab0       ?Clean@STATE@AI@@EAEXXZ    00406ab0 f i AIState.obj
 0001:00005af0       ?DeleteAll@?$XMAP@II@@QAE_NXZ 00406af0 f i AIState.obj
 0001:00005b20       ?DeleteAll@?$XVECTOR@PAVANIMATION@AI@@@@QAE_NXZ 00406b20 f i AIState.obj
 0001:00005b70       ?DeleteAll@?$XVECTOR@_J@@QAE_NXZ 00406b70 f i AIState.obj
 0001:00005bc0       ?DeleteAll@?$XVECTOR@_N@@QAE_NXZ 00406bc0 f i AIState.obj
 0001:00005c10       ?DeleteContents@?$XVECTOR@PAVANIMATION@AI@@@@QAE_NXZ 00406c10 f i AIState.obj
 0001:00005cb0       ?Get@?$XVECTOR@PAVANIMATION@AI@@@@QAEPAVANIMATION@AI@@H@Z 00406cb0 f i AIState.obj
 0001:00005cf0       ?GetLast@?$XVECTOR@PAVANIMATION@AI@@@@QAEPAVANIMATION@AI@@XZ 00406cf0 f i AIState.obj
 0001:00005d0d       ?GetName@STATE@AI@@$4PPPPPPPM@A@AEPAVXSTRING@@XZ 00406d0d f i AIState.obj
 0001:00005d20       ?GetName@STATE@AI@@UAEPAVXSTRING@@XZ 00406d20 f i AIState.obj
 0001:00005d50       ?GetOwner@CONTROLLER@AI@@QAEPAVGRPOBJECT@@XZ 00406d50 f i AIState.obj
 0001:00005d70       ?GetSize@?$XVECTOR@PAVANIMATION@AI@@@@QAEIXZ 00406d70 f i AIState.obj
 0001:00005d90       ?GetSubjectType@STATE@AI@@UAEIXZ 00406d90 f i AIState.obj
 0001:00005da0       ?ResizeAdd@?$XVECTOR@PAVANIMATION@AI@@@@AAE_NXZ 00406da0 f i AIState.obj
 0001:00005e60       ?SetIsMulti@?$XVECTOR@PAVANIMATION@AI@@@@QAEX_N@Z 00406e60 f i AIState.obj
 0001:00005e80       ?SetIsMulti@?$XVECTOR@PAVGRPOBSERVER@@@@QAEX_N@Z 00406e80 f i AIState.obj
 0001:00005e96       ?SetName@STATE@AI@@$4PPPPPPPM@A@AEXPA_W@Z 00406e96 f i AIState.obj
 0001:00005ea0       ?SetName@STATE@AI@@UAEXPA_W@Z 00406ea0 f i AIState.obj
 0001:00005ed0       ?GetTransitions@TRANSITION@AI@@QAEPAV?$XVECTOR@I@@XZ 00406ed0 f   AITransition.obj
 0001:00005ef0       ?GetRejections@TRANSITION@AI@@QAEPAV?$XVECTOR@I@@XZ 00406ef0 f   AITransition.obj
 0001:00005f10       ?Accept@TRANSITION@AI@@QAE_NI@Z 00406f10 f   AITransition.obj
 0001:00005f60       ?Reject@TRANSITION@AI@@QAE_NI@Z 00406f60 f   AITransition.obj
 0001:00005fb0       ?FastGet@?$XVECTOR@I@@QAEIH@Z 00406fb0 f i AITransition.obj
 0001:00005fd0       ??0CIPHERKEYSYMMETRICAL@@QAE@XZ 00406fd0 f   Cipher.obj
 0001:00006080       ??1CIPHERKEYSYMMETRICAL@@UAE@XZ 00407080 f   Cipher.obj
 0001:00006110       ?Get@CIPHERKEYSYMMETRICAL@@QAEPAEAAH@Z 00407110 f   Cipher.obj
 0001:00006150       ?Get@CIPHERKEYSYMMETRICAL@@QAEPAVXBUFFER@@XZ 00407150 f   Cipher.obj
 0001:00006170       ?Set@CIPHERKEYSYMMETRICAL@@QAE_NPAEH@Z 00407170 f   Cipher.obj
 0001:000061b0       ?Set@CIPHERKEYSYMMETRICAL@@QAE_NAAVXBUFFER@@@Z 004071b0 f   Cipher.obj
 0001:000061e0       ??0CIPHER@@QAE@XZ          004071e0 f   Cipher.obj
 0001:000062d0       ??1CIPHER@@UAE@XZ          004072d0 f   Cipher.obj
 0001:000063a0       ?GetKey@CIPHER@@QAEPAVCIPHERKEY@@W4CIPHERKEYTYPE@@@Z 004073a0 f   Cipher.obj
 0001:000063f0       ?SetKey@CIPHER@@UAE_NPAVCIPHERKEY@@_N@Z 004073f0 f   Cipher.obj
 0001:00006450       ?GetInitVector@CIPHER@@QAEPAEXZ 00407450 f   Cipher.obj
 0001:00006480       ?SetInitVector@CIPHER@@QAE_NPAEH@Z 00407480 f   Cipher.obj
 0001:000064d0       ?SetInitVector@CIPHER@@QAE_NAAVXBUFFER@@@Z 004074d0 f   Cipher.obj
 0001:00006500       ?Cipher@CIPHER@@UAE_NPAEH@Z 00407500 f   Cipher.obj
 0001:000065e0       ?Cipher@CIPHER@@QAE_NAAVXBUFFER@@@Z 004075e0 f   Cipher.obj
 0001:00006610       ?Uncipher@CIPHER@@UAE_NPAEH@Z 00407610 f   Cipher.obj
 0001:00006640       ?Uncipher@CIPHER@@QAE_NAAVXBUFFER@@@Z 00407640 f   Cipher.obj
 0001:00006670       ?GetResult@CIPHER@@UAEPAEAAH@Z 00407670 f   Cipher.obj
 0001:000066b0       ?GetResult@CIPHER@@QAEPAVXBUFFER@@XZ 004076b0 f   Cipher.obj
 0001:000066d0       ?GetResultString@CIPHER@@QAE_NAAVXSTRING@@@Z 004076d0 f   Cipher.obj
 0001:000067b0       ?Clean@CIPHER@@AAEXXZ      004077b0 f   Cipher.obj
 0001:00006810       ?GetKey@CIPHER@@AAEPAVCIPHERKEY@@H@Z 00407810 f   Cipher.obj
 0001:00006840       ?SetKey@CIPHER@@AAE_NHPAVCIPHERKEY@@@Z 00407840 f   Cipher.obj
 0001:00006870       ??0CIPHERKEY@@QAE@XZ       00407870 f i Cipher.obj
 0001:00006890       ??1CIPHERKEY@@UAE@XZ       00407890 f i Cipher.obj
 0001:000068e0       ??YXSTRING@@QAEXAAV0@@Z    004078e0 f i Cipher.obj
 0001:00006900       ??_ECIPHER@@UAEPAXI@Z      00407900 f i Cipher.obj
 0001:00006900       ??_GCIPHER@@UAEPAXI@Z      00407900 f i Cipher.obj
 0001:00006930       ??_ECIPHERKEY@@UAEPAXI@Z   00407930 f i Cipher.obj
 0001:00006930       ??_GCIPHERKEY@@UAEPAXI@Z   00407930 f i Cipher.obj
 0001:00006960       ??_GCIPHERKEYSYMMETRICAL@@UAEPAXI@Z 00407960 f i Cipher.obj
 0001:00006960       ??_ECIPHERKEYSYMMETRICAL@@UAEPAXI@Z 00407960 f i Cipher.obj
 0001:00006990       ?Clean@CIPHERKEY@@AAEXXZ   00407990 f i Cipher.obj
 0001:000069b0       ?Clean@CIPHERKEYSYMMETRICAL@@AAEXXZ 004079b0 f i Cipher.obj
 0001:000069d0       ?GetSizeInBytes@CIPHERKEY@@UAEHXZ 004079d0 f i Cipher.obj
 0001:000069e0       ?GetSizeInBytes@CIPHERKEYSYMMETRICAL@@UAEHXZ 004079e0 f i Cipher.obj
 0001:00006a00       ?GetType@CIPHERKEY@@QAE?AW4CIPHERKEYTYPE@@XZ 00407a00 f i Cipher.obj
 0001:00006a20       ??0CIPHERAES@@QAE@XZ       00407a20 f   CipherAES.obj
 0001:00006aa0       ??1CIPHERAES@@UAE@XZ       00407aa0 f   CipherAES.obj
 0001:00006af0       ?Cipher@CIPHERAES@@UAE_NPAEH@Z 00407af0 f   CipherAES.obj
 0001:00006f00       ?Uncipher@CIPHERAES@@UAE_NPAEH@Z 00407f00 f   CipherAES.obj
 0001:00007190       ?Clean@CIPHERAES@@AAEXXZ   00408190 f   CipherAES.obj
 0001:000071a0       ?AESGenTables@CIPHERAES@@AAEXXZ 004081a0 f   CipherAES.obj
 0001:000077d0       ?AESSetKeyCipher@CIPHERAES@@AAE_NPAUCIPHERAES_CONTEXT@@PAEI@Z 004087d0 f   CipherAES.obj
 0001:00007e40       ?AESSetKeyUncipher@CIPHERAES@@AAE_NPAUCIPHERAES_CONTEXT@@PAEI@Z 00408e40 f   CipherAES.obj
 0001:000081c0       ?AESCipher_ECB_Block@CIPHERAES@@AAE_NPAUCIPHERAES_CONTEXT@@HQAE1@Z 004091c0 f   CipherAES.obj
 0001:00009090       ?AESCipher_ECB@CIPHERAES@@AAE_NPAUCIPHERAES_CONTEXT@@HHPAE1@Z 0040a090 f   CipherAES.obj
 0001:00009100       ?AESCipher_CBC@CIPHERAES@@AAE_NPAUCIPHERAES_CONTEXT@@HHQAEPAE2@Z 0040a100 f   CipherAES.obj
 0001:00009280       ?AESCipher_CFB128@CIPHERAES@@AAE_NPAUCIPHERAES_CONTEXT@@HHPAHQAEPAE3@Z 0040a280 f   CipherAES.obj
 0001:000093a0       ?AESCipher_CTR@CIPHERAES@@AAE_NPAUCIPHERAES_CONTEXT@@HPAHQAE2PAE3@Z 0040a3a0 f   CipherAES.obj
 0001:00009480       ??_GCIPHERAES@@UAEPAXI@Z   0040a480 f i CipherAES.obj
 0001:00009480       ??_ECIPHERAES@@UAEPAXI@Z   0040a480 f i CipherAES.obj
 0001:000094b0       ?GetChainingMode@CIPHER@@QAE?AW4CIPHERCHAININGMODE@@XZ 0040a4b0 f i CipherAES.obj
 0001:000094d0       ??0HASH@@QAE@XZ            0040a4d0 f   Hash.obj
 0001:00009580       ??1HASH@@UAE@XZ            0040a580 f   Hash.obj
 0001:00009610       ?Do@HASH@@UAE_NPAEH@Z      0040a610 f   Hash.obj
 0001:00009620       ?Do@HASH@@QAE_NAAVXBUFFER@@@Z 0040a620 f   Hash.obj
 0001:00009650       ?Do@HASH@@QAE_NAAVXPATH@@HH@Z 0040a650 f   Hash.obj
 0001:00009700       ?Do@HASH@@QAE_NPAVXFILE@@HH@Z 0040a700 f   Hash.obj
 0001:000098e0       ?ResetResult@HASH@@UAE_NXZ 0040a8e0 f   Hash.obj
 0001:00009910       ?GetDefaultSize@HASH@@UAEHXZ 0040a910 f   Hash.obj
 0001:00009920       ?GetResult@HASH@@UAEPAVXBUFFER@@XZ 0040a920 f   Hash.obj
 0001:00009940       ?GetResult@HASH@@UAEPAEAAH@Z 0040a940 f   Hash.obj
 0001:00009980       ?GetResultString@HASH@@QAE_NAAVXSTRING@@@Z 0040a980 f   Hash.obj
 0001:00009a60       ?Clean@HASH@@AAEXXZ        0040aa60 f   Hash.obj
 0001:00009a80       ??_GHASH@@UAEPAXI@Z        0040aa80 f i Hash.obj
 0001:00009a80       ??_EHASH@@UAEPAXI@Z        0040aa80 f i Hash.obj
 0001:00009ab0       ?GetSize@XFILE@@QAEHXZ     0040aab0 f i Hash.obj
 0001:00009ad0       ?IsOpen@XFILE@@QAE_NXZ     0040aad0 f i Hash.obj
 0001:00009af0       ?Open@XFILE@@QAE_NAAVXPATH@@_N@Z 0040aaf0 f i Hash.obj
 0001:00009b20       ??0HASHCOMP128V1@@QAE@XZ   0040ab20 f   HashCOMP128v1.obj
 0001:00009b80       ??1HASHCOMP128V1@@UAE@XZ   0040ab80 f   HashCOMP128v1.obj
 0001:00009bd0       ?SetInput@HASHCOMP128V1@@QAE_NPAE0AAVXBUFFER@@@Z 0040abd0 f   HashCOMP128v1.obj
 0001:00009c00       ?Do@HASHCOMP128V1@@UAE_NPAEH@Z 0040ac00 f   HashCOMP128v1.obj
 0001:00009c70       ?GetDefaultSize@HASHCOMP128V1@@UAEHXZ 0040ac70 f   HashCOMP128v1.obj
 0001:00009c80       ?GetSRES@HASHCOMP128V1@@QAE_NAAVXBUFFER@@@Z 0040ac80 f   HashCOMP128v1.obj
 0001:00009cd0       ?GetKc@HASHCOMP128V1@@QAE_NAAVXBUFFER@@@Z 0040acd0 f   HashCOMP128v1.obj
 0001:00009d20       ?Clean@HASHCOMP128V1@@AAEXXZ 0040ad20 f   HashCOMP128v1.obj
 0001:00009d30       ?Make@HASHCOMP128V1@@AAEXPAE@Z 0040ad30 f   HashCOMP128v1.obj
 0001:0000a1f0       ??_EHASHCOMP128V1@@UAEPAXI@Z 0040b1f0 f i HashCOMP128v1.obj
 0001:0000a1f0       ??_GHASHCOMP128V1@@UAEPAXI@Z 0040b1f0 f i HashCOMP128v1.obj
 0001:0000a220       ??0HASHCRC32@@QAE@XZ       0040b220 f   HashCRC32.obj
 0001:0000a2f0       ??1HASHCRC32@@UAE@XZ       0040b2f0 f   HashCRC32.obj
 0001:0000a390       ?Do@HASHCRC32@@UAE_NPAEH@Z 0040b390 f   HashCRC32.obj
 0001:0000a420       ?ResetResult@HASHCRC32@@UAE_NXZ 0040b420 f   HashCRC32.obj
 0001:0000a460       ?GetDefaultSize@HASHCRC32@@UAEHXZ 0040b460 f   HashCRC32.obj
 0001:0000a470       ?GetResult@HASHCRC32@@UAEPAVXBUFFER@@XZ 0040b470 f   HashCRC32.obj
 0001:0000a490       ?GetResult@HASHCRC32@@UAEPAEAAH@Z 0040b490 f   HashCRC32.obj
 0001:0000a4c0       ?GetResultCRC32@HASHCRC32@@QAEIXZ 0040b4c0 f   HashCRC32.obj
 0001:0000a510       ?Clean@HASHCRC32@@AAEXXZ   0040b510 f   HashCRC32.obj
 0001:0000a530       ?Ini@HASHCRC32@@AAEXXZ     0040b530 f   HashCRC32.obj
 0001:0000a5b0       ?Update@HASHCRC32@@AAEIIE@Z 0040b5b0 f   HashCRC32.obj
 0001:0000a5f0       ??_GHASHCRC32@@UAEPAXI@Z   0040b5f0 f i HashCRC32.obj
 0001:0000a5f0       ??_EHASHCRC32@@UAEPAXI@Z   0040b5f0 f i HashCRC32.obj
 0001:0000a630       ??0HASHMD5@@QAE@XZ         0040b630 f   HashMD5.obj
 0001:0000a6b0       ??1HASHMD5@@UAE@XZ         0040b6b0 f   HashMD5.obj
 0001:0000a700       ?Do@HASHMD5@@UAE_NPAEH@Z   0040b700 f   HashMD5.obj
 0001:0000a760       ?GetDefaultSize@HASHMD5@@UAEHXZ 0040b760 f   HashMD5.obj
 0001:0000a770       ?Clean@HASHMD5@@AAEXXZ     0040b770 f   HashMD5.obj
 0001:0000a780       ?Ini@HASHMD5@@AAEXXZ       0040b780 f   HashMD5.obj
 0001:0000a810       ?Update@HASHMD5@@AAEXPAEI@Z 0040b810 f   HashMD5.obj
 0001:0000a960       ?Transform@HASHMD5@@AAEXQAE@Z 0040b960 f   HashMD5.obj
 0001:0000b570       ?End@HASHMD5@@AAEXXZ       0040c570 f   HashMD5.obj
 0001:0000b760       ?Decode@HASHMD5@@AAEXPAIPAEI@Z 0040c760 f   HashMD5.obj
 0001:0000b7e0       ?Encode@HASHMD5@@AAEXPAEPAII@Z 0040c7e0 f   HashMD5.obj
 0001:0000b890       ??_GHASHMD5@@UAEPAXI@Z     0040c890 f i HashMD5.obj
 0001:0000b890       ??_EHASHMD5@@UAEPAXI@Z     0040c890 f i HashMD5.obj
 0001:0000b8d0       ?F@HASHMD5@@AAEIIII@Z      0040c8d0 f i HashMD5.obj
 0001:0000b8f0       ?FF@HASHMD5@@AAEXAAIIIIIII@Z 0040c8f0 f i HashMD5.obj
 0001:0000b940       ?G@HASHMD5@@AAEIIII@Z      0040c940 f i HashMD5.obj
 0001:0000b960       ?GG@HASHMD5@@AAEXAAIIIIIII@Z 0040c960 f i HashMD5.obj
 0001:0000b9b0       ?H@HASHMD5@@AAEIIII@Z      0040c9b0 f i HashMD5.obj
 0001:0000b9d0       ?HH@HASHMD5@@AAEXAAIIIIIII@Z 0040c9d0 f i HashMD5.obj
 0001:0000ba20       ?I@HASHMD5@@AAEIIII@Z      0040ca20 f i HashMD5.obj
 0001:0000ba40       ?II@HASHMD5@@AAEXAAIIIIIII@Z 0040ca40 f i HashMD5.obj
 0001:0000ba90       ?RotateLeft@HASHMD5@@AAEIIH@Z 0040ca90 f i HashMD5.obj
 0001:0000bac0       ??0HASHSHA1@@QAE@XZ        0040cac0 f   HashSHA1.obj
 0001:0000bb50       ??1HASHSHA1@@UAE@XZ        0040cb50 f   HashSHA1.obj
 0001:0000bba0       ?Do@HASHSHA1@@UAE_NPAEH@Z  0040cba0 f   HashSHA1.obj
 0001:0000bc20       ?GetDefaultSize@HASHSHA1@@UAEHXZ 0040cc20 f   HashSHA1.obj
 0001:0000bc30       ?Clean@HASHSHA1@@AAEXXZ    0040cc30 f   HashSHA1.obj
 0001:0000bc40       ?Reset@HASHSHA1@@AAEXXZ    0040cc40 f   HashSHA1.obj
 0001:0000bce0       ?Input@HASHSHA1@@AAEXPAEI@Z 0040cce0 f   HashSHA1.obj
 0001:0000be00       ?ProcessMessageBlock@HASHSHA1@@AAEXXZ 0040ce00 f   HashSHA1.obj
 0001:0000c450       ?PadMessage@HASHSHA1@@AAEXXZ 0040d450 f   HashSHA1.obj
 0001:0000c650       ?CircularShift@HASHSHA1@@AAEIHI@Z 0040d650 f   HashSHA1.obj
 0001:0000c680       ?Result@HASHSHA1@@AAE_NPAI@Z 0040d680 f   HashSHA1.obj
 0001:0000c700       ??4XSTRING@@QAEXPB_W@Z     0040d700 f i HashSHA1.obj
 0001:0000c720       ??_EHASHSHA1@@UAEPAXI@Z    0040d720 f i HashSHA1.obj
 0001:0000c720       ??_GHASHSHA1@@UAEPAXI@Z    0040d720 f i HashSHA1.obj
 0001:0000c760       ??0HASHSHA2@@QAE@W4HASHSHA2TYPE@@@Z 0040d760 f   HashSHA2.obj
 0001:0000c830       ??1HASHSHA2@@UAE@XZ        0040d830 f   HashSHA2.obj
 0001:0000c880       ?Do@HASHSHA2@@UAE_NPAEH@Z  0040d880 f   HashSHA2.obj
 0001:0000c9e0       ?GetDefaultSize@HASHSHA2@@UAEHXZ 0040d9e0 f   HashSHA2.obj
 0001:0000ca40       ?Clean@HASHSHA2@@AAEXXZ    0040da40 f   HashSHA2.obj
 0001:0000ca50       ?Sha2_256_Transf@HASHSHA2@@AAEXPAUHASHSHA2_256_CTX@@PAEI@Z 0040da50 f   HashSHA2.obj
 0001:0000cf50       ?Sha2_256@HASHSHA2@@AAEXPAEI0@Z 0040df50 f   HashSHA2.obj
 0001:0000cfc0       ?Sha2_256_Ini@HASHSHA2@@AAEXPAUHASHSHA2_256_CTX@@@Z 0040dfc0 f   HashSHA2.obj
 0001:0000d020       ?Sha2_256_Update@HASHSHA2@@AAEXPAUHASHSHA2_256_CTX@@PAEI@Z 0040e020 f   HashSHA2.obj
 0001:0000d130       ?Sha2_256_End@HASHSHA2@@AAEXPAUHASHSHA2_256_CTX@@PAE@Z 0040e130 f   HashSHA2.obj
 0001:0000d290       ?Sha2_512_Transf@HASHSHA2@@AAEXPAUHASHSHA2_512_CTX@@PAEI@Z 0040e290 f   HashSHA2.obj
 0001:0000dac0       ?Sha2_512@HASHSHA2@@AAEXPAEI0@Z 0040eac0 f   HashSHA2.obj
 0001:0000db30       ?Sha2_512_Ini@HASHSHA2@@AAEXPAUHASHSHA2_512_CTX@@@Z 0040eb30 f   HashSHA2.obj
 0001:0000dba0       ?Sha2_512_Update@HASHSHA2@@AAEXPAUHASHSHA2_512_CTX@@PAEI@Z 0040eba0 f   HashSHA2.obj
 0001:0000dcb0       ?Sha2_512_End@HASHSHA2@@AAEXPAUHASHSHA2_512_CTX@@PAE@Z 0040ecb0 f   HashSHA2.obj
 0001:0000dec0       ?Sha2_384@HASHSHA2@@AAEXPAEI0@Z 0040eec0 f   HashSHA2.obj
 0001:0000df30       ?Sha2_384_Ini@HASHSHA2@@AAEXPAUHASHSHA2_512_CTX@@@Z 0040ef30 f   HashSHA2.obj
 0001:0000dfa0       ?Sha2_384_Update@HASHSHA2@@AAEXPAUHASHSHA2_512_CTX@@PAEI@Z 0040efa0 f   HashSHA2.obj
 0001:0000e0b0       ?Sha2_384_End@HASHSHA2@@AAEXPAUHASHSHA2_512_CTX@@PAE@Z 0040f0b0 f   HashSHA2.obj
 0001:0000e2c0       ?Sha2_224@HASHSHA2@@AAEXPAEI0@Z 0040f2c0 f   HashSHA2.obj
 0001:0000e330       ?Sha2_224_Ini@HASHSHA2@@AAEXPAUHASHSHA2_256_CTX@@@Z 0040f330 f   HashSHA2.obj
 0001:0000e390       ?Sha2_224_Update@HASHSHA2@@AAEXPAUHASHSHA2_256_CTX@@PAEI@Z 0040f390 f   HashSHA2.obj
 0001:0000e4a0       ?Sha2_224_End@HASHSHA2@@AAEXPAUHASHSHA2_256_CTX@@PAE@Z 0040f4a0 f   HashSHA2.obj
 0001:0000e600       ??_GHASHSHA2@@UAEPAXI@Z    0040f600 f i HashSHA2.obj
 0001:0000e600       ??_EHASHSHA2@@UAEPAXI@Z    0040f600 f i HashSHA2.obj
 0001:0000e630       ??0HASHWHIRLPOOL@@QAE@XZ   0040f630 f   HashWhirlpool.obj
 0001:0000e690       ??1HASHWHIRLPOOL@@UAE@XZ   0040f690 f   HashWhirlpool.obj
 0001:0000e6e0       ?Do@HASHWHIRLPOOL@@UAE_NPAEH@Z 0040f6e0 f   HashWhirlpool.obj
 0001:0000e780       ?GetDefaultSize@HASHWHIRLPOOL@@UAEHXZ 0040f780 f   HashWhirlpool.obj
 0001:0000e790       ?Clean@HASHWHIRLPOOL@@AAEXXZ 0040f790 f   HashWhirlpool.obj
 0001:0000e7a0       ?ProcessBuffer@HASHWHIRLPOOL@@AAEXPAUWHIRLPOOL@@@Z 0040f7a0 f   HashWhirlpool.obj
 0001:00010810       ?Ini@HASHWHIRLPOOL@@AAEXPAUWHIRLPOOL@@@Z 00411810 f   HashWhirlpool.obj
 0001:00010890       ?Add@HASHWHIRLPOOL@@AAEXPAEIPAUWHIRLPOOL@@@Z 00411890 f   HashWhirlpool.obj
 0001:00010b00       ?End@HASHWHIRLPOOL@@AAEXPAUWHIRLPOOL@@PAE@Z 00411b00 f   HashWhirlpool.obj
 0001:00010d30       ??_EHASHWHIRLPOOL@@UAEPAXI@Z 00411d30 f i HashWhirlpool.obj
 0001:00010d30       ??_GHASHWHIRLPOOL@@UAEPAXI@Z 00411d30 f i HashWhirlpool.obj
 0001:00010d70       ??0COMPRESSBASE@@QAE@XZ    00411d70 f   CompressBase.obj
 0001:00010da0       ??0COMPRESSBASE@@QAE@W4COMPRESSBASE_TYPE@@@Z 00411da0 f   CompressBase.obj
 0001:00010dd0       ??1COMPRESSBASE@@UAE@XZ    00411dd0 f   CompressBase.obj
 0001:00010e20       ?GetType@COMPRESSBASE@@QAE?AW4COMPRESSBASE_TYPE@@XZ 00411e20 f   CompressBase.obj
 0001:00010e40       ?SetType@COMPRESSBASE@@QAE?AW4COMPRESSBASE_TYPE@@W42@@Z 00411e40 f   CompressBase.obj
 0001:00010e60       ?Compress@COMPRESSBASE@@UAE_NPAEHPAVXBUFFER@@@Z 00411e60 f   CompressBase.obj
 0001:00010ec0       ?Decompress@COMPRESSBASE@@UAE_NPAEHPAVXBUFFER@@@Z 00411ec0 f   CompressBase.obj
 0001:00010f20       ?Compress@COMPRESSBASE@@UAE_NPAEHPAX@Z 00411f20 f   CompressBase.obj
 0001:00010f80       ?Decompress@COMPRESSBASE@@UAE_NPAEHPAX@Z 00411f80 f   CompressBase.obj
 0001:00010fe0       ?CompressResult@COMPRESSBASE@@UAE_N_NEPAX@Z 00411fe0 f   CompressBase.obj
 0001:00010ff0       ??_ECOMPRESSBASE@@UAEPAXI@Z 00411ff0 f i CompressBase.obj
 0001:00010ff0       ??_GCOMPRESSBASE@@UAEPAXI@Z 00411ff0 f i CompressBase.obj
 0001:00011020       ??0COMPRESS_GZ@@QAE@XZ     00412020 f   CompressGZ.obj
 0001:00011090       ??1COMPRESS_GZ@@UAE@XZ     00412090 f   CompressGZ.obj
 0001:000110e0       ?Compress@COMPRESS_GZ@@UAE_NPAEHPAVXBUFFER@@@Z 004120e0 f   CompressGZ.obj
 0001:00011160       ?Decompress@COMPRESS_GZ@@UAE_NPAEHPAVXBUFFER@@@Z 00412160 f   CompressGZ.obj
 0001:000111c0       ?Clean@COMPRESS_GZ@@AAEXXZ 004121c0 f   CompressGZ.obj
 0001:000111e0       ?ZCompress@COMPRESS_GZ@@AAEHPAEPAI0I@Z 004121e0 f   CompressGZ.obj
 0001:000112a0       ?ZDecompress@COMPRESS_GZ@@AAEHPAEPAI0I@Z 004122a0 f   CompressGZ.obj
 0001:000113b0       ??_ECOMPRESS_GZ@@UAEPAXI@Z 004123b0 f i CompressGZ.obj
 0001:000113b0       ??_GCOMPRESS_GZ@@UAEPAXI@Z 004123b0 f i CompressGZ.obj
 0001:000113e0       ??0COMPRESS_LZRW1KH@@QAE@XZ 004123e0 f   CompressLZRW1KH.obj
 0001:00011450       ??1COMPRESS_LZRW1KH@@UAE@XZ 00412450 f   CompressLZRW1KH.obj
 0001:00011470       ?Compress@COMPRESS_LZRW1KH@@UAE_NPAEHPAVXBUFFER@@@Z 00412470 f   CompressLZRW1KH.obj
 0001:000114b0       ?Decompress@COMPRESS_LZRW1KH@@UAE_NPAEHPAVXBUFFER@@@Z 004124b0 f   CompressLZRW1KH.obj
 0001:000114f0       ?Compress@COMPRESS_LZRW1KH@@UAE_NPAEHPAX@Z 004124f0 f   CompressLZRW1KH.obj
 0001:00011520       ?Decompress@COMPRESS_LZRW1KH@@UAE_NPAEHPAX@Z 00412520 f   CompressLZRW1KH.obj
 0001:00011550       ?GetMatch@COMPRESS_LZRW1KH@@AAEEPAEIIPAI11@Z 00412550 f   CompressLZRW1KH.obj
 0001:00011640       ?CompressionBuffer@COMPRESS_LZRW1KH@@AAEIPAE0I@Z 00412640 f   CompressLZRW1KH.obj
 0001:00011c90       ?DecompressionBuffer@COMPRESS_LZRW1KH@@AAEIPAE0I@Z 00412c90 f   CompressLZRW1KH.obj
 0001:00011fe0       ??_GCOMPRESS_LZRW1KH@@UAEPAXI@Z 00412fe0 f i CompressLZRW1KH.obj
 0001:00011fe0       ??_ECOMPRESS_LZRW1KH@@UAEPAXI@Z 00412fe0 f i CompressLZRW1KH.obj
 0001:00012020       ??0COMPRESS_LZW@@QAE@XZ    00413020 f   CompressLZW.obj
 0001:000120c0       ??1COMPRESS_LZW@@UAE@XZ    004130c0 f   CompressLZW.obj
 0001:000120e0       ?Compress@COMPRESS_LZW@@UAE_NPAEHPAVXBUFFER@@@Z 004130e0 f   CompressLZW.obj
 0001:00012160       ?Decompress@COMPRESS_LZW@@UAE_NPAEHPAVXBUFFER@@@Z 00413160 f   CompressLZW.obj
 0001:000121b0       ?LZW_Encode@COMPRESS_LZW@@QAEIPAEI0@Z 004131b0 f   CompressLZW.obj
 0001:000121f0       ?LZW_Decode@COMPRESS_LZW@@QAEXPAE0@Z 004131f0 f   CompressLZW.obj
 0001:00012220       ?LZW_GIF_Encode@COMPRESS_LZW@@QAEIPAE0IIG@Z 00413220 f   CompressLZW.obj
 0001:00012450       ?LZW_GIF_Decode@COMPRESS_LZW@@QAEXPAE0II_N@Z 00413450 f   CompressLZW.obj
 0001:00012640       ?Decode_InitStringTable@COMPRESS_LZW@@AAEXXZ 00413640 f   CompressLZW.obj
 0001:000126c0       ?Decode_GetNextCode@COMPRESS_LZW@@AAEGXZ 004136c0 f   CompressLZW.obj
 0001:00012790       ?Decode_IsInTable@COMPRESS_LZW@@AAE_NG@Z 00413790 f   CompressLZW.obj
 0001:000127d0       ?Decode_AddStringToTable@COMPRESS_LZW@@AAEXGG@Z 004137d0 f   CompressLZW.obj
 0001:000128b0       ?Decode_GetFirstChar@COMPRESS_LZW@@AAEEG@Z 004138b0 f   CompressLZW.obj
 0001:00012900       ?Decode_WriteString_to8@COMPRESS_LZW@@AAEXG@Z 00413900 f   CompressLZW.obj
 0001:000129a0       ?Decode_SwitchToFollowLine@COMPRESS_LZW@@AAEXXZ 004139a0 f   CompressLZW.obj
 0001:00012a60       ?Encode_InitStringTable@COMPRESS_LZW@@AAEXXZ 00413a60 f   CompressLZW.obj
 0001:00012ab0       ?Encode_GetNextPixel@COMPRESS_LZW@@AAEEXZ 00413ab0 f   CompressLZW.obj
 0001:00012bd0       ?Encode_IsInTable@COMPRESS_LZW@@AAE_NGG@Z 00413bd0 f   CompressLZW.obj
 0001:00012c10       ?Encode_AddStringToTable@COMPRESS_LZW@@AAEXGG@Z 00413c10 f   CompressLZW.obj
 0001:00012ce0       ?Encode_WriteIndex@COMPRESS_LZW@@AAEXI@Z 00413ce0 f   CompressLZW.obj
 0001:00012d50       ??_GCOMPRESS_LZW@@UAEPAXI@Z 00413d50 f i CompressLZW.obj
 0001:00012d50       ??_ECOMPRESS_LZW@@UAEPAXI@Z 00413d50 f i CompressLZW.obj
 0001:00012d80       ??0COMPRESSMANAGER@@QAE@XZ 00413d80 f   CompressManager.obj
 0001:00012da0       ??1COMPRESSMANAGER@@UAE@XZ 00413da0 f   CompressManager.obj
 0001:00012df0       ?Create@COMPRESSMANAGER@@QAEPAVCOMPRESSBASE@@W4COMPRESSBASE_TYPE@@@Z 00413df0 f   CompressManager.obj
 0001:00012fd0       ?Clean@COMPRESSMANAGER@@AAEXXZ 00413fd0 f   CompressManager.obj
 0001:00012ff0       ??_GCOMPRESSMANAGER@@UAEPAXI@Z 00413ff0 f i CompressManager.obj
 0001:00012ff0       ??_ECOMPRESSMANAGER@@UAEPAXI@Z 00413ff0 f i CompressManager.obj
 0001:00013020       ??0COMPRESS_ZIP@@QAE@XZ    00414020 f   CompressZIP.obj
 0001:00013090       ??1COMPRESS_ZIP@@UAE@XZ    00414090 f   CompressZIP.obj
 0001:000130e0       ?Compress@COMPRESS_ZIP@@UAE_NPAEHPAVXBUFFER@@@Z 004140e0 f   CompressZIP.obj
 0001:00013160       ?Decompress@COMPRESS_ZIP@@UAE_NPAEHPAVXBUFFER@@@Z 00414160 f   CompressZIP.obj
 0001:000131c0       ?Clean@COMPRESS_ZIP@@AAEXXZ 004141c0 f   CompressZIP.obj
 0001:000131e0       ?ZCompress@COMPRESS_ZIP@@AAEHPAEPAI0I@Z 004141e0 f   CompressZIP.obj
 0001:000132e0       ?ZDecompress@COMPRESS_ZIP@@AAEHPAEPAI0I@Z 004142e0 f   CompressZIP.obj
 0001:00013410       ??_GCOMPRESS_ZIP@@UAEPAXI@Z 00414410 f i CompressZIP.obj
 0001:00013410       ??_ECOMPRESS_ZIP@@UAEPAXI@Z 00414410 f i CompressZIP.obj
 0001:00013440       ??0DIOIP@@QAE@XZ           00414440 f   DIOIP.obj
 0001:00013460       ??1DIOIP@@UAE@XZ           00414460 f   DIOIP.obj
 0001:000134b0       ?Get@DIOIP@@QAEPAEXZ       004144b0 f   DIOIP.obj
 0001:000134d0       ?GetXString@DIOIP@@QAE_NAAVXSTRING@@@Z 004144d0 f   DIOIP.obj
 0001:00013570       ?GetDIOURL@DIOIP@@QAE_NPAVDIOURL@@@Z 00414570 f   DIOIP.obj
 0001:00013610       ?IsEmpty@DIOIP@@QAE_NXZ    00414610 f   DIOIP.obj
 0001:00013670       ?IsLocal@DIOIP@@QAE_NXZ    00414670 f   DIOIP.obj
 0001:000137a0       ?Set@DIOIP@@QAE_NPAE@Z     004147a0 f   DIOIP.obj
 0001:000137e0       ?Set@DIOIP@@QAE_NEEEE@Z    004147e0 f   DIOIP.obj
 0001:00013840       ?Set@DIOIP@@QAE_NPA_W@Z    00414840 f   DIOIP.obj
 0001:000138c0       ?Set@DIOIP@@QAE_NAAVXSTRING@@@Z 004148c0 f   DIOIP.obj
 0001:00013a20       ?Set@DIOIP@@QAE_NPAD@Z     00414a20 f   DIOIP.obj
 0001:00013aa0       ?Compare@DIOIP@@QAE_NAAV1@@Z 00414aa0 f   DIOIP.obj
 0001:00013af0       ?Clean@DIOIP@@AAEXXZ       00414af0 f   DIOIP.obj
 0001:00013b10       ??4XSTRING@@QAEXPBD@Z      00414b10 f i DIOIP.obj
 0001:00013b30       ??_EDIOIP@@UAEPAXI@Z       00414b30 f i DIOIP.obj
 0001:00013b30       ??_GDIOIP@@UAEPAXI@Z       00414b30 f i DIOIP.obj
 0001:00013b60       ??0DIOMAC@@QAE@XZ          00414b60 f   DIOMAC.obj
 0001:00013b80       ??1DIOMAC@@UAE@XZ          00414b80 f   DIOMAC.obj
 0001:00013bd0       ?Get@DIOMAC@@QAEPAEXZ      00414bd0 f   DIOMAC.obj
 0001:00013bf0       ?GetManufactured@DIOMAC@@QAEIXZ 00414bf0 f   DIOMAC.obj
 0001:00013c60       ?GetXString@DIOMAC@@QAE_NAAVXSTRING@@@Z 00414c60 f   DIOMAC.obj
 0001:00013cf0       ?GetLongNumber@DIOMAC@@QAE_KXZ 00414cf0 f   DIOMAC.obj
 0001:00013d70       ?Set@DIOMAC@@QAE_NPAE@Z    00414d70 f   DIOMAC.obj
 0001:00013db0       ?Set@DIOMAC@@QAE_NAAVXSTRING@@@Z 00414db0 f   DIOMAC.obj
 0001:00013e30       ?Set@DIOMAC@@QAE_NPAD@Z    00414e30 f   DIOMAC.obj
 0001:00013eb0       ?Clean@DIOMAC@@AAEXXZ      00414eb0 f   DIOMAC.obj
 0001:00013ed0       ??_EDIOMAC@@UAEPAXI@Z      00414ed0 f i DIOMAC.obj
 0001:00013ed0       ??_GDIOMAC@@UAEPAXI@Z      00414ed0 f i DIOMAC.obj
 0001:00013f00       ??0DIOPING@@QAE@XZ         00414f00 f   DIOPing.obj
 0001:00014110       ??1DIOPING@@UAE@XZ         00415110 f   DIOPing.obj
 0001:00014200       ?Set@DIOPING@@QAE_NPA_W0@Z 00415200 f   DIOPing.obj
 0001:00014240       ?Set@DIOPING@@QAE_NAAVDIOURL@@PA_W@Z 00415240 f   DIOPing.obj
 0001:00014270       ?Do@DIOPING@@UAE_NII_N@Z   00415270 f   DIOPing.obj
 0001:00014ae0       ?GetReplys@DIOPING@@QAEPAV?$XVECTOR@PAVDIOPINGREPLY@@@@XZ 00415ae0 f   DIOPing.obj
 0001:00014b00       ?WasConnected@DIOPING@@QAE_NXZ 00415b00 f   DIOPing.obj
 0001:00014b60       ?CalculateMeanTime@DIOPING@@QAEHXZ 00415b60 f   DIOPing.obj
 0001:00014c20       ?DeleteAllReplys@DIOPING@@QAE_NXZ 00415c20 f   DIOPing.obj
 0001:00014ca0       ?AddReply@DIOPING@@IAE_NGPA_WIIE@Z 00415ca0 f   DIOPing.obj
 0001:00014dc0       ?CalculeCheckSum@DIOPING@@IAEGPAGH@Z 00415dc0 f   DIOPing.obj
 0001:00014e60       ??0?$XVECTOR@PAVDIOPINGREPLY@@@@QAE@XZ 00415e60 f i DIOPing.obj
 0001:00014e80       ??0DIOPINGREPLY@@QAE@XZ    00415e80 f i DIOPing.obj
 0001:00014ef0       ??0DIOPINGXEVENT@@QAE@PAVXSUBJECT@@II@Z 00415ef0 f i DIOPing.obj
 0001:00014f60       ??0XEVENT@@QAE@PAVXSUBJECT@@II@Z 00415f60 f i DIOPing.obj
 0001:00014fa0       ??0XSUBJECT@@QAE@XZ        00415fa0 f i DIOPing.obj
 0001:00014fc0       ??1?$XVECTOR@PAVDIOPINGREPLY@@@@UAE@XZ 00415fc0 f i DIOPing.obj
 0001:00015010       ??1DIOPINGREPLY@@UAE@XZ    00416010 f i DIOPing.obj
 0001:00015070       ??1DIOPINGXEVENT@@UAE@XZ   00416070 f i DIOPing.obj
 0001:000150c0       ??1XEVENT@@UAE@XZ          004160c0 f i DIOPing.obj
 0001:00015110       ??1XSUBJECT@@UAE@XZ        00416110 f i DIOPing.obj
 0001:00015160       ??_G?$XVECTOR@PAVDIOPINGREPLY@@@@UAEPAXI@Z 00416160 f i DIOPing.obj
 0001:00015160       ??_E?$XVECTOR@PAVDIOPINGREPLY@@@@UAEPAXI@Z 00416160 f i DIOPing.obj
 0001:00015190       ??_GDIOPING@@UAEPAXI@Z     00416190 f i DIOPing.obj
 0001:00015190       ??_EDIOPING@@UAEPAXI@Z     00416190 f i DIOPing.obj
 0001:000151c0       ??_EDIOPINGREPLY@@UAEPAXI@Z 004161c0 f i DIOPing.obj
 0001:000151c0       ??_GDIOPINGREPLY@@UAEPAXI@Z 004161c0 f i DIOPing.obj
 0001:000151f0       ??_EDIOPINGXEVENT@@UAEPAXI@Z 004161f0 f i DIOPing.obj
 0001:000151f0       ??_GDIOPINGXEVENT@@UAEPAXI@Z 004161f0 f i DIOPing.obj
 0001:00015220       ??_EXEVENT@@UAEPAXI@Z      00416220 f i DIOPing.obj
 0001:00015220       ??_GXEVENT@@UAEPAXI@Z      00416220 f i DIOPing.obj
 0001:00015250       ??_GXSUBJECT@@UAEPAXI@Z    00416250 f i DIOPing.obj
 0001:00015250       ??_EXSUBJECT@@UAEPAXI@Z    00416250 f i DIOPing.obj
 0001:00015280       ?Add@?$XVECTOR@PAVDIOPINGREPLY@@@@QAE_NPAVDIOPINGREPLY@@@Z 00416280 f i DIOPing.obj
 0001:00015310       ?Clean@?$XVECTOR@PAVDIOPINGREPLY@@@@AAEXXZ 00416310 f i DIOPing.obj
 0001:00015350       ?Clean@DIOPING@@AAEXXZ     00416350 f i DIOPing.obj
 0001:000153b0       ?Clean@DIOPINGREPLY@@AAEXXZ 004163b0 f i DIOPing.obj
 0001:000153f0       ?Clean@DIOPINGXEVENT@@AAEXXZ 004163f0 f i DIOPing.obj
 0001:00015410       ?Clean@XEVENT@@IAEXXZ      00416410 f i DIOPing.obj
 0001:00015440       ?Clean@XSUBJECT@@AAEXXZ    00416440 f i DIOPing.obj
 0001:00015450       ?DeRegisterEvent@XSUBJECT@@QAE_NI@Z 00416450 f i DIOPing.obj
 0001:00015480       ?DeleteAll@?$XVECTOR@PAVDIOPINGREPLY@@@@QAE_NXZ 00416480 f i DIOPing.obj
 0001:000154d0       ?DeleteContents@?$XVECTOR@PAVDIOPINGREPLY@@@@QAE_NXZ 004164d0 f i DIOPing.obj
 0001:00015570       ?Get@?$XVECTOR@PAVDIOPINGREPLY@@@@QAEPAVDIOPINGREPLY@@H@Z 00416570 f i DIOPing.obj
 0001:000155b0       ?GetFromIP@DIOPINGREPLY@@QAEPAVXSTRING@@XZ 004165b0 f i DIOPing.obj
 0001:000155d0       ?GetInXBuffer@DIOSTREAM@@QAEPAVXBUFFER@@XZ 004165d0 f i DIOPing.obj
 0001:000155f0       ?GetInstance@XPUBLISHER@@SAAAV1@XZ 004165f0 f i DIOPing.obj
 0001:00015680       ?GetOutXBuffer@DIOSTREAM@@QAEPAVXBUFFER@@XZ 00416680 f i DIOPing.obj
 0001:000156a0       ?GetSize@?$XVECTOR@PAVDIOPINGREPLY@@@@QAEIXZ 004166a0 f i DIOPing.obj
 0001:000156c0       ?GetTimeElapsed@DIOPINGREPLY@@QAEIXZ 004166c0 f i DIOPing.obj
 0001:000156e0       ?IsEmpty@?$XVECTOR@PAVDIOPINGREPLY@@@@QAE_NXZ 004166e0 f i DIOPing.obj
 0001:00015710       ?PostEvent@XSUBJECT@@QAE_NPAVXEVENT@@@Z 00416710 f i DIOPing.obj
 0001:00015740       ?RegisterEvent@XSUBJECT@@QAE_NI@Z 00416740 f i DIOPing.obj
 0001:00015770       ?ResizeAdd@?$XVECTOR@PAVDIOPINGREPLY@@@@AAE_NXZ 00416770 f i DIOPing.obj
 0001:00015830       ?SetMode@DIOSTREAMCONFIG@@QAEXW4DIOSTREAMMODE@@@Z 00416830 f i DIOPing.obj
 0001:00015850       ?SetPingReply@DIOPINGXEVENT@@QAEXPAVDIOPINGREPLY@@@Z 00416850 f i DIOPing.obj
 0001:00015870       ?SetSequence@DIOPINGREPLY@@QAEXI@Z 00416870 f i DIOPing.obj
 0001:00015890       ?SetSizeRequest@DIOPINGREPLY@@QAEXI@Z 00416890 f i DIOPing.obj
 0001:000158b0       ?SetTTL@DIOPINGREPLY@@QAEXE@Z 004168b0 f i DIOPing.obj
 0001:000158d0       ?SetTimeElapsed@DIOPINGREPLY@@QAEXI@Z 004168d0 f i DIOPing.obj
 0001:000158f0       ??0DIOSTREAM@@QAE@XZ       004168f0 f   DIOStream.obj
 0001:00015a60       ??1DIOSTREAM@@UAE@XZ       00416a60 f   DIOStream.obj
 0001:00015c50       ?IsConnected@DIOSTREAM@@QAE_NXZ 00416c50 f   DIOStream.obj
 0001:00015c80       ?IsDisconnected@DIOSTREAM@@QAE_NXZ 00416c80 f   DIOStream.obj
 0001:00015cb0       ?WaitToConnected@DIOSTREAM@@QAE_NH@Z 00416cb0 f   DIOStream.obj
 0001:00015d30       ?WaitToDisconnected@DIOSTREAM@@QAE_NH@Z 00416d30 f   DIOStream.obj
 0001:00015da0       ?Read@DIOSTREAM@@UAEIPAEI@Z 00416da0 f   DIOStream.obj
 0001:00015e00       ?Write@DIOSTREAM@@UAEIPAEI@Z 00416e00 f   DIOStream.obj
 0001:00015e60       ?Read@DIOSTREAM@@QAEIAAVXBUFFER@@@Z 00416e60 f   DIOStream.obj
 0001:00015ee0       ?Write@DIOSTREAM@@QAEIAAVXBUFFER@@@Z 00416ee0 f   DIOStream.obj
 0001:00015f10       ?WaitToFilledReadingBuffer@DIOSTREAM@@UAE_NHH@Z 00416f10 f   DIOStream.obj
 0001:00015fe0       ?ReadStr@DIOSTREAM@@QAE_NPAD@Z 00416fe0 f   DIOStream.obj
 0001:000160a0       ?ReadStr@DIOSTREAM@@QAE_NAAVXSTRING@@@Z 004170a0 f   DIOStream.obj
 0001:00016280       ?ReadStr@DIOSTREAM@@QAE_NAAVXSTRING@@H@Z 00417280 f   DIOStream.obj
 0001:00016320       ?WriteStr@DIOSTREAM@@QAE_NPBD@Z 00417320 f   DIOStream.obj
 0001:00016360       ?WriteStr@DIOSTREAM@@QAE_NPA_W@Z 00417360 f   DIOStream.obj
 0001:00016400       ?WriteStr@DIOSTREAM@@QAE_NAAVXSTRING@@@Z 00417400 f   DIOStream.obj
 0001:00016450       ?ResetXBuffers@DIOSTREAM@@QAE_NXZ 00417450 f   DIOStream.obj
 0001:00016490       ?ResetInXBuffer@DIOSTREAM@@QAE_NXZ 00417490 f   DIOStream.obj
 0001:000164c0       ?ResetOutXBuffer@DIOSTREAM@@QAE_NXZ 004174c0 f   DIOStream.obj
 0001:000164f0       ?IsFlushOutXBuffer@DIOSTREAM@@QAE_NXZ 004174f0 f   DIOStream.obj
 0001:00016520       ?IsFlushXBuffers@DIOSTREAM@@QAE_NXZ 00417520 f   DIOStream.obj
 0001:00016570       ?WaitToFlushOutXBuffer@DIOSTREAM@@QAE_NH@Z 00417570 f   DIOStream.obj
 0001:00016620       ?WaitToFlushXBuffers@DIOSTREAM@@QAE_NH@Z 00417620 f   DIOStream.obj
 0001:000166d0       ?ResetConnexionStatistics@DIOSTREAM@@QAE_NXZ 004176d0 f   DIOStream.obj
 0001:00016720       ??_GDIOSTREAM@@UAEPAXI@Z   00417720 f i DIOStream.obj
 0001:00016720       ??_EDIOSTREAM@@UAEPAXI@Z   00417720 f i DIOStream.obj
 0001:00016750       ?Clean@DIOSTREAM@@AAEXXZ   00417750 f i DIOStream.obj
 0001:000167e0       ?Disconnect@DIOSTREAM@@UAE_NXZ 004177e0 f i DIOStream.obj
 0001:000167f0       ?GetConnectStatus@DIOSTREAM@@UAE?AW4DIOSTREAMSTATUS@@XZ 004177f0 f i DIOStream.obj
 0001:00016810       ?GetNBytesRead@DIOSTREAM@@UAEIXZ 00417810 f i DIOStream.obj
 0001:00016830       ?GetNBytesWrite@DIOSTREAM@@UAEIXZ 00417830 f i DIOStream.obj
 0001:00016850       ?GetXTimerConnexion@DIOSTREAM@@UAEPAVXTIMER@@XZ 00417850 f i DIOStream.obj
 0001:00016870       ?GetXTimerNotActivity@DIOSTREAM@@UAEPAVXTIMER@@XZ 00417870 f i DIOStream.obj
 0001:00016890       ?IsEmpty@XBUFFER@@QAE_NXZ  00417890 f i DIOStream.obj
 0001:000168c0       ?Wait@DIOSTREAM@@QAEXH@Z   004178c0 f i DIOStream.obj
 0001:000168f0       ??0DIOSTREAMBLUETOOTH@@QAE@XZ 004178f0 f   DIOStreamBluetooth.obj
 0001:00016950       ??1DIOSTREAMBLUETOOTH@@UAE@XZ 00417950 f   DIOStreamBluetooth.obj
 0001:000169a0       ?GetConfig@DIOSTREAMBLUETOOTH@@UAEPAVDIOSTREAMCONFIG@@XZ 004179a0 f   DIOStreamBluetooth.obj
 0001:000169c0       ?SetConfig@DIOSTREAMBLUETOOTH@@UAE_NPAVDIOSTREAMCONFIG@@@Z 004179c0 f   DIOStreamBluetooth.obj
 0001:000169f0       ?IsRefusedConnexion@DIOSTREAMBLUETOOTH@@QAE_NXZ 004179f0 f   DIOStreamBluetooth.obj
 0001:00016a10       ?SetIsRefusedConnexion@DIOSTREAMBLUETOOTH@@QAE_N_N@Z 00417a10 f   DIOStreamBluetooth.obj
 0001:00016a30       ?Clean@DIOSTREAMBLUETOOTH@@AAEXXZ 00417a30 f   DIOStreamBluetooth.obj
 0001:00016a50       ??_GDIOSTREAMBLUETOOTH@@UAEPAXI@Z 00417a50 f i DIOStreamBluetooth.obj
 0001:00016a50       ??_EDIOSTREAMBLUETOOTH@@UAEPAXI@Z 00417a50 f i DIOStreamBluetooth.obj
 0001:00016a80       ??0DIOSTREAMBLUETOOTHCONFIG@@QAE@XZ 00417a80 f   DIOStreamBluetoothConfig.obj
 0001:00016b20       ??1DIOSTREAMBLUETOOTHCONFIG@@UAE@XZ 00417b20 f   DIOStreamBluetoothConfig.obj
 0001:00016b90       ?GetDeviceSelect@DIOSTREAMBLUETOOTHCONFIG@@QAEHXZ 00417b90 f   DIOStreamBluetoothConfig.obj
 0001:00016bb0       ?SetDeviceSelect@DIOSTREAMBLUETOOTHCONFIG@@QAE_NH@Z 00417bb0 f   DIOStreamBluetoothConfig.obj
 0001:00016bd0       ?GetLocalMAC@DIOSTREAMBLUETOOTHCONFIG@@QAEPAVDIOMAC@@XZ 00417bd0 f   DIOStreamBluetoothConfig.obj
 0001:00016bf0       ?GetRemoteMAC@DIOSTREAMBLUETOOTHCONFIG@@QAEPAVDIOMAC@@XZ 00417bf0 f   DIOStreamBluetoothConfig.obj
 0001:00016c10       ?GetRemoteChannel@DIOSTREAMBLUETOOTHCONFIG@@QAEHXZ 00417c10 f   DIOStreamBluetoothConfig.obj
 0001:00016c30       ?SetRemoteChannel@DIOSTREAMBLUETOOTHCONFIG@@QAE_NH@Z 00417c30 f   DIOStreamBluetoothConfig.obj
 0001:00016c50       ?GetPIN@DIOSTREAMBLUETOOTHCONFIG@@QAEPAVXSTRING@@XZ 00417c50 f   DIOStreamBluetoothConfig.obj
 0001:00016c70       ?GetServerPropertys@DIOSTREAMBLUETOOTHCONFIG@@QAEPAXH@Z 00417c70 f   DIOStreamBluetoothConfig.obj
 0001:00016ca0       ?Clean@DIOSTREAMBLUETOOTHCONFIG@@AAEXXZ 00417ca0 f   DIOStreamBluetoothConfig.obj
 0001:00016d10       ??_EDIOSTREAMBLUETOOTHCONFIG@@UAEPAXI@Z 00417d10 f i DIOStreamBluetoothConfig.obj
 0001:00016d10       ??_GDIOSTREAMBLUETOOTHCONFIG@@UAEPAXI@Z 00417d10 f i DIOStreamBluetoothConfig.obj
 0001:00016d40       ??0DIOSTREAMBLUETOOTHLOCALENUMDEVICES@@QAE@XZ 00417d40 f   DIOStreamBluetoothLocalEnumDevices.obj
 0001:00016da0       ??1DIOSTREAMBLUETOOTHLOCALENUMDEVICES@@UAE@XZ 00417da0 f   DIOStreamBluetoothLocalEnumDevices.obj
 0001:00016df0       ?Clean@DIOSTREAMBLUETOOTHLOCALENUMDEVICES@@AAEXXZ 00417df0 f   DIOStreamBluetoothLocalEnumDevices.obj
 0001:00016e10       ??_EDIOSTREAMBLUETOOTHLOCALENUMDEVICES@@UAEPAXI@Z 00417e10 f i DIOStreamBluetoothLocalEnumDevices.obj
 0001:00016e10       ??_GDIOSTREAMBLUETOOTHLOCALENUMDEVICES@@UAEPAXI@Z 00417e10 f i DIOStreamBluetoothLocalEnumDevices.obj
 0001:00016e40       ?IsDeviceAvailable@DIOSTREAMBLUETOOTHLOCALENUMDEVICES@@UAE_NPA_W@Z 00417e40 f i DIOStreamBluetoothLocalEnumDevices.obj
 0001:00016e50       ?IsSearching@DIOSTREAMBLUETOOTHLOCALENUMDEVICES@@UAE_NXZ 00417e50 f i DIOStreamBluetoothLocalEnumDevices.obj
 0001:00016e70       ?Search@DIOSTREAMBLUETOOTHLOCALENUMDEVICES@@UAE_NXZ 00417e70 f i DIOStreamBluetoothLocalEnumDevices.obj
 0001:00016e80       ?StopSearch@DIOSTREAMBLUETOOTHLOCALENUMDEVICES@@UAE_N_N@Z 00417e80 f i DIOStreamBluetoothLocalEnumDevices.obj
 0001:00016e90       ??0DIOSTREAMBLUETOOTHREMOTEENUMDEVICES@@QAE@XZ 00417e90 f   DIOStreamBluetoothRemoteEnumDevices.obj
 0001:00016ef0       ??1DIOSTREAMBLUETOOTHREMOTEENUMDEVICES@@UAE@XZ 00417ef0 f   DIOStreamBluetoothRemoteEnumDevices.obj
 0001:00016f40       ?Clean@DIOSTREAMBLUETOOTHREMOTEENUMDEVICES@@AAEXXZ 00417f40 f   DIOStreamBluetoothRemoteEnumDevices.obj
 0001:00016f60       ??_GDIOSTREAMBLUETOOTHREMOTEENUMDEVICES@@UAEPAXI@Z 00417f60 f i DIOStreamBluetoothRemoteEnumDevices.obj
 0001:00016f60       ??_EDIOSTREAMBLUETOOTHREMOTEENUMDEVICES@@UAEPAXI@Z 00417f60 f i DIOStreamBluetoothRemoteEnumDevices.obj
 0001:00016f90       ?IsDeviceAvailable@DIOSTREAMBLUETOOTHREMOTEENUMDEVICES@@UAE_NPA_W@Z 00417f90 f i DIOStreamBluetoothRemoteEnumDevices.obj
 0001:00016fa0       ?IsSearching@DIOSTREAMBLUETOOTHREMOTEENUMDEVICES@@UAE_NXZ 00417fa0 f i DIOStreamBluetoothRemoteEnumDevices.obj
 0001:00016fb0       ?Search@DIOSTREAMBLUETOOTHREMOTEENUMDEVICES@@UAE_NXZ 00417fb0 f i DIOStreamBluetoothRemoteEnumDevices.obj
 0001:00016fc0       ?StopSearch@DIOSTREAMBLUETOOTHREMOTEENUMDEVICES@@UAE_N_N@Z 00417fc0 f i DIOStreamBluetoothRemoteEnumDevices.obj
 0001:00016fd0       ??0DIOSTREAMCIPHER@@QAE@PAVDIOSTREAMCONFIG@@PAVCIPHER@@@Z 00417fd0 f   DIOStreamCipher.obj
 0001:00017150       ??1DIOSTREAMCIPHER@@UAE@XZ 00418150 f   DIOStreamCipher.obj
 0001:00017280       ?Read@DIOSTREAMCIPHER@@UAEIPAEI@Z 00418280 f   DIOStreamCipher.obj
 0001:000172e0       ?Write@DIOSTREAMCIPHER@@UAEIPAEI@Z 004182e0 f   DIOStreamCipher.obj
 0001:00017340       ?ThreadRunFunction@DIOSTREAMCIPHER@@CAXPAX@Z 00418340 f   DIOStreamCipher.obj
 0001:00017730       ??_GDIOSTREAMCIPHER@@UAEPAXI@Z 00418730 f i DIOStreamCipher.obj
 0001:00017730       ??_EDIOSTREAMCIPHER@@UAEPAXI@Z 00418730 f i DIOStreamCipher.obj
 0001:00017760       ?Clean@DIOSTREAMCIPHER@@AAEXXZ 00418760 f i DIOStreamCipher.obj
 0001:000177c0       ?Close@DIOSTREAMCIPHER@@UAE_NXZ 004187c0 f i DIOStreamCipher.obj
 0001:000177f0       ?Disconnect@DIOSTREAMCIPHER@@UAE_NXZ 004187f0 f i DIOStreamCipher.obj
 0001:00017820       ?Empty@XBUFFER@@QAE_NXZ    00418820 f i DIOStreamCipher.obj
 0001:00017840       ?GetConfig@DIOSTREAMCIPHER@@UAEPAVDIOSTREAMCONFIG@@XZ 00418840 f i DIOStreamCipher.obj
 0001:00017860       ?GetConnectStatus@DIOSTREAMCIPHER@@UAE?AW4DIOSTREAMSTATUS@@XZ 00418860 f i DIOStreamCipher.obj
 0001:00017890       ?GetType@CIPHER@@QAE?AW4CIPHERTYPE@@XZ 00418890 f i DIOStreamCipher.obj
 0001:000178b0       ?Open@DIOSTREAMCIPHER@@UAE_NXZ 004188b0 f i DIOStreamCipher.obj
 0001:000178e0       ?SetConfig@DIOSTREAMCIPHER@@UAE_NPAVDIOSTREAMCONFIG@@@Z 004188e0 f i DIOStreamCipher.obj
 0001:00017900       ??0DIOSTREAMCONFIG@@QAE@XZ 00418900 f   DIOStreamConfig.obj
 0001:00017960       ??1DIOSTREAMCONFIG@@UAE@XZ 00418960 f   DIOStreamConfig.obj
 0001:000179b0       ??_GDIOSTREAMCONFIG@@UAEPAXI@Z 004189b0 f i DIOStreamConfig.obj
 0001:000179b0       ??_EDIOSTREAMCONFIG@@UAEPAXI@Z 004189b0 f i DIOStreamConfig.obj
 0001:000179e0       ?Clean@DIOSTREAMCONFIG@@AAEXXZ 004189e0 f i DIOStreamConfig.obj
 0001:00017a00       ??0DIOSTREAMDEVICE@@QAE@XZ 00418a00 f   DIOStreamDevice.obj
 0001:00017a80       ??1DIOSTREAMDEVICE@@UAE@XZ 00418a80 f   DIOStreamDevice.obj
 0001:00017af0       ?GetIndex@DIOSTREAMDEVICE@@QAEHXZ 00418af0 f   DIOStreamDevice.obj
 0001:00017b10       ?SetIndex@DIOSTREAMDEVICE@@QAE_NH@Z 00418b10 f   DIOStreamDevice.obj
 0001:00017b30       ?GetType@DIOSTREAMDEVICE@@QAE?AW4DIOSTREAMDEVICE_TYPE@@XZ 00418b30 f   DIOStreamDevice.obj
 0001:00017b50       ?SetType@DIOSTREAMDEVICE@@QAE_NW4DIOSTREAMDEVICE_TYPE@@@Z 00418b50 f   DIOStreamDevice.obj
 0001:00017b70       ?GetName@DIOSTREAMDEVICE@@QAEPAVXSTRING@@XZ 00418b70 f   DIOStreamDevice.obj
 0001:00017b90       ?GetDescription@DIOSTREAMDEVICE@@QAEPAVXSTRING@@XZ 00418b90 f   DIOStreamDevice.obj
 0001:00017bb0       ?GetResource@DIOSTREAMDEVICE@@QAEPAVXSTRING@@XZ 00418bb0 f   DIOStreamDevice.obj
 0001:00017bd0       ?CopyFrom@DIOSTREAMDEVICE@@UAE_NAAV1@@Z 00418bd0 f   DIOStreamDevice.obj
 0001:00017c30       ?CopyTo@DIOSTREAMDEVICE@@UAE_NAAV1@@Z 00418c30 f   DIOStreamDevice.obj
 0001:00017c90       ?DebugPrintInfo@DIOSTREAMDEVICE@@UAE_NPAVXCONSOLE@@@Z 00418c90 f   DIOStreamDevice.obj
 0001:00017ea0       ?Clean@DIOSTREAMDEVICE@@AAEXXZ 00418ea0 f   DIOStreamDevice.obj
 0001:00017ec0       ??4XSTRING@@QAEXABV0@@Z    00418ec0 f i DIOStreamDevice.obj
 0001:00017ee0       ??_EDIOSTREAMDEVICE@@UAEPAXI@Z 00418ee0 f i DIOStreamDevice.obj
 0001:00017ee0       ??_GDIOSTREAMDEVICE@@UAEPAXI@Z 00418ee0 f i DIOStreamDevice.obj
 0001:00017f10       ??0DIOSTREAMDEVICEBLUETOOTH@@QAE@XZ 00418f10 f   DIOStreamDeviceBluetooth.obj
 0001:00017fa0       ??1DIOSTREAMDEVICEBLUETOOTH@@UAE@XZ 00418fa0 f   DIOStreamDeviceBluetooth.obj
 0001:00018020       ?GetMAC@DIOSTREAMDEVICEBLUETOOTH@@QAEPAVDIOMAC@@XZ 00419020 f   DIOStreamDeviceBluetooth.obj
 0001:00018040       ?GetServiceClass@DIOSTREAMDEVICEBLUETOOTH@@QAEPAVXUUID@@XZ 00419040 f   DIOStreamDeviceBluetooth.obj
 0001:00018060       ?IsVisible@DIOSTREAMDEVICEBLUETOOTH@@QAE_NXZ 00419060 f   DIOStreamDeviceBluetooth.obj
 0001:00018080       ?SetIsVisible@DIOSTREAMDEVICEBLUETOOTH@@QAE_N_N@Z 00419080 f   DIOStreamDeviceBluetooth.obj
 0001:000180a0       ?Service_Add@DIOSTREAMDEVICEBLUETOOTH@@QAE_NPAVDIOSTREAMDEVICEBLUETOOTHSDPSERVICE@@@Z 004190a0 f   DIOStreamDeviceBluetooth.obj
 0001:000180d0       ?Service_GetAll@DIOSTREAMDEVICEBLUETOOTH@@QAEPAV?$XVECTOR@PAVDIOSTREAMDEVICEBLUETOOTHSDPSERVICE@@@@XZ 004190d0 f   DIOStreamDeviceBluetooth.obj
 0001:000180f0       ?Service_DeleteAll@DIOSTREAMDEVICEBLUETOOTH@@QAE_NXZ 004190f0 f   DIOStreamDeviceBluetooth.obj
 0001:00018140       ?GetChannel@DIOSTREAMDEVICEBLUETOOTH@@QAEHG@Z 00419140 f   DIOStreamDeviceBluetooth.obj
 0001:00018200       ?GetChannelSerialPort@DIOSTREAMDEVICEBLUETOOTH@@QAEHXZ 00419200 f   DIOStreamDeviceBluetooth.obj
 0001:00018220       ?GetChannelObexPush@DIOSTREAMDEVICEBLUETOOTH@@QAEHXZ 00419220 f   DIOStreamDeviceBluetooth.obj
 0001:00018240       ?GetChannelDialUpNetworking@DIOSTREAMDEVICEBLUETOOTH@@QAEHXZ 00419240 f   DIOStreamDeviceBluetooth.obj
 0001:00018260       ?GetChannelHID@DIOSTREAMDEVICEBLUETOOTH@@QAEHXZ 00419260 f   DIOStreamDeviceBluetooth.obj
 0001:00018280       ?DebugPrintInfo@DIOSTREAMDEVICEBLUETOOTH@@UAE_NPAVXCONSOLE@@@Z 00419280 f   DIOStreamDeviceBluetooth.obj
 0001:00018610       ?Clean@DIOSTREAMDEVICEBLUETOOTH@@AAEXXZ 00419610 f   DIOStreamDeviceBluetooth.obj
 0001:00018630       ??0?$XVECTOR@PAVDIOSTREAMDEVICEBLUETOOTHSDPSERVICE@@@@QAE@XZ 00419630 f i DIOStreamDeviceBluetooth.obj
 0001:00018650       ??1?$XVECTOR@PAVDIOSTREAMDEVICEBLUETOOTHSDPSERVICE@@@@UAE@XZ 00419650 f i DIOStreamDeviceBluetooth.obj
 0001:000186a0       ??YXSTRING@@QAEXPBD@Z      004196a0 f i DIOStreamDeviceBluetooth.obj
 0001:000186c0       ??YXSTRING@@QAEXPB_W@Z     004196c0 f i DIOStreamDeviceBluetooth.obj
 0001:000186e0       ??_E?$XVECTOR@PAVDIOSTREAMDEVICEBLUETOOTHSDPSERVICE@@@@UAEPAXI@Z 004196e0 f i DIOStreamDeviceBluetooth.obj
 0001:000186e0       ??_G?$XVECTOR@PAVDIOSTREAMDEVICEBLUETOOTHSDPSERVICE@@@@UAEPAXI@Z 004196e0 f i DIOStreamDeviceBluetooth.obj
 0001:00018710       ??_GDIOSTREAMDEVICEBLUETOOTH@@UAEPAXI@Z 00419710 f i DIOStreamDeviceBluetooth.obj
 0001:00018710       ??_EDIOSTREAMDEVICEBLUETOOTH@@UAEPAXI@Z 00419710 f i DIOStreamDeviceBluetooth.obj
 0001:00018750       ?Add@?$XVECTOR@PAVDIOSTREAMDEVICEBLUETOOTHSDPSERVICE@@@@QAE_NPAVDIOSTREAMDEVICEBLUETOOTHSDPSERVICE@@@Z 00419750 f i DIOStreamDeviceBluetooth.obj
 0001:000187e0       ?Clean@?$XVECTOR@PAVDIOSTREAMDEVICEBLUETOOTHSDPSERVICE@@@@AAEXXZ 004197e0 f i DIOStreamDeviceBluetooth.obj
 0001:00018820       ?DeleteAll@?$XVECTOR@PAVDIOSTREAMDEVICEBLUETOOTHSDPSERVICE@@@@QAE_NXZ 00419820 f i DIOStreamDeviceBluetooth.obj
 0001:00018870       ?DeleteContents@?$XVECTOR@PAVDIOSTREAMDEVICEBLUETOOTHSDPSERVICE@@@@QAE_NXZ 00419870 f i DIOStreamDeviceBluetooth.obj
 0001:00018910       ?Get@?$XVECTOR@PAVDIOSTREAMDEVICEBLUETOOTHSDPSERVICE@@@@QAEPAVDIOSTREAMDEVICEBLUETOOTHSDPSERVICE@@H@Z 00419910 f i DIOStreamDeviceBluetooth.obj
 0001:00018950       ?GetChannel@DIOSTREAMDEVICEBLUETOOTHSDPSERVICEPROTOCOL@@QAEGXZ 00419950 f i DIOStreamDeviceBluetooth.obj
 0001:00018970       ?GetDescription@DIOSTREAMDEVICEBLUETOOTHSDPSERVICE@@QAEPAVXSTRING@@XZ 00419970 f i DIOStreamDeviceBluetooth.obj
 0001:00018990       ?GetID@DIOSTREAMDEVICEBLUETOOTHSDPSERVICE@@QAEIXZ 00419990 f i DIOStreamDeviceBluetooth.obj
 0001:000189b0       ?GetNProtocols@DIOSTREAMDEVICEBLUETOOTHSDPSERVICE@@QAEHXZ 004199b0 f i DIOStreamDeviceBluetooth.obj
 0001:000189d0       ?GetName@DIOSTREAMDEVICEBLUETOOTHSDPSERVICE@@QAEPAVXSTRING@@XZ 004199d0 f i DIOStreamDeviceBluetooth.obj
 0001:000189f0       ?GetProtocol@DIOSTREAMDEVICEBLUETOOTHSDPSERVICE@@QAEPAVDIOSTREAMDEVICEBLUETOOTHSDPSERVICEPROTOCOL@@H@Z 004199f0 f i DIOStreamDeviceBluetooth.obj
 0001:00018a20       ?GetProvider@DIOSTREAMDEVICEBLUETOOTHSDPSERVICE@@QAEPAVXSTRING@@XZ 00419a20 f i DIOStreamDeviceBluetooth.obj
 0001:00018a40       ?GetSize@?$XVECTOR@PAVDIOSTREAMDEVICEBLUETOOTHSDPSERVICE@@@@QAEIXZ 00419a40 f i DIOStreamDeviceBluetooth.obj
 0001:00018a60       ?GetType@DIOSTREAMDEVICEBLUETOOTHSDPSERVICEPROTOCOL@@QAEIXZ 00419a60 f i DIOStreamDeviceBluetooth.obj
 0001:00018a80       ?IsEmpty@?$XVECTOR@PAVDIOSTREAMDEVICEBLUETOOTHSDPSERVICE@@@@QAE_NXZ 00419a80 f i DIOStreamDeviceBluetooth.obj
 0001:00018ab0       ?ResizeAdd@?$XVECTOR@PAVDIOSTREAMDEVICEBLUETOOTHSDPSERVICE@@@@AAE_NXZ 00419ab0 f i DIOStreamDeviceBluetooth.obj
 0001:00018b70       ??0DIOSTREAMDEVICEIP@@QAE@XZ 00419b70 f   DIOStreamDeviceIP.obj
 0001:00018bf0       ??1DIOSTREAMDEVICEIP@@UAE@XZ 00419bf0 f   DIOStreamDeviceIP.obj
 0001:00018c60       ?GetMAC@DIOSTREAMDEVICEIP@@QAEPAVDIOMAC@@XZ 00419c60 f   DIOStreamDeviceIP.obj
 0001:00018c80       ?GetIP@DIOSTREAMDEVICEIP@@QAEPAVDIOIP@@XZ 00419c80 f   DIOStreamDeviceIP.obj
 0001:00018ca0       ?GetIPType@DIOSTREAMDEVICEIP@@QAE?AW4DIOSTREAMIPDEVICE_TYPE@@XZ 00419ca0 f   DIOStreamDeviceIP.obj
 0001:00018cc0       ?SetIPType@DIOSTREAMDEVICEIP@@QAE_NW4DIOSTREAMIPDEVICE_TYPE@@@Z 00419cc0 f   DIOStreamDeviceIP.obj
 0001:00018ce0       ?DebugPrintInfo@DIOSTREAMDEVICEIP@@UAE_NPAVXCONSOLE@@@Z 00419ce0 f   DIOStreamDeviceIP.obj
 0001:00018e40       ?Clean@DIOSTREAMDEVICEIP@@AAEXXZ 00419e40 f   DIOStreamDeviceIP.obj
 0001:00018e60       ??_EDIOSTREAMDEVICEIP@@UAEPAXI@Z 00419e60 f i DIOStreamDeviceIP.obj
 0001:00018e60       ??_GDIOSTREAMDEVICEIP@@UAEPAXI@Z 00419e60 f i DIOStreamDeviceIP.obj
 0001:00018e90       ??0DIOSTREAMDEVICEUSB@@QAE@XZ 00419e90 f   DIOStreamDeviceUSB.obj
 0001:00018f30       ??1DIOSTREAMDEVICEUSB@@UAE@XZ 00419f30 f   DIOStreamDeviceUSB.obj
 0001:00018fb0       ?DebugPrintInfo@DIOSTREAMDEVICEUSB@@UAE_NPAVXCONSOLE@@@Z 00419fb0 f   DIOStreamDeviceUSB.obj
 0001:000191e0       ??_EDIOSTREAMDEVICEUSB@@UAEPAXI@Z 0041a1e0 f i DIOStreamDeviceUSB.obj
 0001:000191e0       ??_GDIOSTREAMDEVICEUSB@@UAEPAXI@Z 0041a1e0 f i DIOStreamDeviceUSB.obj
 0001:00019220       ?Clean@DIOSTREAMDEVICEUSB@@AAEXXZ 0041a220 f i DIOStreamDeviceUSB.obj
 0001:00019260       ??0DIOSTREAMDEVICEWIFI@@QAE@XZ 0041a260 f   DIOStreamDeviceWifi.obj
 0001:000192c0       ??1DIOSTREAMDEVICEWIFI@@UAE@XZ 0041a2c0 f   DIOStreamDeviceWifi.obj
 0001:00019310       ?DebugPrintInfo@DIOSTREAMDEVICEWIFI@@UAE_NPAVXCONSOLE@@@Z 0041a310 f   DIOStreamDeviceWifi.obj
 0001:000193a0       ??_EDIOSTREAMDEVICEWIFI@@UAEPAXI@Z 0041a3a0 f i DIOStreamDeviceWifi.obj
 0001:000193a0       ??_GDIOSTREAMDEVICEWIFI@@UAEPAXI@Z 0041a3a0 f i DIOStreamDeviceWifi.obj
 0001:000193d0       ?Clean@DIOSTREAMDEVICEWIFI@@AAEXXZ 0041a3d0 f i DIOStreamDeviceWifi.obj
 0001:000193f0       ??0DIOSTREAMENUMDEVICES@@QAE@XZ 0041a3f0 f   DIOStreamEnumDevices.obj
 0001:00019470       ??1DIOSTREAMENUMDEVICES@@UAE@XZ 0041a470 f   DIOStreamEnumDevices.obj
 0001:000194f0       ?GetType@DIOSTREAMENUMDEVICES@@QAE?AW4DIOSTREAMENUMTYPE@@XZ 0041a4f0 f   DIOStreamEnumDevices.obj
 0001:00019510       ?SetType@DIOSTREAMENUMDEVICES@@QAE_NW4DIOSTREAMENUMTYPE@@@Z 0041a510 f   DIOStreamEnumDevices.obj
 0001:00019530       ?AddDevice@DIOSTREAMENUMDEVICES@@QAE_NPAVDIOSTREAMDEVICE@@@Z 0041a530 f   DIOStreamEnumDevices.obj
 0001:00019550       ?DelAllDevices@DIOSTREAMENUMDEVICES@@QAE_NXZ 0041a550 f   DIOStreamEnumDevices.obj
 0001:00019590       ?GetDeviceByName@DIOSTREAMENUMDEVICES@@QAEPAVDIOSTREAMDEVICE@@PA_W@Z 0041a590 f   DIOStreamEnumDevices.obj
 0001:00019620       ?GetDeviceByIndex@DIOSTREAMENUMDEVICES@@QAEPAVDIOSTREAMDEVICE@@H@Z 0041a620 f   DIOStreamEnumDevices.obj
 0001:00019680       ??0?$XVECTOR@PAVDIOSTREAMDEVICE@@@@QAE@XZ 0041a680 f i DIOStreamEnumDevices.obj
 0001:000196a0       ??1?$XVECTOR@PAVDIOSTREAMDEVICE@@@@UAE@XZ 0041a6a0 f i DIOStreamEnumDevices.obj
 0001:000196f0       ??_E?$XVECTOR@PAVDIOSTREAMDEVICE@@@@UAEPAXI@Z 0041a6f0 f i DIOStreamEnumDevices.obj
 0001:000196f0       ??_G?$XVECTOR@PAVDIOSTREAMDEVICE@@@@UAEPAXI@Z 0041a6f0 f i DIOStreamEnumDevices.obj
 0001:00019720       ??_GDIOSTREAMENUMDEVICES@@UAEPAXI@Z 0041a720 f i DIOStreamEnumDevices.obj
 0001:00019720       ??_EDIOSTREAMENUMDEVICES@@UAEPAXI@Z 0041a720 f i DIOStreamEnumDevices.obj
 0001:00019750       ?Add@?$XVECTOR@PAVDIOSTREAMDEVICE@@@@QAE_NPAVDIOSTREAMDEVICE@@@Z 0041a750 f i DIOStreamEnumDevices.obj
 0001:000197e0       ?Clean@?$XVECTOR@PAVDIOSTREAMDEVICE@@@@AAEXXZ 0041a7e0 f i DIOStreamEnumDevices.obj
 0001:00019820       ?Clean@DIOSTREAMENUMDEVICES@@AAEXXZ 0041a820 f i DIOStreamEnumDevices.obj
 0001:00019840       ?DeleteAll@?$XVECTOR@PAVDIOSTREAMDEVICE@@@@QAE_NXZ 0041a840 f i DIOStreamEnumDevices.obj
 0001:00019890       ?DeleteContents@?$XVECTOR@PAVDIOSTREAMDEVICE@@@@QAE_NXZ 0041a890 f i DIOStreamEnumDevices.obj
 0001:00019930       ?Get@?$XVECTOR@PAVDIOSTREAMDEVICE@@@@QAEPAVDIOSTREAMDEVICE@@H@Z 0041a930 f i DIOStreamEnumDevices.obj
 0001:00019970       ?GetSize@?$XVECTOR@PAVDIOSTREAMDEVICE@@@@QAEIXZ 0041a970 f i DIOStreamEnumDevices.obj
 0001:00019990       ?IsDeviceAvailable@DIOSTREAMENUMDEVICES@@UAE_NPA_W@Z 0041a990 f i DIOStreamEnumDevices.obj
 0001:000199a0       ?IsEmpty@?$XVECTOR@PAVDIOSTREAMDEVICE@@@@QAE_NXZ 0041a9a0 f i DIOStreamEnumDevices.obj
 0001:000199d0       ?IsSearching@DIOSTREAMENUMDEVICES@@UAE_NXZ 0041a9d0 f i DIOStreamEnumDevices.obj
 0001:000199e0       ?ResizeAdd@?$XVECTOR@PAVDIOSTREAMDEVICE@@@@AAE_NXZ 0041a9e0 f i DIOStreamEnumDevices.obj
 0001:00019aa0       ?Search@DIOSTREAMENUMDEVICES@@UAE_NXZ 0041aaa0 f i DIOStreamEnumDevices.obj
 0001:00019ab0       ?StopSearch@DIOSTREAMENUMDEVICES@@UAE_N_N@Z 0041aab0 f i DIOStreamEnumDevices.obj
 0001:00019ac0       ??0DIOSTREAMENUMSERVERS@@QAE@XZ 0041aac0 f   DIOStreamEnumServers.obj
 0001:00019b40       ??1DIOSTREAMENUMSERVERS@@UAE@XZ 0041ab40 f   DIOStreamEnumServers.obj
 0001:00019bb0       ?Search@DIOSTREAMENUMSERVERS@@QAE_NH@Z 0041abb0 f   DIOStreamEnumServers.obj
 0001:00019bf0       ?Search@DIOSTREAMENUMSERVERS@@UAE_NXZ 0041abf0 f   DIOStreamEnumServers.obj
 0001:00019c10       ?StopSearch@DIOSTREAMENUMSERVERS@@UAE_N_N@Z 0041ac10 f   DIOStreamEnumServers.obj
 0001:00019c20       ?IsSearching@DIOSTREAMENUMSERVERS@@UAE_NXZ 0041ac20 f   DIOStreamEnumServers.obj
 0001:00019c40       ?IsDeviceAvailable@DIOSTREAMENUMSERVERS@@UAE_NPA_W@Z 0041ac40 f   DIOStreamEnumServers.obj
 0001:00019c50       ?SendSignal@DIOSTREAMENUMSERVERS@@UAE_NXZ 0041ac50 f   DIOStreamEnumServers.obj
 0001:00019c60       ?GetXTimer@DIOSTREAMENUMSERVERS@@QAEPAVXTIMER@@XZ 0041ac60 f   DIOStreamEnumServers.obj
 0001:00019c80       ?GetID@DIOSTREAMENUMSERVERS@@QAEIXZ 0041ac80 f   DIOStreamEnumServers.obj
 0001:00019ca0       ?SetID@DIOSTREAMENUMSERVERS@@QAE_NI@Z 0041aca0 f   DIOStreamEnumServers.obj
 0001:00019cc0       ?Clean@DIOSTREAMENUMSERVERS@@AAEXXZ 0041acc0 f   DIOStreamEnumServers.obj
 0001:00019d00       ??_GDIOSTREAMENUMSERVERS@@UAEPAXI@Z 0041ad00 f i DIOStreamEnumServers.obj
 0001:00019d00       ??_EDIOSTREAMENUMSERVERS@@UAEPAXI@Z 0041ad00 f i DIOStreamEnumServers.obj
 0001:00019d30       ??0DIOSTREAMI2C@@QAE@XZ    0041ad30 f   DIOStreamI2C.obj
 0001:00019e30       ??1DIOSTREAMI2C@@UAE@XZ    0041ae30 f   DIOStreamI2C.obj
 0001:00019ea0       ?GetConfig@DIOSTREAMI2C@@UAEPAVDIOSTREAMCONFIG@@XZ 0041aea0 f   DIOStreamI2C.obj
 0001:00019ec0       ?SetConfig@DIOSTREAMI2C@@UAE_NPAVDIOSTREAMCONFIG@@@Z 0041aec0 f   DIOStreamI2C.obj
 0001:00019ef0       ?Open@DIOSTREAMI2C@@UAE_NXZ 0041aef0 f   DIOStreamI2C.obj
 0001:00019f40       ?Close@DIOSTREAMI2C@@UAE_NXZ 0041af40 f   DIOStreamI2C.obj
 0001:00019f70       ?Clean@DIOSTREAMI2C@@AAEXXZ 0041af70 f   DIOStreamI2C.obj
 0001:00019f8f       ??_EDIOSTREAMI2C@@WDE@AEPAXI@Z 0041af8f f i DIOStreamI2C.obj
 0001:00019fa0       ??_EDIOSTREAMI2C@@UAEPAXI@Z 0041afa0 f i DIOStreamI2C.obj
 0001:00019fa0       ??_GDIOSTREAMI2C@@UAEPAXI@Z 0041afa0 f i DIOStreamI2C.obj
 0001:00019fd0       ?ReadDirect@DIOSTREAMI2C@@UAEIPAEI@Z 0041afd0 f i DIOStreamI2C.obj
 0001:00019fe0       ?WriteDirect@DIOSTREAMI2C@@UAEIPAEI@Z 0041afe0 f i DIOStreamI2C.obj
 0001:00019ff0       ??0DIOSTREAMI2CCONFIG@@QAE@XZ 0041aff0 f   DIOStreamI2CConfig.obj
 0001:0001a070       ??1DIOSTREAMI2CCONFIG@@UAE@XZ 0041b070 f   DIOStreamI2CConfig.obj
 0001:0001a0d0       ?SetLocalDeviceNameByPort@DIOSTREAMI2CCONFIG@@QAE_NXZ 0041b0d0 f   DIOStreamI2CConfig.obj
 0001:0001a190       ??_EDIOSTREAMI2CCONFIG@@UAEPAXI@Z 0041b190 f i DIOStreamI2CConfig.obj
 0001:0001a190       ??_GDIOSTREAMI2CCONFIG@@UAEPAXI@Z 0041b190 f i DIOStreamI2CConfig.obj
 0001:0001a1c0       ?Clean@DIOSTREAMI2CCONFIG@@AAEXXZ 0041b1c0 f i DIOStreamI2CConfig.obj
 0001:0001a210       ??0DIOSTREAMICMP@@QAE@XZ   0041b210 f   DIOStreamICMP.obj
 0001:0001a2b0       ??1DIOSTREAMICMP@@UAE@XZ   0041b2b0 f   DIOStreamICMP.obj
 0001:0001a350       ?GetConfig@DIOSTREAMICMP@@UAEPAVDIOSTREAMCONFIG@@XZ 0041b350 f   DIOStreamICMP.obj
 0001:0001a370       ?SetConfig@DIOSTREAMICMP@@UAE_NPAVDIOSTREAMCONFIG@@@Z 0041b370 f   DIOStreamICMP.obj
 0001:0001a3a0       ?Read@DIOSTREAMICMP@@UAEIPAEI@Z 0041b3a0 f   DIOStreamICMP.obj
 0001:0001a470       ?Write@DIOSTREAMICMP@@UAEIPAEI@Z 0041b470 f   DIOStreamICMP.obj
 0001:0001a4f0       ?ReadDatagram@DIOSTREAMICMP@@QAE_NAAVXSTRING@@AAVXBUFFER@@@Z 0041b4f0 f   DIOStreamICMP.obj
 0001:0001a5a0       ?WriteDatagram@DIOSTREAMICMP@@QAE_NAAVXSTRING@@PAEH@Z 0041b5a0 f   DIOStreamICMP.obj
 0001:0001a610       ?WriteDatagram@DIOSTREAMICMP@@QAE_NAAVXSTRING@@AAVXBUFFER@@@Z 0041b610 f   DIOStreamICMP.obj
 0001:0001a640       ?ResetXBuffers@DIOSTREAMICMP@@QAE_NXZ 0041b640 f   DIOStreamICMP.obj
 0001:0001a670       ?ResetInXBuffer@DIOSTREAMICMP@@QAE_NXZ 0041b670 f   DIOStreamICMP.obj
 0001:0001a6f0       ?ResetOutXBuffer@DIOSTREAMICMP@@QAE_NXZ 0041b6f0 f   DIOStreamICMP.obj
 0001:0001a770       ?DeleteAllDatagrams@DIOSTREAMICMP@@QAE_NXZ 0041b770 f   DIOStreamICMP.obj
 0001:0001a7f0       ?AddDatagram@DIOSTREAMICMP@@IAE_N_NPA_WPAEH@Z 0041b7f0 f   DIOStreamICMP.obj
 0001:0001a910       ?AddDatagram@DIOSTREAMICMP@@IAE_N_NAAVXSTRING@@PAEH@Z 0041b910 f   DIOStreamICMP.obj
 0001:0001a940       ?GetDatagram@DIOSTREAMICMP@@IAEPAVDIOSTREAMICMPDATAGRAM@@H@Z 0041b940 f   DIOStreamICMP.obj
 0001:0001a960       ?GetFirstDatagram@DIOSTREAMICMP@@IAEH_N@Z 0041b960 f   DIOStreamICMP.obj
 0001:0001aa10       ?DeleteDatagram@DIOSTREAMICMP@@IAE_NH@Z 0041ba10 f   DIOStreamICMP.obj
 0001:0001aac0       ?Clean@DIOSTREAMICMP@@AAEXXZ 0041bac0 f   DIOStreamICMP.obj
 0001:0001aaf0       ??0?$XVECTOR@PAVDIOSTREAMICMPDATAGRAM@@@@QAE@XZ 0041baf0 f i DIOStreamICMP.obj
 0001:0001ab10       ??0DIOSTREAMICMPDATAGRAM@@QAE@XZ 0041bb10 f i DIOStreamICMP.obj
 0001:0001abc0       ??1?$XVECTOR@PAVDIOSTREAMICMPDATAGRAM@@@@UAE@XZ 0041bbc0 f i DIOStreamICMP.obj
 0001:0001ac10       ??1DIOSTREAMICMPDATAGRAM@@UAE@XZ 0041bc10 f i DIOStreamICMP.obj
 0001:0001aca0       ??_G?$XVECTOR@PAVDIOSTREAMICMPDATAGRAM@@@@UAEPAXI@Z 0041bca0 f i DIOStreamICMP.obj
 0001:0001aca0       ??_E?$XVECTOR@PAVDIOSTREAMICMPDATAGRAM@@@@UAEPAXI@Z 0041bca0 f i DIOStreamICMP.obj
 0001:0001acd0       ??_EDIOSTREAMICMP@@UAEPAXI@Z 0041bcd0 f i DIOStreamICMP.obj
 0001:0001acd0       ??_GDIOSTREAMICMP@@UAEPAXI@Z 0041bcd0 f i DIOStreamICMP.obj
 0001:0001ad00       ??_EDIOSTREAMICMPDATAGRAM@@UAEPAXI@Z 0041bd00 f i DIOStreamICMP.obj
 0001:0001ad00       ??_GDIOSTREAMICMPDATAGRAM@@UAEPAXI@Z 0041bd00 f i DIOStreamICMP.obj
 0001:0001ad30       ?Add@?$XVECTOR@PAVDIOSTREAMICMPDATAGRAM@@@@QAE_NPAVDIOSTREAMICMPDATAGRAM@@@Z 0041bd30 f i DIOStreamICMP.obj
 0001:0001adc0       ?Clean@?$XVECTOR@PAVDIOSTREAMICMPDATAGRAM@@@@AAEXXZ 0041bdc0 f i DIOStreamICMP.obj
 0001:0001ae00       ?Clean@DIOSTREAMICMPDATAGRAM@@AAEXXZ 0041be00 f i DIOStreamICMP.obj
 0001:0001ae30       ?DeleteAll@?$XVECTOR@PAVDIOSTREAMICMPDATAGRAM@@@@QAE_NXZ 0041be30 f i DIOStreamICMP.obj
 0001:0001ae80       ?DeleteContents@?$XVECTOR@PAVDIOSTREAMICMPDATAGRAM@@@@QAE_NXZ 0041be80 f i DIOStreamICMP.obj
 0001:0001af20       ?DeleteIndex@?$XVECTOR@PAVDIOSTREAMICMPDATAGRAM@@@@QAE_NH@Z 0041bf20 f i DIOStreamICMP.obj
 0001:0001af70       ?Get@?$XVECTOR@PAVDIOSTREAMICMPDATAGRAM@@@@QAEPAVDIOSTREAMICMPDATAGRAM@@H@Z 0041bf70 f i DIOStreamICMP.obj
 0001:0001afb0       ?GetAddress@DIOSTREAMICMPDATAGRAM@@QAEPAVXSTRING@@XZ 0041bfb0 f i DIOStreamICMP.obj
 0001:0001afd0       ?GetData@DIOSTREAMICMPDATAGRAM@@QAEPAVXBUFFER@@XZ 0041bfd0 f i DIOStreamICMP.obj
 0001:0001aff0       ?GetSize@?$XVECTOR@PAVDIOSTREAMICMPDATAGRAM@@@@QAEIXZ 0041bff0 f i DIOStreamICMP.obj
 0001:0001b010       ?IsEmpty@?$XVECTOR@PAVDIOSTREAMICMPDATAGRAM@@@@QAE_NXZ 0041c010 f i DIOStreamICMP.obj
 0001:0001b040       ?IsToSend@DIOSTREAMICMPDATAGRAM@@QAE_NXZ 0041c040 f i DIOStreamICMP.obj
 0001:0001b060       ?ResizeAdd@?$XVECTOR@PAVDIOSTREAMICMPDATAGRAM@@@@AAE_NXZ 0041c060 f i DIOStreamICMP.obj
 0001:0001b120       ?ResizeRemove@?$XVECTOR@PAVDIOSTREAMICMPDATAGRAM@@@@AAE_NI@Z 0041c120 f i DIOStreamICMP.obj
 0001:0001b190       ?SetAddress@DIOSTREAMICMPDATAGRAM@@QAE_NPA_W@Z 0041c190 f i DIOStreamICMP.obj
 0001:0001b1c0       ?SetData@DIOSTREAMICMPDATAGRAM@@QAE_NPAEH@Z 0041c1c0 f i DIOStreamICMP.obj
 0001:0001b200       ?SetIsToSend@DIOSTREAMICMPDATAGRAM@@QAEX_N@Z 0041c200 f i DIOStreamICMP.obj
 0001:0001b220       ??0DIOSTREAMICMPCONFIG@@QAE@XZ 0041c220 f   DIOStreamICMPConfig.obj
 0001:0001b2c0       ??1DIOSTREAMICMPCONFIG@@UAE@XZ 0041c2c0 f   DIOStreamICMPConfig.obj
 0001:0001b350       ?GetLocalIP@DIOSTREAMICMPCONFIG@@QAEPAVDIOIP@@XZ 0041c350 f   DIOStreamICMPConfig.obj
 0001:0001b370       ?GetRemoteURL@DIOSTREAMICMPCONFIG@@QAEPAVDIOURL@@XZ 0041c370 f   DIOStreamICMPConfig.obj
 0001:0001b390       ?Clean@DIOSTREAMICMPCONFIG@@AAEXXZ 0041c390 f   DIOStreamICMPConfig.obj
 0001:0001b3b0       ??_GDIOSTREAMICMPCONFIG@@UAEPAXI@Z 0041c3b0 f i DIOStreamICMPConfig.obj
 0001:0001b3b0       ??_EDIOSTREAMICMPCONFIG@@UAEPAXI@Z 0041c3b0 f i DIOStreamICMPConfig.obj
 0001:0001b3e0       ??0DIOSTREAMIPLOCALENUMDEVICES@@QAE@XZ 0041c3e0 f   DIOStreamIPLocalEnumDevices.obj
 0001:0001b440       ??1DIOSTREAMIPLOCALENUMDEVICES@@UAE@XZ 0041c440 f   DIOStreamIPLocalEnumDevices.obj
 0001:0001b490       ?GetFirstActiveDevice@DIOSTREAMIPLOCALENUMDEVICES@@QAEPAVDIOSTREAMDEVICE@@XZ 0041c490 f   DIOStreamIPLocalEnumDevices.obj
 0001:0001b530       ?Clean@DIOSTREAMIPLOCALENUMDEVICES@@AAEXXZ 0041c530 f   DIOStreamIPLocalEnumDevices.obj
 0001:0001b550       ??_GDIOSTREAMIPLOCALENUMDEVICES@@UAEPAXI@Z 0041c550 f i DIOStreamIPLocalEnumDevices.obj
 0001:0001b550       ??_EDIOSTREAMIPLOCALENUMDEVICES@@UAEPAXI@Z 0041c550 f i DIOStreamIPLocalEnumDevices.obj
 0001:0001b580       ?GetDevices@DIOSTREAMENUMDEVICES@@QAEPAV?$XVECTOR@PAVDIOSTREAMDEVICE@@@@XZ 0041c580 f i DIOStreamIPLocalEnumDevices.obj
 0001:0001b5a0       ?IsDeviceAvailable@DIOSTREAMIPLOCALENUMDEVICES@@UAE_NPA_W@Z 0041c5a0 f i DIOStreamIPLocalEnumDevices.obj
 0001:0001b5b0       ?IsSearching@DIOSTREAMIPLOCALENUMDEVICES@@UAE_NXZ 0041c5b0 f i DIOStreamIPLocalEnumDevices.obj
 0001:0001b5d0       ?Search@DIOSTREAMIPLOCALENUMDEVICES@@UAE_NXZ 0041c5d0 f i DIOStreamIPLocalEnumDevices.obj
 0001:0001b5e0       ?StopSearch@DIOSTREAMIPLOCALENUMDEVICES@@UAE_N_N@Z 0041c5e0 f i DIOStreamIPLocalEnumDevices.obj
 0001:0001b5f0       ??0DIOSTREAMSPI@@QAE@XZ    0041c5f0 f   DIOStreamSPI.obj
 0001:0001b740       ??1DIOSTREAMSPI@@UAE@XZ    0041c740 f   DIOStreamSPI.obj
 0001:0001b800       ?GetConfig@DIOSTREAMSPI@@UAEPAVDIOSTREAMCONFIG@@XZ 0041c800 f   DIOStreamSPI.obj
 0001:0001b820       ?SetConfig@DIOSTREAMSPI@@UAE_NPAVDIOSTREAMCONFIG@@@Z 0041c820 f   DIOStreamSPI.obj
 0001:0001b850       ?Open@DIOSTREAMSPI@@UAE_NXZ 0041c850 f   DIOStreamSPI.obj
 0001:0001bb80       ?Close@DIOSTREAMSPI@@UAE_NXZ 0041cb80 f   DIOStreamSPI.obj
 0001:0001bc40       ?TransferBuffer@DIOSTREAMSPI@@UAE_NPAE0I@Z 0041cc40 f   DIOStreamSPI.obj
 0001:0001bda0       ?Sleep@DIOSTREAMSPI@@UAEXH@Z 0041cda0 f   DIOStreamSPI.obj
 0001:0001bdb0       ?GetDIOGPIO@DIOSTREAMSPI@@QAEPAVDIOGPIO@@XZ 0041cdb0 f   DIOStreamSPI.obj
 0001:0001bdd0       ?SetDIOGPIO@DIOSTREAMSPI@@QAE_NPAVDIOGPIO@@@Z 0041cdd0 f   DIOStreamSPI.obj
 0001:0001bdf0       ?Clean@DIOSTREAMSPI@@AAEXXZ 0041cdf0 f   DIOStreamSPI.obj
 0001:0001beb0       ?TransferOneData@DIOSTREAMSPI@@AAE_NGAAG@Z 0041ceb0 f   DIOStreamSPI.obj
 0001:0001c250       ?ThreadConnexion@DIOSTREAMSPI@@CAXPAX@Z 0041d250 f   DIOStreamSPI.obj
 0001:0001c4c0       ??0DIOSTREAMXEVENT@@QAE@PAVXSUBJECT@@II@Z 0041d4c0 f i DIOStreamSPI.obj
 0001:0001c540       ??1DIOSTREAMXEVENT@@UAE@XZ 0041d540 f i DIOStreamSPI.obj
 0001:0001c599       ??_EDIOSTREAMSPI@@WDE@AEPAXI@Z 0041d599 f i DIOStreamSPI.obj
 0001:0001c5b0       ??_EDIOSTREAMSPI@@UAEPAXI@Z 0041d5b0 f i DIOStreamSPI.obj
 0001:0001c5b0       ??_GDIOSTREAMSPI@@UAEPAXI@Z 0041d5b0 f i DIOStreamSPI.obj
 0001:0001c5f0       ??_GDIOSTREAMXEVENT@@UAEPAXI@Z 0041d5f0 f i DIOStreamSPI.obj
 0001:0001c5f0       ??_EDIOSTREAMXEVENT@@UAEPAXI@Z 0041d5f0 f i DIOStreamSPI.obj
 0001:0001c620       ?Clean@DIOSTREAMXEVENT@@AAEXXZ 0041d620 f i DIOStreamSPI.obj
 0001:0001c640       ?GetDelay@DIOSTREAMSPICONFIG@@QAEGXZ 0041d640 f i DIOStreamSPI.obj
 0001:0001c660       ?GetMode@DIOSTREAMCONFIG@@QAE?AW4DIOSTREAMMODE@@XZ 0041d660 f i DIOStreamSPI.obj
 0001:0001c680       ?GetNBitsWord@DIOSTREAMSPICONFIG@@QAEEXZ 0041d680 f i DIOStreamSPI.obj
 0001:0001c6a0       ?GetPins@DIOSTREAMSPICONFIG@@QAE_NAAH000@Z 0041d6a0 f i DIOStreamSPI.obj
 0001:0001c6e0       ?IsDirectAccess@DIOSTREAMSPICONFIG@@QAE_NXZ 0041d6e0 f i DIOStreamSPI.obj
 0001:0001c700       ?IsOnlyWrite@DIOSTREAMSPICONFIG@@QAE_NXZ 0041d700 f i DIOStreamSPI.obj
 0001:0001c720       ?IsRunning@XTHREAD@@QAE_NXZ 0041d720 f i DIOStreamSPI.obj
 0001:0001c740       ?Run@XTHREAD@@QAE_N_N@Z    0041d740 f i DIOStreamSPI.obj
 0001:0001c7a0       ?SetDIOStream@DIOSTREAMXEVENT@@QAEXPAVDIOSTREAM@@@Z 0041d7a0 f i DIOStreamSPI.obj
 0001:0001c7c0       ?SetPriority@XTHREAD@@QAEXW4XTHREADPRIORITY@@@Z 0041d7c0 f i DIOStreamSPI.obj
 0001:0001c7e0       ??0DIOSTREAMSPICONFIG@@QAE@XZ 0041d7e0 f   DIOStreamSPIConfig.obj
 0001:0001c860       ??1DIOSTREAMSPICONFIG@@UAE@XZ 0041d860 f   DIOStreamSPIConfig.obj
 0001:0001c8c0       ?SetLocalDeviceNameByPort@DIOSTREAMSPICONFIG@@QAE_NXZ 0041d8c0 f   DIOStreamSPIConfig.obj
 0001:0001c970       ??_GDIOSTREAMSPICONFIG@@UAEPAXI@Z 0041d970 f i DIOStreamSPIConfig.obj
 0001:0001c970       ??_EDIOSTREAMSPICONFIG@@UAEPAXI@Z 0041d970 f i DIOStreamSPIConfig.obj
 0001:0001c9a0       ?Clean@DIOSTREAMSPICONFIG@@AAEXXZ 0041d9a0 f i DIOStreamSPIConfig.obj
 0001:0001ca60       ??0DIOSTREAMTCPIP@@QAE@XZ  0041da60 f   DIOStreamTCPIP.obj
 0001:0001cad0       ??1DIOSTREAMTCPIP@@UAE@XZ  0041dad0 f   DIOStreamTCPIP.obj
 0001:0001cb30       ?GetConfig@DIOSTREAMTCPIP@@UAEPAVDIOSTREAMCONFIG@@XZ 0041db30 f   DIOStreamTCPIP.obj
 0001:0001cb50       ?SetConfig@DIOSTREAMTCPIP@@UAE_NPAVDIOSTREAMCONFIG@@@Z 0041db50 f   DIOStreamTCPIP.obj
 0001:0001cb80       ?GetClientIP@DIOSTREAMTCPIP@@QAEPAVDIOIP@@XZ 0041db80 f   DIOStreamTCPIP.obj
 0001:0001cba0       ?GetEnumServers@DIOSTREAMTCPIP@@QAEPAVDIOSTREAMENUMSERVERS@@XZ 0041dba0 f   DIOStreamTCPIP.obj
 0001:0001cbc0       ?SetEnumServers@DIOSTREAMTCPIP@@QAE_NPAVDIOSTREAMENUMSERVERS@@@Z 0041dbc0 f   DIOStreamTCPIP.obj
 0001:0001cbe0       ?Clean@DIOSTREAMTCPIP@@AAEXXZ 0041dbe0 f   DIOStreamTCPIP.obj
 0001:0001cc00       ??_GDIOSTREAMTCPIP@@UAEPAXI@Z 0041dc00 f i DIOStreamTCPIP.obj
 0001:0001cc00       ??_EDIOSTREAMTCPIP@@UAEPAXI@Z 0041dc00 f i DIOStreamTCPIP.obj
 0001:0001cc30       ??0DIOSTREAMTCPIPCONFIG@@QAE@XZ 0041dc30 f   DIOStreamTCPIPConfig.obj
 0001:0001cce0       ??1DIOSTREAMTCPIPCONFIG@@UAE@XZ 0041dce0 f   DIOStreamTCPIPConfig.obj
 0001:0001cd90       ?GetLocalIP@DIOSTREAMTCPIPCONFIG@@QAEPAVDIOIP@@XZ 0041dd90 f   DIOStreamTCPIPConfig.obj
 0001:0001cdb0       ?GetRemoteURL@DIOSTREAMTCPIPCONFIG@@QAEPAVDIOURL@@XZ 0041ddb0 f   DIOStreamTCPIPConfig.obj
 0001:0001cdd0       ?GetRemotePort@DIOSTREAMTCPIPCONFIG@@QAEHXZ 0041ddd0 f   DIOStreamTCPIPConfig.obj
 0001:0001cdf0       ?SetRemotePort@DIOSTREAMTCPIPCONFIG@@QAE_NH@Z 0041ddf0 f   DIOStreamTCPIPConfig.obj
 0001:0001ce10       ?GetToString@DIOSTREAMTCPIPCONFIG@@QAE_NPAVXSTRING@@@Z 0041de10 f   DIOStreamTCPIPConfig.obj
 0001:0001ce60       ?SetFromString@DIOSTREAMTCPIPCONFIG@@QAE_NPA_W@Z 0041de60 f   DIOStreamTCPIPConfig.obj
 0001:0001d210       ??0DIOURL@@QAE@XZ          0041e210 f i DIOStreamTCPIPConfig.obj
 0001:0001d270       ??1DIOURL@@UAE@XZ          0041e270 f i DIOStreamTCPIPConfig.obj
 0001:0001d2c0       ??_GDIOSTREAMTCPIPCONFIG@@UAEPAXI@Z 0041e2c0 f i DIOStreamTCPIPConfig.obj
 0001:0001d2c0       ??_EDIOSTREAMTCPIPCONFIG@@UAEPAXI@Z 0041e2c0 f i DIOStreamTCPIPConfig.obj
 0001:0001d2f0       ??_GDIOURL@@UAEPAXI@Z      0041e2f0 f i DIOStreamTCPIPConfig.obj
 0001:0001d2f0       ??_EDIOURL@@UAEPAXI@Z      0041e2f0 f i DIOStreamTCPIPConfig.obj
 0001:0001d320       ?Clean@DIOSTREAMTCPIPCONFIG@@AAEXXZ 0041e320 f i DIOStreamTCPIPConfig.obj
 0001:0001d370       ??0DIOSTREAMUART@@QAE@XZ   0041e370 f   DIOStreamUART.obj
 0001:0001d3f0       ??1DIOSTREAMUART@@UAE@XZ   0041e3f0 f   DIOStreamUART.obj
 0001:0001d470       ?GetConfig@DIOSTREAMUART@@UAEPAVDIOSTREAMCONFIG@@XZ 0041e470 f   DIOStreamUART.obj
 0001:0001d490       ?SetConfig@DIOSTREAMUART@@UAE_NPAVDIOSTREAMCONFIG@@@Z 0041e490 f   DIOStreamUART.obj
 0001:0001d4c0       ?Clean@DIOSTREAMUART@@AAEXXZ 0041e4c0 f   DIOStreamUART.obj
 0001:0001d4e0       ??_GDIOSTREAMUART@@UAEPAXI@Z 0041e4e0 f i DIOStreamUART.obj
 0001:0001d4e0       ??_EDIOSTREAMUART@@UAEPAXI@Z 0041e4e0 f i DIOStreamUART.obj
 0001:0001d510       ?CleanBuffers@DIOSTREAMUART@@UAE_NXZ 0041e510 f i DIOStreamUART.obj
 0001:0001d520       ?GetCTS@DIOSTREAMUART@@UAE_NXZ 0041e520 f i DIOStreamUART.obj
 0001:0001d530       ?GetDSR@DIOSTREAMUART@@UAE_NXZ 0041e530 f i DIOStreamUART.obj
 0001:0001d540       ?GetRLSD@DIOSTREAMUART@@UAE_NXZ 0041e540 f i DIOStreamUART.obj
 0001:0001d550       ?GetRing@DIOSTREAMUART@@UAE_NXZ 0041e550 f i DIOStreamUART.obj
 0001:0001d560       ?SetDTR@DIOSTREAMUART@@UAE_N_N@Z 0041e560 f i DIOStreamUART.obj
 0001:0001d570       ?SetRTS@DIOSTREAMUART@@UAE_N_N@Z 0041e570 f i DIOStreamUART.obj
 0001:0001d580       ??0DIOSTREAMUARTCONFIG@@QAE@XZ 0041e580 f   DIOStreamUARTConfig.obj
 0001:0001d600       ??1DIOSTREAMUARTCONFIG@@UAE@XZ 0041e600 f   DIOStreamUARTConfig.obj
 0001:0001d660       ?GetToString@DIOSTREAMUARTCONFIG@@QAE_NPAVXSTRING@@@Z 0041e660 f   DIOStreamUARTConfig.obj
 0001:0001d920       ?SetFromString@DIOSTREAMUARTCONFIG@@QAE_NPA_W@Z 0041e920 f   DIOStreamUARTConfig.obj
 0001:0001de20       ??_GDIOSTREAMUARTCONFIG@@UAEPAXI@Z 0041ee20 f i DIOStreamUARTConfig.obj
 0001:0001de20       ??_EDIOSTREAMUARTCONFIG@@UAEPAXI@Z 0041ee20 f i DIOStreamUARTConfig.obj
 0001:0001de50       ?Clean@DIOSTREAMUARTCONFIG@@AAEXXZ 0041ee50 f i DIOStreamUARTConfig.obj
 0001:0001deb0       ?GetBaudRate@DIOSTREAMUARTCONFIG@@QAEHXZ 0041eeb0 f i DIOStreamUARTConfig.obj
 0001:0001ded0       ?GetDataBits@DIOSTREAMUARTCONFIG@@QAE?AW4DIOSTREAMUARTDATABITS@@XZ 0041eed0 f i DIOStreamUARTConfig.obj
 0001:0001def0       ?GetFlowControl@DIOSTREAMUARTCONFIG@@QAE?AW4DIOSTREAMUARTFLOWCONTROL@@XZ 0041eef0 f i DIOStreamUARTConfig.obj
 0001:0001df10       ?GetLocalDeviceName@DIOSTREAMUARTCONFIG@@QAEPAVXSTRING@@XZ 0041ef10 f i DIOStreamUARTConfig.obj
 0001:0001df30       ?GetParity@DIOSTREAMUARTCONFIG@@QAE?AW4DIOSTREAMUARTPARITY@@XZ 0041ef30 f i DIOStreamUARTConfig.obj
 0001:0001df50       ?GetPort@DIOSTREAMUARTCONFIG@@QAEHXZ 0041ef50 f i DIOStreamUARTConfig.obj
 0001:0001df70       ?SetBaudRate@DIOSTREAMUARTCONFIG@@QAEXH@Z 0041ef70 f i DIOStreamUARTConfig.obj
 0001:0001df90       ?SetDataBits@DIOSTREAMUARTCONFIG@@QAEXW4DIOSTREAMUARTDATABITS@@@Z 0041ef90 f i DIOStreamUARTConfig.obj
 0001:0001dfb0       ?SetFlowControl@DIOSTREAMUARTCONFIG@@QAEXW4DIOSTREAMUARTFLOWCONTROL@@@Z 0041efb0 f i DIOStreamUARTConfig.obj
 0001:0001dfd0       ?SetParity@DIOSTREAMUARTCONFIG@@QAEXW4DIOSTREAMUARTPARITY@@@Z 0041efd0 f i DIOStreamUARTConfig.obj
 0001:0001dff0       ?SetPort@DIOSTREAMUARTCONFIG@@QAEXH@Z 0041eff0 f i DIOStreamUARTConfig.obj
 0001:0001e010       ?SetStopBits@DIOSTREAMUARTCONFIG@@QAEXW4DIOSTREAMUARTSTOPBITS@@@Z 0041f010 f i DIOStreamUARTConfig.obj
 0001:0001e030       ??0DIOSTREAMUARTLOCALENUMDEVICES@@QAE@XZ 0041f030 f   DIOStreamUARTLocalEnumDevices.obj
 0001:0001e090       ??1DIOSTREAMUARTLOCALENUMDEVICES@@UAE@XZ 0041f090 f   DIOStreamUARTLocalEnumDevices.obj
 0001:0001e0e0       ?Clean@DIOSTREAMUARTLOCALENUMDEVICES@@AAEXXZ 0041f0e0 f   DIOStreamUARTLocalEnumDevices.obj
 0001:0001e100       ??_EDIOSTREAMUARTLOCALENUMDEVICES@@UAEPAXI@Z 0041f100 f i DIOStreamUARTLocalEnumDevices.obj
 0001:0001e100       ??_GDIOSTREAMUARTLOCALENUMDEVICES@@UAEPAXI@Z 0041f100 f i DIOStreamUARTLocalEnumDevices.obj
 0001:0001e130       ?IsDeviceAvailable@DIOSTREAMUARTLOCALENUMDEVICES@@UAE_NPA_W@Z 0041f130 f i DIOStreamUARTLocalEnumDevices.obj
 0001:0001e140       ?IsSearching@DIOSTREAMUARTLOCALENUMDEVICES@@UAE_NXZ 0041f140 f i DIOStreamUARTLocalEnumDevices.obj
 0001:0001e160       ?Search@DIOSTREAMUARTLOCALENUMDEVICES@@UAE_NXZ 0041f160 f i DIOStreamUARTLocalEnumDevices.obj
 0001:0001e170       ?StopSearch@DIOSTREAMUARTLOCALENUMDEVICES@@UAE_N_N@Z 0041f170 f i DIOStreamUARTLocalEnumDevices.obj
 0001:0001e180       ??0DIOSTREAMUDP@@QAE@XZ    0041f180 f   DIOStreamUDP.obj
 0001:0001e220       ??1DIOSTREAMUDP@@UAE@XZ    0041f220 f   DIOStreamUDP.obj
 0001:0001e2c0       ?GetConfig@DIOSTREAMUDP@@UAEPAVDIOSTREAMCONFIG@@XZ 0041f2c0 f   DIOStreamUDP.obj
 0001:0001e2e0       ?SetConfig@DIOSTREAMUDP@@UAE_NPAVDIOSTREAMCONFIG@@@Z 0041f2e0 f   DIOStreamUDP.obj
 0001:0001e310       ?ReadDatagram@DIOSTREAMUDP@@QAE_NAAVXSTRING@@AAGAAVXBUFFER@@@Z 0041f310 f   DIOStreamUDP.obj
 0001:0001e3e0       ?WriteDatagram@DIOSTREAMUDP@@QAE_NAAVXSTRING@@GPAEH@Z 0041f3e0 f   DIOStreamUDP.obj
 0001:0001e450       ?WriteDatagram@DIOSTREAMUDP@@QAE_NAAVXSTRING@@GAAVXBUFFER@@@Z 0041f450 f   DIOStreamUDP.obj
 0001:0001e480       ?ResetXBuffers@DIOSTREAMUDP@@QAE_NXZ 0041f480 f   DIOStreamUDP.obj
 0001:0001e4b0       ?ResetInXBuffer@DIOSTREAMUDP@@QAE_NXZ 0041f4b0 f   DIOStreamUDP.obj
 0001:0001e530       ?ResetOutXBuffer@DIOSTREAMUDP@@QAE_NXZ 0041f530 f   DIOStreamUDP.obj
 0001:0001e5b0       ?GetHost@DIOSTREAMUDP@@QAEPAVDIOURL@@XZ 0041f5b0 f   DIOStreamUDP.obj
 0001:0001e5d0       ?WaitToWriteDatagramsEmpty@DIOSTREAMUDP@@QAE_NH@Z 0041f5d0 f   DIOStreamUDP.obj
 0001:0001e640       ?WaitToGetFirstDatagram@DIOSTREAMUDP@@QAEH_NH@Z 0041f640 f   DIOStreamUDP.obj
 0001:0001e6b0       ?DeleteDatagram@DIOSTREAMUDP@@QAE_NH@Z 0041f6b0 f   DIOStreamUDP.obj
 0001:0001e760       ?DeleteAllDatagrams@DIOSTREAMUDP@@QAE_NXZ 0041f760 f   DIOStreamUDP.obj
 0001:0001e7e0       ?AddDatagram@DIOSTREAMUDP@@IAE_N_NPA_WGPAEH@Z 0041f7e0 f   DIOStreamUDP.obj
 0001:0001e910       ?AddDatagram@DIOSTREAMUDP@@IAE_N_NAAVXSTRING@@GPAEH@Z 0041f910 f   DIOStreamUDP.obj
 0001:0001e940       ?GetDatagram@DIOSTREAMUDP@@IAEPAVDIOSTREAMUDPDATAGRAM@@H@Z 0041f940 f   DIOStreamUDP.obj
 0001:0001e960       ?GetFirstDatagram@DIOSTREAMUDP@@IAEH_N@Z 0041f960 f   DIOStreamUDP.obj
 0001:0001ea10       ?Clean@DIOSTREAMUDP@@AAEXXZ 0041fa10 f   DIOStreamUDP.obj
 0001:0001ea40       ??0?$XVECTOR@PAVDIOSTREAMUDPDATAGRAM@@@@QAE@XZ 0041fa40 f i DIOStreamUDP.obj
 0001:0001ea60       ??0DIOSTREAMUDPDATAGRAM@@QAE@XZ 0041fa60 f i DIOStreamUDP.obj
 0001:0001eb10       ??1?$XVECTOR@PAVDIOSTREAMUDPDATAGRAM@@@@UAE@XZ 0041fb10 f i DIOStreamUDP.obj
 0001:0001eb60       ??1DIOSTREAMUDPDATAGRAM@@UAE@XZ 0041fb60 f i DIOStreamUDP.obj
 0001:0001ebf0       ??_G?$XVECTOR@PAVDIOSTREAMUDPDATAGRAM@@@@UAEPAXI@Z 0041fbf0 f i DIOStreamUDP.obj
 0001:0001ebf0       ??_E?$XVECTOR@PAVDIOSTREAMUDPDATAGRAM@@@@UAEPAXI@Z 0041fbf0 f i DIOStreamUDP.obj
 0001:0001ec20       ??_EDIOSTREAMUDP@@UAEPAXI@Z 0041fc20 f i DIOStreamUDP.obj
 0001:0001ec20       ??_GDIOSTREAMUDP@@UAEPAXI@Z 0041fc20 f i DIOStreamUDP.obj
 0001:0001ec50       ??_GDIOSTREAMUDPDATAGRAM@@UAEPAXI@Z 0041fc50 f i DIOStreamUDP.obj
 0001:0001ec50       ??_EDIOSTREAMUDPDATAGRAM@@UAEPAXI@Z 0041fc50 f i DIOStreamUDP.obj
 0001:0001ec80       ?Add@?$XVECTOR@PAVDIOSTREAMUDPDATAGRAM@@@@QAE_NPAVDIOSTREAMUDPDATAGRAM@@@Z 0041fc80 f i DIOStreamUDP.obj
 0001:0001ed10       ?Clean@?$XVECTOR@PAVDIOSTREAMUDPDATAGRAM@@@@AAEXXZ 0041fd10 f i DIOStreamUDP.obj
 0001:0001ed50       ?Clean@DIOSTREAMUDPDATAGRAM@@AAEXXZ 0041fd50 f i DIOStreamUDP.obj
 0001:0001ed80       ?DeleteAll@?$XVECTOR@PAVDIOSTREAMUDPDATAGRAM@@@@QAE_NXZ 0041fd80 f i DIOStreamUDP.obj
 0001:0001edd0       ?DeleteContents@?$XVECTOR@PAVDIOSTREAMUDPDATAGRAM@@@@QAE_NXZ 0041fdd0 f i DIOStreamUDP.obj
 0001:0001ee70       ?DeleteIndex@?$XVECTOR@PAVDIOSTREAMUDPDATAGRAM@@@@QAE_NH@Z 0041fe70 f i DIOStreamUDP.obj
 0001:0001eec0       ?Get@?$XVECTOR@PAVDIOSTREAMUDPDATAGRAM@@@@QAEPAVDIOSTREAMUDPDATAGRAM@@H@Z 0041fec0 f i DIOStreamUDP.obj
 0001:0001ef00       ?GetAddress@DIOSTREAMUDPDATAGRAM@@QAEPAVXSTRING@@XZ 0041ff00 f i DIOStreamUDP.obj
 0001:0001ef20       ?GetData@DIOSTREAMUDPDATAGRAM@@QAEPAVXBUFFER@@XZ 0041ff20 f i DIOStreamUDP.obj
 0001:0001ef40       ?GetPort@DIOSTREAMUDPDATAGRAM@@QAEGXZ 0041ff40 f i DIOStreamUDP.obj
 0001:0001ef60       ?GetSize@?$XVECTOR@PAVDIOSTREAMUDPDATAGRAM@@@@QAEIXZ 0041ff60 f i DIOStreamUDP.obj
 0001:0001ef80       ?IsEmpty@?$XVECTOR@PAVDIOSTREAMUDPDATAGRAM@@@@QAE_NXZ 0041ff80 f i DIOStreamUDP.obj
 0001:0001efb0       ?IsToSend@DIOSTREAMUDPDATAGRAM@@QAE_NXZ 0041ffb0 f i DIOStreamUDP.obj
 0001:0001efd0       ?ResizeAdd@?$XVECTOR@PAVDIOSTREAMUDPDATAGRAM@@@@AAE_NXZ 0041ffd0 f i DIOStreamUDP.obj
 0001:0001f090       ?ResizeRemove@?$XVECTOR@PAVDIOSTREAMUDPDATAGRAM@@@@AAE_NI@Z 00420090 f i DIOStreamUDP.obj
 0001:0001f100       ?SetAddress@DIOSTREAMUDPDATAGRAM@@QAE_NPA_W@Z 00420100 f i DIOStreamUDP.obj
 0001:0001f130       ?SetData@DIOSTREAMUDPDATAGRAM@@QAE_NPAEH@Z 00420130 f i DIOStreamUDP.obj
 0001:0001f170       ?SetIsToSend@DIOSTREAMUDPDATAGRAM@@QAEX_N@Z 00420170 f i DIOStreamUDP.obj
 0001:0001f190       ?SetPorts@DIOSTREAMUDPDATAGRAM@@QAEXG@Z 00420190 f i DIOStreamUDP.obj
 0001:0001f1b0       ??0DIOSTREAMUDPACKNOWLEDGE@@QAE@PAVDIOSTREAMUDPCONFIG@@@Z 004201b0 f   DIOStreamUDPAcknowledge.obj
 0001:0001f280       ??1DIOSTREAMUDPACKNOWLEDGE@@UAE@XZ 00420280 f   DIOStreamUDPAcknowledge.obj
 0001:0001f330       ?Open@DIOSTREAMUDPACKNOWLEDGE@@UAE_NXZ 00420330 f   DIOStreamUDPAcknowledge.obj
 0001:0001f460       ?Write@DIOSTREAMUDPACKNOWLEDGE@@UAEIPAEI@Z 00420460 f   DIOStreamUDPAcknowledge.obj
 0001:0001f720       ?WriteDatagram@DIOSTREAMUDPACKNOWLEDGE@@QAE_NAAVXSTRING@@GPAEH@Z 00420720 f   DIOStreamUDPAcknowledge.obj
 0001:0001f810       ?WriteDatagram@DIOSTREAMUDPACKNOWLEDGE@@QAE_NAAVXSTRING@@GAAVXBUFFER@@@Z 00420810 f   DIOStreamUDPAcknowledge.obj
 0001:0001f840       ?Disconnect@DIOSTREAMUDPACKNOWLEDGE@@UAE_NXZ 00420840 f   DIOStreamUDPAcknowledge.obj
 0001:0001f900       ?Close@DIOSTREAMUDPACKNOWLEDGE@@UAE_NXZ 00420900 f   DIOStreamUDPAcknowledge.obj
 0001:0001f9c0       ?ThreadRunFunction@DIOSTREAMUDPACKNOWLEDGE@@CAXPAX@Z 004209c0 f   DIOStreamUDPAcknowledge.obj
 0001:0001fbc0       ??_GDIOSTREAMUDPACKNOWLEDGE@@UAEPAXI@Z 00420bc0 f i DIOStreamUDPAcknowledge.obj
 0001:0001fbc0       ??_EDIOSTREAMUDPACKNOWLEDGE@@UAEPAXI@Z 00420bc0 f i DIOStreamUDPAcknowledge.obj
 0001:0001fc00       ?Clean@DIOSTREAMUDPACKNOWLEDGE@@AAEXXZ 00420c00 f i DIOStreamUDPAcknowledge.obj
 0001:0001fc50       ?GetConfig@DIOSTREAMUDPACKNOWLEDGE@@UAEPAVDIOSTREAMCONFIG@@XZ 00420c50 f i DIOStreamUDPAcknowledge.obj
 0001:0001fc70       ?GetConnectStatus@DIOSTREAMUDPACKNOWLEDGE@@UAE?AW4DIOSTREAMSTATUS@@XZ 00420c70 f i DIOStreamUDPAcknowledge.obj
 0001:0001fcb0       ?IsServer@DIOSTREAMCONFIG@@QAE_NXZ 00420cb0 f i DIOStreamUDPAcknowledge.obj
 0001:0001fce0       ?SetConfig@DIOSTREAMUDPACKNOWLEDGE@@UAE_NPAVDIOSTREAMCONFIG@@@Z 00420ce0 f i DIOStreamUDPAcknowledge.obj
 0001:0001fd00       ??0DIOSTREAMUDPCONFIG@@QAE@XZ 00420d00 f   DIOStreamUDPConfig.obj
 0001:0001fda0       ??1DIOSTREAMUDPCONFIG@@UAE@XZ 00420da0 f   DIOStreamUDPConfig.obj
 0001:0001fe30       ?GetLocalIP@DIOSTREAMUDPCONFIG@@QAEPAVDIOIP@@XZ 00420e30 f   DIOStreamUDPConfig.obj
 0001:0001fe50       ?GetRemoteURL@DIOSTREAMUDPCONFIG@@QAEPAVDIOURL@@XZ 00420e50 f   DIOStreamUDPConfig.obj
 0001:0001fe90       ?GetRemotePort@DIOSTREAMUDPCONFIG@@QAEHXZ 00420e90 f   DIOStreamUDPConfig.obj
 0001:0001feb0       ?SetRemotePort@DIOSTREAMUDPCONFIG@@QAE_NH@Z 00420eb0 f   DIOStreamUDPConfig.obj
 0001:0001fed0       ??_EDIOSTREAMUDPCONFIG@@UAEPAXI@Z 00420ed0 f i DIOStreamUDPConfig.obj
 0001:0001fed0       ??_GDIOSTREAMUDPCONFIG@@UAEPAXI@Z 00420ed0 f i DIOStreamUDPConfig.obj
 0001:0001ff00       ?Clean@DIOSTREAMUDPCONFIG@@AAEXXZ 00420f00 f i DIOStreamUDPConfig.obj
 0001:0001ff50       ??0DIOSTREAMUDPLOCALENUMSERVERS@@QAE@XZ 00420f50 f   DIOStreamUDPLocalEnumServers.obj
 0001:00020060       ??1DIOSTREAMUDPLOCALENUMSERVERS@@UAE@XZ 00421060 f   DIOStreamUDPLocalEnumServers.obj
 0001:00020140       ?Search@DIOSTREAMUDPLOCALENUMSERVERS@@UAE_NXZ 00421140 f   DIOStreamUDPLocalEnumServers.obj
 0001:00020190       ?StopSearch@DIOSTREAMUDPLOCALENUMSERVERS@@UAE_N_N@Z 00421190 f   DIOStreamUDPLocalEnumServers.obj
 0001:000201f0       ?IsDeviceAvailable@DIOSTREAMUDPLOCALENUMSERVERS@@UAE_NPA_W@Z 004211f0 f   DIOStreamUDPLocalEnumServers.obj
 0001:000202d0       ?GetDIOStreamUDPCFG@DIOSTREAMUDPLOCALENUMSERVERS@@QAEPAVDIOSTREAMUDPCONFIG@@XZ 004212d0 f   DIOStreamUDPLocalEnumServers.obj
 0001:000202f0       ?GetDIOStreamUDP@DIOSTREAMUDPLOCALENUMSERVERS@@QAEPAVDIOSTREAMUDP@@XZ 004212f0 f   DIOStreamUDPLocalEnumServers.obj
 0001:00020310       ?SendSignal@DIOSTREAMUDPLOCALENUMSERVERS@@UAE_NXZ 00421310 f   DIOStreamUDPLocalEnumServers.obj
 0001:00020560       ?GetPort@DIOSTREAMUDPLOCALENUMSERVERS@@QAEHXZ 00421560 f   DIOStreamUDPLocalEnumServers.obj
 0001:00020580       ?SetPort@DIOSTREAMUDPLOCALENUMSERVERS@@QAE_NH@Z 00421580 f   DIOStreamUDPLocalEnumServers.obj
 0001:000205a0       ?Clean@DIOSTREAMUDPLOCALENUMSERVERS@@AAEXXZ 004215a0 f   DIOStreamUDPLocalEnumServers.obj
 0001:000205e0       ?ThreadDiscoveryLocalServer@DIOSTREAMUDPLOCALENUMSERVERS@@CAXPAX@Z 004215e0 f   DIOStreamUDPLocalEnumServers.obj
 0001:00020a80       ??_EDIOSTREAMUDPLOCALENUMSERVERS@@UAEPAXI@Z 00421a80 f i DIOStreamUDPLocalEnumServers.obj
 0001:00020a80       ??_GDIOSTREAMUDPLOCALENUMSERVERS@@UAEPAXI@Z 00421a80 f i DIOStreamUDPLocalEnumServers.obj
 0001:00020ab0       ?SetBroadcastModeActive@DIOSTREAMUDPCONFIG@@QAEX_N@Z 00421ab0 f i DIOStreamUDPLocalEnumServers.obj
 0001:00020ad0       ??0DIOSTREAMUSB@@QAE@XZ    00421ad0 f   DIOStreamUSB.obj
 0001:00020af0       ??1DIOSTREAMUSB@@UAE@XZ    00421af0 f   DIOStreamUSB.obj
 0001:00020b10       ?GetConfig@DIOSTREAMUSB@@UAEPAVDIOSTREAMCONFIG@@XZ 00421b10 f   DIOStreamUSB.obj
 0001:00020b30       ?SetConfig@DIOSTREAMUSB@@UAE_NPAVDIOSTREAMCONFIG@@@Z 00421b30 f   DIOStreamUSB.obj
 0001:00020b60       ?Clean@DIOSTREAMUSB@@AAEXXZ 00421b60 f   DIOStreamUSB.obj
 0001:00020b80       ??_GDIOSTREAMUSB@@UAEPAXI@Z 00421b80 f i DIOStreamUSB.obj
 0001:00020b80       ??_EDIOSTREAMUSB@@UAEPAXI@Z 00421b80 f i DIOStreamUSB.obj
 0001:00020bb0       ?CleanBuffers@DIOSTREAMUSB@@UAE_NXZ 00421bb0 f i DIOStreamUSB.obj
 0001:00020bc0       ??0DIOSTREAMUSBCONFIG@@QAE@XZ 00421bc0 f   DIOStreamUSBConfig.obj
 0001:00020c50       ??1DIOSTREAMUSBCONFIG@@UAE@XZ 00421c50 f   DIOStreamUSBConfig.obj
 0001:00020cc0       ?GetToString@DIOSTREAMUSBCONFIG@@QAE_NPAVXSTRING@@@Z 00421cc0 f   DIOStreamUSBConfig.obj
 0001:00020d70       ?SetFromString@DIOSTREAMUSBCONFIG@@QAE_NPA_W@Z 00421d70 f   DIOStreamUSBConfig.obj
 0001:00020ef0       ??_EDIOSTREAMUSBCONFIG@@UAEPAXI@Z 00421ef0 f i DIOStreamUSBConfig.obj
 0001:00020ef0       ??_GDIOSTREAMUSBCONFIG@@UAEPAXI@Z 00421ef0 f i DIOStreamUSBConfig.obj
 0001:00020f20       ?Clean@DIOSTREAMUSBCONFIG@@AAEXXZ 00421f20 f i DIOStreamUSBConfig.obj
 0001:00020f50       ??0DIOSTREAMUSBLOCALENUMDEVICES@@QAE@XZ 00421f50 f   DIOStreamUSBLocalEnumDevices.obj
 0001:00020fb0       ??1DIOSTREAMUSBLOCALENUMDEVICES@@UAE@XZ 00421fb0 f   DIOStreamUSBLocalEnumDevices.obj
 0001:00021000       ?FindDevice@DIOSTREAMUSBLOCALENUMDEVICES@@QAEPAVDIOSTREAMDEVICEUSB@@PA_W@Z 00422000 f   DIOStreamUSBLocalEnumDevices.obj
 0001:00021090       ?FindDevice@DIOSTREAMUSBLOCALENUMDEVICES@@QAEPAVDIOSTREAMDEVICEUSB@@PA_WW4DIOSTREAMDEVICEUSBCLASS@@@Z 00422090 f   DIOStreamUSBLocalEnumDevices.obj
 0001:00021120       ?FindDevice@DIOSTREAMUSBLOCALENUMDEVICES@@QAEPAVDIOSTREAMDEVICEUSB@@II@Z 00422120 f   DIOStreamUSBLocalEnumDevices.obj
 0001:000211b0       ?FindDevice@DIOSTREAMUSBLOCALENUMDEVICES@@QAEPAVDIOSTREAMDEVICEUSB@@IIW4DIOSTREAMDEVICEUSBCLASS@@@Z 004221b0 f   DIOStreamUSBLocalEnumDevices.obj
 0001:00021240       ?FindDevice@DIOSTREAMUSBLOCALENUMDEVICES@@QAEPAVDIOSTREAMDEVICEUSB@@AAVDIOSTREAMUSBCONFIG@@@Z 00422240 f   DIOStreamUSBLocalEnumDevices.obj
 0001:000212e0       ?Clean@DIOSTREAMUSBLOCALENUMDEVICES@@AAEXXZ 004222e0 f   DIOStreamUSBLocalEnumDevices.obj
 0001:00021300       ??_EDIOSTREAMUSBLOCALENUMDEVICES@@UAEPAXI@Z 00422300 f i DIOStreamUSBLocalEnumDevices.obj
 0001:00021300       ??_GDIOSTREAMUSBLOCALENUMDEVICES@@UAEPAXI@Z 00422300 f i DIOStreamUSBLocalEnumDevices.obj
 0001:00021330       ?GetClass@DIOSTREAMDEVICEUSB@@QAE?AW4DIOSTREAMDEVICEUSBCLASS@@XZ 00422330 f i DIOStreamUSBLocalEnumDevices.obj
 0001:00021350       ?GetClass@DIOSTREAMUSBCONFIG@@QAE?AW4DIOSTREAMDEVICEUSBCLASS@@XZ 00422350 f i DIOStreamUSBLocalEnumDevices.obj
 0001:00021370       ?GetLocation@DIOSTREAMDEVICEUSB@@QAEPAVXSTRING@@XZ 00422370 f i DIOStreamUSBLocalEnumDevices.obj
 0001:00021390       ?GetLocation@DIOSTREAMUSBCONFIG@@QAEPAVXSTRING@@XZ 00422390 f i DIOStreamUSBLocalEnumDevices.obj
 0001:000213b0       ?GetProductID@DIOSTREAMDEVICEUSB@@QAEIXZ 004223b0 f i DIOStreamUSBLocalEnumDevices.obj
 0001:000213d0       ?GetProductID@DIOSTREAMUSBCONFIG@@QAEIXZ 004223d0 f i DIOStreamUSBLocalEnumDevices.obj
 0001:000213f0       ?GetVendorID@DIOSTREAMDEVICEUSB@@QAEIXZ 004223f0 f i DIOStreamUSBLocalEnumDevices.obj
 0001:00021410       ?GetVendorID@DIOSTREAMUSBCONFIG@@QAEIXZ 00422410 f i DIOStreamUSBLocalEnumDevices.obj
 0001:00021430       ?IsDeviceAvailable@DIOSTREAMUSBLOCALENUMDEVICES@@UAE_NPA_W@Z 00422430 f i DIOStreamUSBLocalEnumDevices.obj
 0001:00021440       ?IsSearching@DIOSTREAMUSBLOCALENUMDEVICES@@UAE_NXZ 00422440 f i DIOStreamUSBLocalEnumDevices.obj
 0001:00021460       ?Search@DIOSTREAMUSBLOCALENUMDEVICES@@UAE_NXZ 00422460 f i DIOStreamUSBLocalEnumDevices.obj
 0001:00021470       ?StopSearch@DIOSTREAMUSBLOCALENUMDEVICES@@UAE_N_N@Z 00422470 f i DIOStreamUSBLocalEnumDevices.obj
 0001:00021480       ??0DIOSTREAMWIFIREMOTEENUMDEVICES@@QAE@XZ 00422480 f   DIOStreamWifiRemoteEnumDevices.obj
 0001:000214e0       ??1DIOSTREAMWIFIREMOTEENUMDEVICES@@UAE@XZ 004224e0 f   DIOStreamWifiRemoteEnumDevices.obj
 0001:00021530       ?Clean@DIOSTREAMWIFIREMOTEENUMDEVICES@@AAEXXZ 00422530 f   DIOStreamWifiRemoteEnumDevices.obj
 0001:00021550       ??_GDIOSTREAMWIFIREMOTEENUMDEVICES@@UAEPAXI@Z 00422550 f i DIOStreamWifiRemoteEnumDevices.obj
 0001:00021550       ??_EDIOSTREAMWIFIREMOTEENUMDEVICES@@UAEPAXI@Z 00422550 f i DIOStreamWifiRemoteEnumDevices.obj
 0001:00021580       ?IsDeviceAvailable@DIOSTREAMWIFIREMOTEENUMDEVICES@@UAE_NPA_W@Z 00422580 f i DIOStreamWifiRemoteEnumDevices.obj
 0001:00021590       ?IsSearching@DIOSTREAMWIFIREMOTEENUMDEVICES@@UAE_NXZ 00422590 f i DIOStreamWifiRemoteEnumDevices.obj
 0001:000215a0       ?Search@DIOSTREAMWIFIREMOTEENUMDEVICES@@UAE_NXZ 004225a0 f i DIOStreamWifiRemoteEnumDevices.obj
 0001:000215b0       ?StopSearch@DIOSTREAMWIFIREMOTEENUMDEVICES@@UAE_N_N@Z 004225b0 f i DIOStreamWifiRemoteEnumDevices.obj
 0001:000215c0       ?GetHTTPServer@DIOURL@@QAE_NAAVXSTRING@@00@Z 004225c0 f   DIOURL.obj
 0001:00021750       ?GetHTTPResource@DIOURL@@QAE_NAAVXSTRING@@@Z 00422750 f   DIOURL.obj
 0001:00021870       ?IsAURLResolved@DIOURL@@QAE_NXZ 00422870 f   DIOURL.obj
 0001:000218f0       ?ResolveURL@DIOURL@@QAE_NXZ 004228f0 f   DIOURL.obj
 0001:00021990       ?ResolveURL@DIOURL@@UAE_NAAVXSTRING@@@Z 00422990 f   DIOURL.obj
 0001:000219b0       ?ResolveURL@DIOURL@@QAE_NAAVDIOIP@@@Z 004229b0 f   DIOURL.obj
 0001:00021a60       ?IsLocalAddress@DIOURL@@QAE_NXZ 00422a60 f   DIOURL.obj
 0001:00021ae0       ?Slash_Add@DIOURL@@QAE_NXZ 00422ae0 f   DIOURL.obj
 0001:00021bf0       ?Slash_Normalize@DIOURL@@QAE_NXZ 00422bf0 f   DIOURL.obj
 0001:00021c60       ?Slash_Delete@DIOURL@@QAE_NXZ 00422c60 f   DIOURL.obj
 0001:00021cb0       ?IsUnsafeChar@DIOURL@@QAE_N_W@Z 00422cb0 f   DIOURL.obj
 0001:00021d70       ?EncodeUnsafeChar@DIOURL@@QAE_N_WAAVXSTRING@@@Z 00422d70 f   DIOURL.obj
 0001:00021de0       ?EncodeUnsafeCharsFromString@DIOURL@@QAE_NAAVXSTRING@@@Z 00422de0 f   DIOURL.obj
 0001:00021f70       ?EncodeUnsafeCharsFromString@DIOURL@@QAE_NPBD@Z 00422f70 f   DIOURL.obj
 0001:00021fe0       ?EncodeUnsafeCharsFromString@DIOURL@@QAE_NPB_W@Z 00422fe0 f   DIOURL.obj
 0001:00022050       ?EncodeUnsafeCharsFromBuffer@DIOURL@@QAE_NAAVXBUFFER@@@Z 00423050 f   DIOURL.obj
 0001:000221f0       ?EncodeUnsafeChars@DIOURL@@QAE_NXZ 004231f0 f   DIOURL.obj
 0001:00022290       ?DecodeUnsafeCharsToString@DIOURL@@QAE_NAAVXSTRING@@@Z 00423290 f   DIOURL.obj
 0001:00022460       ?DecodeUnsafeChars@DIOURL@@QAE_NXZ 00423460 f   DIOURL.obj
 0001:00022510       ?Normalize@DIOURL@@QAE_NXZ 00423510 f   DIOURL.obj
 0001:00022590       ?HaveHTTPID@DIOURL@@QAE_NXZ 00423590 f   DIOURL.obj
 0001:000225c0       ?AddHTTPID@DIOURL@@QAE_NXZ 004235c0 f   DIOURL.obj
 0001:00022670       ?DeleteHTTPID@DIOURL@@QAE_NXZ 00423670 f   DIOURL.obj
 0001:00022770       ?Clean@DIOURL@@AAEXXZ      00423770 f   DIOURL.obj
 0001:00022780       ??0DIOWEBCLIENT_HEADER@@QAE@XZ 00423780 f   DIOWebClient.obj
 0001:000227e0       ??1DIOWEBCLIENT_HEADER@@UAE@XZ 004237e0 f   DIOWebClient.obj
 0001:00022840       ?GetMethod@DIOWEBCLIENT_HEADER@@QAE_NAAVXSTRING@@@Z 00423840 f   DIOWebClient.obj
 0001:00022870       ?GetResource@DIOWEBCLIENT_HEADER@@QAE_NAAVXSTRING@@@Z 00423870 f   DIOWebClient.obj
 0001:000228a0       ?GetVersion@DIOWEBCLIENT_HEADER@@QAEHXZ 004238a0 f   DIOWebClient.obj
 0001:000228e0       ?GetSubVersion@DIOWEBCLIENT_HEADER@@QAEHXZ 004238e0 f   DIOWebClient.obj
 0001:00022920       ?GetResultServer@DIOWEBCLIENT_HEADER@@QAEHXZ 00423920 f   DIOWebClient.obj
 0001:00022960       ?Clean@DIOWEBCLIENT_HEADER@@AAEXXZ 00423960 f   DIOWebClient.obj
 0001:00022970       ??0DIOWEBCLIENT@@QAE@XZ    00423970 f   DIOWebClient.obj
 0001:00022ae0       ??1DIOWEBCLIENT@@UAE@XZ    00423ae0 f   DIOWebClient.obj
 0001:00022c40       ?Get@DIOWEBCLIENT@@QAE_NAAVDIOURL@@AAVXBUFFER@@PA_WHPAVXSTRING@@@Z 00423c40 f   DIOWebClient.obj
 0001:00022c70       ?Get@DIOWEBCLIENT@@QAE_NPA_WAAVXBUFFER@@0HPAVXSTRING@@@Z 00423c70 f   DIOWebClient.obj
 0001:00022d00       ?Get@DIOWEBCLIENT@@QAE_NAAVDIOURL@@AAVXPATH@@PA_WHPAVXSTRING@@@Z 00423d00 f   DIOWebClient.obj
 0001:00022de0       ?Get@DIOWEBCLIENT@@QAE_NPA_WAAVXPATH@@0HPAVXSTRING@@@Z 00423de0 f   DIOWebClient.obj
 0001:00022e70       ?Post@DIOWEBCLIENT@@QAE_NAAVDIOURL@@AAVXBUFFER@@PAV3@PA_WHPAVXSTRING@@@Z 00423e70 f   DIOWebClient.obj
 0001:00022ea0       ?Post@DIOWEBCLIENT@@QAE_NPA_WAAVXBUFFER@@PAV2@0HPAVXSTRING@@@Z 00423ea0 f   DIOWebClient.obj
 0001:00022f30       ?Post@DIOWEBCLIENT@@QAE_NAAVDIOURL@@AAVXPATH@@PAVXBUFFER@@PA_WHPAVXSTRING@@@Z 00423f30 f   DIOWebClient.obj
 0001:00023040       ?Post@DIOWEBCLIENT@@QAE_NPA_WAAVXPATH@@PAVXBUFFER@@0HPAVXSTRING@@@Z 00424040 f   DIOWebClient.obj
 0001:000230d0       ?Post@DIOWEBCLIENT@@QAE_NAAVDIOURL@@AAVXBUFFER@@PAV3@PAVXFILE@@PA_WHPAVXSTRING@@@Z 004240d0 f   DIOWebClient.obj
 0001:00023110       ?Post@DIOWEBCLIENT@@QAE_NPA_WAAVXBUFFER@@PAV2@PAVXFILE@@0HPAVXSTRING@@@Z 00424110 f   DIOWebClient.obj
 0001:000231a0       ?Post@DIOWEBCLIENT@@QAE_NAAVDIOURL@@AAVXPATH@@PAVXBUFFER@@PAVXFILE@@PA_WHPAVXSTRING@@@Z 004241a0 f   DIOWebClient.obj
 0001:000232b0       ?Post@DIOWEBCLIENT@@QAE_NPA_WAAVXPATH@@PAVXBUFFER@@PAVXFILE@@0HPAVXSTRING@@@Z 004242b0 f   DIOWebClient.obj
 0001:00023340       ?MakeOperationBuffer@DIOWEBCLIENT@@AAE_NAAVDIOURL@@AAVXBUFFER@@PAV3@PA_WHPAVXSTRING@@@Z 00424340 f   DIOWebClient.obj
 0001:00023c80       ?MakeOperationFile@DIOWEBCLIENT@@AAE_NAAVDIOURL@@AAVXFILE@@PAVXBUFFER@@PA_WHPAVXSTRING@@@Z 00424c80 f   DIOWebClient.obj
 0001:000245d0       ?MakeOperationFile@DIOWEBCLIENT@@AAE_NAAVDIOURL@@AAVXBUFFER@@PAV3@PAVXFILE@@PA_WHPAVXSTRING@@@Z 004255d0 f   DIOWebClient.obj
 0001:00025350       ??0DIOWEBCLIENTXEVENT@@QAE@PAVXSUBJECT@@II@Z 00426350 f i DIOWebClient.obj
 0001:000253c0       ??1DIOWEBCLIENTXEVENT@@UAE@XZ 004263c0 f i DIOWebClient.obj
 0001:00025410       ??_GDIOWEBCLIENT@@UAEPAXI@Z 00426410 f i DIOWebClient.obj
 0001:00025410       ??_EDIOWEBCLIENT@@UAEPAXI@Z 00426410 f i DIOWebClient.obj
 0001:00025440       ??_EDIOWEBCLIENTXEVENT@@UAEPAXI@Z 00426440 f i DIOWebClient.obj
 0001:00025440       ??_GDIOWEBCLIENTXEVENT@@UAEPAXI@Z 00426440 f i DIOWebClient.obj
 0001:00025470       ??_EDIOWEBCLIENT_HEADER@@UAEPAXI@Z 00426470 f i DIOWebClient.obj
 0001:00025470       ??_GDIOWEBCLIENT_HEADER@@UAEPAXI@Z 00426470 f i DIOWebClient.obj
 0001:000254a0       ?Clean@DIOWEBCLIENT@@AAEXXZ 004264a0 f i DIOWebClient.obj
 0001:000254e0       ?Clean@DIOWEBCLIENTXEVENT@@AAEXXZ 004264e0 f i DIOWebClient.obj
 0001:00025500       ?Create@XFILE@@QAE_NAAVXPATH@@@Z 00426500 f i DIOWebClient.obj
 0001:00025530       ?GetPathNameFile@XFILE@@QAEPA_WXZ 00426530 f i DIOWebClient.obj
 0001:00025550       ?SetDownloadSize@DIOWEBCLIENTXEVENT@@QAEXI@Z 00426550 f i DIOWebClient.obj
 0001:00025570       ?SetEventType@XEVENT@@QAEXI@Z 00426570 f i DIOWebClient.obj
 0001:00025590       ??0DIOWEBHEADER@@QAE@XZ    00426590 f   DIOWebHeader.obj
 0001:00025600       ??1DIOWEBHEADER@@UAE@XZ    00426600 f   DIOWebHeader.obj
 0001:00025660       ?Read@DIOWEBHEADER@@QAE_NPAVDIOSTREAMTCPIP@@PAVXTIMER@@H@Z 00426660 f   DIOWebHeader.obj
 0001:000257b0       ?Write@DIOWEBHEADER@@QAE_NPAVDIOSTREAMTCPIP@@H@Z 004267b0 f   DIOWebHeader.obj
 0001:00025860       ?AddLine@DIOWEBHEADER@@QAE_NPA_W@Z 00426860 f   DIOWebHeader.obj
 0001:00025910       ?AddLine@DIOWEBHEADER@@QAE_NAAVXSTRING@@@Z 00426910 f   DIOWebHeader.obj
 0001:00025930       ?GetLines@DIOWEBHEADER@@QAEPAV?$XVECTOR@PAVXSTRING@@@@XZ 00426930 f   DIOWebHeader.obj
 0001:00025950       ?GetFieldValue@DIOWEBHEADER@@QAEPA_WPA_W@Z 00426950 f   DIOWebHeader.obj
 0001:000259e0       ?GetFieldValue@DIOWEBHEADER@@QAEPA_WAAVXSTRING@@@Z 004269e0 f   DIOWebHeader.obj
 0001:00025a00       ?DeleteAllLines@DIOWEBHEADER@@QAE_NXZ 00426a00 f   DIOWebHeader.obj
 0001:00025a40       ?GetFormat@DIOWEBHEADER@@IAE_N_NHPAX@Z 00426a40 f   DIOWebHeader.obj
 0001:00025c90       ??0?$XVECTOR@PAVXSTRING@@@@QAE@XZ 00426c90 f i DIOWebHeader.obj
 0001:00025cb0       ??1?$XVECTOR@PAVXSTRING@@@@UAE@XZ 00426cb0 f i DIOWebHeader.obj
 0001:00025d00       ??_G?$XVECTOR@PAVXSTRING@@@@UAEPAXI@Z 00426d00 f i DIOWebHeader.obj
 0001:00025d00       ??_E?$XVECTOR@PAVXSTRING@@@@UAEPAXI@Z 00426d00 f i DIOWebHeader.obj
 0001:00025d30       ??_GDIOWEBHEADER@@UAEPAXI@Z 00426d30 f i DIOWebHeader.obj
 0001:00025d30       ??_EDIOWEBHEADER@@UAEPAXI@Z 00426d30 f i DIOWebHeader.obj
 0001:00025d60       ?Add@?$XVECTOR@PAVXSTRING@@@@QAE_NPAVXSTRING@@@Z 00426d60 f i DIOWebHeader.obj
 0001:00025df0       ?Clean@?$XVECTOR@PAVXSTRING@@@@AAEXXZ 00426df0 f i DIOWebHeader.obj
 0001:00025e30       ?Clean@DIOWEBHEADER@@AAEXXZ 00426e30 f i DIOWebHeader.obj
 0001:00025e40       ?DeleteAll@?$XVECTOR@PAVXSTRING@@@@QAE_NXZ 00426e40 f i DIOWebHeader.obj
 0001:00025e90       ?DeleteContents@?$XVECTOR@PAVXSTRING@@@@QAE_NXZ 00426e90 f i DIOWebHeader.obj
 0001:00025f30       ?Get@?$XVECTOR@PAVXSTRING@@@@QAEPAVXSTRING@@H@Z 00426f30 f i DIOWebHeader.obj
 0001:00025f70       ?GetSize@?$XVECTOR@PAVXSTRING@@@@QAEIXZ 00426f70 f i DIOWebHeader.obj
 0001:00025f90       ?IsEmpty@?$XVECTOR@PAVXSTRING@@@@QAE_NXZ 00426f90 f i DIOWebHeader.obj
 0001:00025fc0       ?ResizeAdd@?$XVECTOR@PAVXSTRING@@@@AAE_NXZ 00426fc0 f i DIOWebHeader.obj
 0001:00026080       ??0DIOWEBSCRAPER@@QAE@XZ   00427080 f   DIOWebScraper.obj
 0001:000261e0       ??1DIOWEBSCRAPER@@UAE@XZ   004271e0 f   DIOWebScraper.obj
 0001:00026340       ?Load@DIOWEBSCRAPER@@QAE_NPA_W@Z 00427340 f   DIOWebScraper.obj
 0001:000264b0       ?Load@DIOWEBSCRAPER@@QAE_NAAVXPATH@@@Z 004274b0 f   DIOWebScraper.obj
 0001:000264d0       ?Do@DIOWEBSCRAPER@@QAE_NPA_WHPAVXSTRING@@@Z 004274d0 f   DIOWebScraper.obj
 0001:00026c80       ?Do@DIOWEBSCRAPER@@QAE_NAAVXSTRING@@HPAV2@@Z 00427c80 f   DIOWebScraper.obj
 0001:00026cb0       ?ChangeURL@DIOWEBSCRAPER@@UAE_NPA_WAAVDIOURL@@@Z 00427cb0 f   DIOWebScraper.obj
 0001:00026ce0       ?AddValue@DIOWEBSCRAPER@@QAE_NPA_W0@Z 00427ce0 f   DIOWebScraper.obj
 0001:00026e30       ?AddValue@DIOWEBSCRAPER@@QAE_NPA_WAAVXSTRING@@@Z 00427e30 f   DIOWebScraper.obj
 0001:00026e60       ?AddValue@DIOWEBSCRAPER@@QAE_NAAVXSTRING@@PA_W@Z 00427e60 f   DIOWebScraper.obj
 0001:00026e90       ?AddValue@DIOWEBSCRAPER@@QAE_NAAVXSTRING@@0@Z 00427e90 f   DIOWebScraper.obj
 0001:00026ec0       ?GetValue@DIOWEBSCRAPER@@QAEPA_WPA_W@Z 00427ec0 f   DIOWebScraper.obj
 0001:00026f50       ?GetValue@DIOWEBSCRAPER@@QAEPA_WAAVXSTRING@@@Z 00427f50 f   DIOWebScraper.obj
 0001:00026f70       ?DeleteAllValues@DIOWEBSCRAPER@@QAE_NXZ 00427f70 f   DIOWebScraper.obj
 0001:00026fc0       ?GetWebClient@DIOWEBSCRAPER@@QAEPAVDIOWEBCLIENT@@XZ 00427fc0 f   DIOWebScraper.obj
 0001:00026fe0       ?ExtractString@DIOWEBSCRAPER@@QAE_NPA_W0PAVXBUFFER@@_NAAVXSTRING@@@Z 00427fe0 f   DIOWebScraper.obj
 0001:000270a0       ?ExtractString@DIOWEBSCRAPER@@QAE_NPA_WAAVXSTRING@@PAVXBUFFER@@_N1@Z 004280a0 f   DIOWebScraper.obj
 0001:00027130       ?ExtractString@DIOWEBSCRAPER@@QAE_NAAVXSTRING@@PA_WPAVXBUFFER@@_N0@Z 00428130 f   DIOWebScraper.obj
 0001:000271c0       ?ExtractString@DIOWEBSCRAPER@@QAE_NAAVXSTRING@@0PAVXBUFFER@@_N0@Z 004281c0 f   DIOWebScraper.obj
 0001:00027380       ?HandleEvent@DIOWEBSCRAPER@@AAEXPAVXEVENT@@@Z 00428380 f   DIOWebScraper.obj
 0001:00027390       ??0?$XMAP@PAVXSTRING@@PAV1@@@QAE@XZ 00428390 f i DIOWebScraper.obj
 0001:00027410       ??1?$XMAP@PAVXSTRING@@PAV1@@@UAE@XZ 00428410 f i DIOWebScraper.obj
 0001:00027440       ??4XSTRING@@QAEXAAVXBUFFER@@@Z 00428440 f i DIOWebScraper.obj
 0001:00027460       ??YXPATH@@QAEXPB_W@Z       00428460 f i DIOWebScraper.obj
 0001:00027480       ??_E?$XMAP@PAVXSTRING@@PAV1@@@UAEPAXI@Z 00428480 f i DIOWebScraper.obj
 0001:00027480       ??_G?$XMAP@PAVXSTRING@@PAV1@@@UAEPAXI@Z 00428480 f i DIOWebScraper.obj
 0001:000274b0       ??_EDIOWEBSCRAPER@@UAEPAXI@Z 004284b0 f i DIOWebScraper.obj
 0001:000274b0       ??_GDIOWEBSCRAPER@@UAEPAXI@Z 004284b0 f i DIOWebScraper.obj
 0001:000274e0       ?Add@?$XMAP@PAVXSTRING@@PAV1@@@QAE_NPAVXSTRING@@0@Z 004284e0 f i DIOWebScraper.obj
 0001:00027540       ?Clean@DIOWEBSCRAPER@@AAEXXZ 00428540 f i DIOWebScraper.obj
 0001:00027570       ?Delete@?$XVECTOR@PAVXSTRING@@@@QAE_NPAVXSTRING@@@Z 00428570 f i DIOWebScraper.obj
 0001:000275e0       ?DeleteAll@?$XMAP@PAVXSTRING@@PAV1@@@QAE_NXZ 004285e0 f i DIOWebScraper.obj
 0001:00027610       ?DeleteElementContents@?$XMAP@PAVXSTRING@@PAV1@@@QAE_NXZ 00428610 f i DIOWebScraper.obj
 0001:00027630       ?DeleteKeyContents@?$XMAP@PAVXSTRING@@PAV1@@@QAE_NXZ 00428630 f i DIOWebScraper.obj
 0001:00027650       ?GetElement@?$XMAP@PAVXSTRING@@PAV1@@@QAEPAVXSTRING@@H@Z 00428650 f i DIOWebScraper.obj
 0001:00027670       ?GetInstance@XPATHSMANAGER@@SAAAV1@XZ 00428670 f i DIOWebScraper.obj
 0001:00027700       ?GetKey@?$XMAP@PAVXSTRING@@PAV1@@@QAEPAVXSTRING@@H@Z 00428700 f i DIOWebScraper.obj
 0001:00027720       ?GetSize@?$XMAP@PAVXSTRING@@PAV1@@@QAEIXZ 00428720 f i DIOWebScraper.obj
 0001:00027740       ?IsEmpty@?$XMAP@PAVXSTRING@@PAV1@@@QAE_NXZ 00428740 f i DIOWebScraper.obj
 0001:00027770       ?ResizeRemove@?$XVECTOR@PAVXSTRING@@@@AAE_NI@Z 00428770 f i DIOWebScraper.obj
 0001:000277e0       ?SetIsMulti@?$XMAP@PAVXSTRING@@PAV1@@@QAEX_N@Z 004287e0 f i DIOWebScraper.obj
 0001:00027810       ?SetIsMulti@?$XVECTOR@PAVXSTRING@@@@QAEX_N@Z 00428810 f i DIOWebScraper.obj
 0001:00027830       ??0DIOWEBSCRAPERCACHE@@QAE@XZ 00428830 f   DIOWebScraperCache.obj
 0001:000278b0       ??1DIOWEBSCRAPERCACHE@@UAE@XZ 004288b0 f   DIOWebScraperCache.obj
 0001:00027920       ?Add@DIOWEBSCRAPERCACHE@@QAE_NAAVXSTRING@@PAVDIOWEBSCRAPERCACHERESULT@@@Z 00428920 f   DIOWebScraperCache.obj
 0001:00027a90       ?Get@DIOWEBSCRAPERCACHE@@QAEPAVDIOWEBSCRAPERCACHERESULT@@AAVXSTRING@@@Z 00428a90 f   DIOWebScraperCache.obj
 0001:00027b70       ?DeleteAll@DIOWEBSCRAPERCACHE@@QAE_NXZ 00428b70 f   DIOWebScraperCache.obj
 0001:00027bf0       ??0?$XMAP@PAVXSTRING@@PAVDIOWEBSCRAPERCACHERESULT@@@@QAE@XZ 00428bf0 f i DIOWebScraperCache.obj
 0001:00027c70       ??0?$XVECTOR@PAVDIOWEBSCRAPERCACHERESULT@@@@QAE@XZ 00428c70 f i DIOWebScraperCache.obj
 0001:00027c90       ??1?$XMAP@PAVXSTRING@@PAVDIOWEBSCRAPERCACHERESULT@@@@UAE@XZ 00428c90 f i DIOWebScraperCache.obj
 0001:00027cc0       ??1?$XVECTOR@PAVDIOWEBSCRAPERCACHERESULT@@@@UAE@XZ 00428cc0 f i DIOWebScraperCache.obj
 0001:00027d10       ??_G?$XMAP@PAVXSTRING@@PAVDIOWEBSCRAPERCACHERESULT@@@@UAEPAXI@Z 00428d10 f i DIOWebScraperCache.obj
 0001:00027d10       ??_E?$XMAP@PAVXSTRING@@PAVDIOWEBSCRAPERCACHERESULT@@@@UAEPAXI@Z 00428d10 f i DIOWebScraperCache.obj
 0001:00027d40       ??_G?$XVECTOR@PAVDIOWEBSCRAPERCACHERESULT@@@@UAEPAXI@Z 00428d40 f i DIOWebScraperCache.obj
 0001:00027d40       ??_E?$XVECTOR@PAVDIOWEBSCRAPERCACHERESULT@@@@UAEPAXI@Z 00428d40 f i DIOWebScraperCache.obj
 0001:00027d70       ??_EDIOWEBSCRAPERCACHE@@UAEPAXI@Z 00428d70 f i DIOWebScraperCache.obj
 0001:00027d70       ??_GDIOWEBSCRAPERCACHE@@UAEPAXI@Z 00428d70 f i DIOWebScraperCache.obj
 0001:00027da0       ?Add@?$XMAP@PAVXSTRING@@PAVDIOWEBSCRAPERCACHERESULT@@@@QAE_NPAVXSTRING@@PAVDIOWEBSCRAPERCACHERESULT@@@Z 00428da0 f i DIOWebScraperCache.obj
 0001:00027e00       ?Add@?$XVECTOR@PAVDIOWEBSCRAPERCACHERESULT@@@@QAE_NPAVDIOWEBSCRAPERCACHERESULT@@@Z 00428e00 f i DIOWebScraperCache.obj
 0001:00027e90       ?Clean@?$XVECTOR@PAVDIOWEBSCRAPERCACHERESULT@@@@AAEXXZ 00428e90 f i DIOWebScraperCache.obj
 0001:00027ed0       ?Clean@DIOWEBSCRAPERCACHE@@AAEXXZ 00428ed0 f i DIOWebScraperCache.obj
 0001:00027ef0       ?DeleteAll@?$XMAP@PAVXSTRING@@PAVDIOWEBSCRAPERCACHERESULT@@@@QAE_NXZ 00428ef0 f i DIOWebScraperCache.obj
 0001:00027f20       ?DeleteAll@?$XVECTOR@PAVDIOWEBSCRAPERCACHERESULT@@@@QAE_NXZ 00428f20 f i DIOWebScraperCache.obj
 0001:00027f70       ?DeleteContents@?$XVECTOR@PAVDIOWEBSCRAPERCACHERESULT@@@@QAE_NXZ 00428f70 f i DIOWebScraperCache.obj
 0001:00028010       ?DeleteElementContents@?$XMAP@PAVXSTRING@@PAVDIOWEBSCRAPERCACHERESULT@@@@QAE_NXZ 00429010 f i DIOWebScraperCache.obj
 0001:00028030       ?DeleteKeyContents@?$XMAP@PAVXSTRING@@PAVDIOWEBSCRAPERCACHERESULT@@@@QAE_NXZ 00429030 f i DIOWebScraperCache.obj
 0001:00028050       ?Get@?$XVECTOR@PAVDIOWEBSCRAPERCACHERESULT@@@@QAEPAVDIOWEBSCRAPERCACHERESULT@@H@Z 00429050 f i DIOWebScraperCache.obj
 0001:00028090       ?GetElement@?$XMAP@PAVXSTRING@@PAVDIOWEBSCRAPERCACHERESULT@@@@QAEPAVDIOWEBSCRAPERCACHERESULT@@H@Z 00429090 f i DIOWebScraperCache.obj
 0001:000280b0       ?GetKey@?$XMAP@PAVXSTRING@@PAVDIOWEBSCRAPERCACHERESULT@@@@QAEPAVXSTRING@@H@Z 004290b0 f i DIOWebScraperCache.obj
 0001:000280d0       ?GetSize@?$XMAP@PAVXSTRING@@PAVDIOWEBSCRAPERCACHERESULT@@@@QAEIXZ 004290d0 f i DIOWebScraperCache.obj
 0001:000280f0       ?IsEmpty@?$XMAP@PAVXSTRING@@PAVDIOWEBSCRAPERCACHERESULT@@@@QAE_NXZ 004290f0 f i DIOWebScraperCache.obj
 0001:00028120       ?ResizeAdd@?$XVECTOR@PAVDIOWEBSCRAPERCACHERESULT@@@@AAE_NXZ 00429120 f i DIOWebScraperCache.obj
 0001:000281e0       ?SetIsMulti@?$XMAP@PAVXSTRING@@PAVDIOWEBSCRAPERCACHERESULT@@@@QAEX_N@Z 004291e0 f i DIOWebScraperCache.obj
 0001:00028210       ?SetIsMulti@?$XVECTOR@PAVDIOWEBSCRAPERCACHERESULT@@@@QAEX_N@Z 00429210 f i DIOWebScraperCache.obj
 0001:00028230       ??0DIOPUBLICIP@@QAE@XZ     00429230 f   DIOWebScraperPublicIP.obj
 0001:000282a0       ??1DIOPUBLICIP@@UAE@XZ     004292a0 f   DIOWebScraperPublicIP.obj
 0001:00028300       ?Get@DIOPUBLICIP@@QAEPAVDIOIP@@XZ 00429300 f   DIOWebScraperPublicIP.obj
 0001:00028320       ?Clean@DIOPUBLICIP@@AAEXXZ 00429320 f   DIOWebScraperPublicIP.obj
 0001:00028330       ??0DIOWEBSCRAPERPUBLICIP@@QAE@XZ 00429330 f   DIOWebScraperPublicIP.obj
 0001:000283a0       ??1DIOWEBSCRAPERPUBLICIP@@UAE@XZ 004293a0 f   DIOWebScraperPublicIP.obj
 0001:00028400       ?Get@DIOWEBSCRAPERPUBLICIP@@QAE_NAAVDIOIP@@HPAVXSTRING@@_N@Z 00429400 f   DIOWebScraperPublicIP.obj
 0001:00028660       ?Clean@DIOWEBSCRAPERPUBLICIP@@AAEXXZ 00429660 f   DIOWebScraperPublicIP.obj
 0001:00028670       ??0DIOWEBSCRAPERCACHERESULT@@QAE@XZ 00429670 f i DIOWebScraperPublicIP.obj
 0001:00028690       ??1DIOWEBSCRAPERCACHERESULT@@UAE@XZ 00429690 f i DIOWebScraperPublicIP.obj
 0001:000286b0       ??_EDIOPUBLICIP@@UAEPAXI@Z 004296b0 f i DIOWebScraperPublicIP.obj
 0001:000286b0       ??_GDIOPUBLICIP@@UAEPAXI@Z 004296b0 f i DIOWebScraperPublicIP.obj
 0001:000286e0       ??_EDIOWEBSCRAPERCACHERESULT@@UAEPAXI@Z 004296e0 f i DIOWebScraperPublicIP.obj
 0001:000286e0       ??_GDIOWEBSCRAPERCACHERESULT@@UAEPAXI@Z 004296e0 f i DIOWebScraperPublicIP.obj
 0001:00028710       ??_GDIOWEBSCRAPERPUBLICIP@@UAEPAXI@Z 00429710 f i DIOWebScraperPublicIP.obj
 0001:00028710       ??_EDIOWEBSCRAPERPUBLICIP@@UAEPAXI@Z 00429710 f i DIOWebScraperPublicIP.obj
 0001:00028740       ?CopyFrom@DIOWEBSCRAPERCACHERESULT@@UAE_NPAV1@@Z 00429740 f i DIOWebScraperPublicIP.obj
 0001:00028750       ?CopyTo@DIOWEBSCRAPERCACHERESULT@@UAE_NPAV1@@Z 00429750 f i DIOWebScraperPublicIP.obj
 0001:00028760       ??0DIOI2CPWMCONTROLERPCA9685@@QAE@XZ 00429760 f   DIOI2CPWMControlerPCA9685.obj
 0001:000287c0       ??1DIOI2CPWMCONTROLERPCA9685@@UAE@XZ 004297c0 f   DIOI2CPWMControlerPCA9685.obj
 0001:00028820       ?Reset@DIOI2CPWMCONTROLERPCA9685@@QAE_NXZ 00429820 f   DIOI2CPWMControlerPCA9685.obj
 0001:00028840       ?SetPWMFrequency@DIOI2CPWMCONTROLERPCA9685@@QAE_NM@Z 00429840 f   DIOI2CPWMControlerPCA9685.obj
 0001:000289e0       ?SetPWM@DIOI2CPWMCONTROLERPCA9685@@QAE_NEGG_N@Z 004299e0 f   DIOI2CPWMControlerPCA9685.obj
 0001:00028ac0       ?End@DIOI2CPWMCONTROLERPCA9685@@UAE_NXZ 00429ac0 f   DIOI2CPWMControlerPCA9685.obj
 0001:00028ba0       ?ReadCommand@DIOI2CPWMCONTROLERPCA9685@@QAE_NEAAE@Z 00429ba0 f   DIOI2CPWMControlerPCA9685.obj
 0001:00028c70       ?SendCommand@DIOI2CPWMCONTROLERPCA9685@@QAE_NEE_N@Z 00429c70 f   DIOI2CPWMControlerPCA9685.obj
 0001:00028d50       ?GetDIOStream@DIOI2CPWMCONTROLERPCA9685@@QAEPAVDIOSTREAMI2C@@XZ 00429d50 f   DIOI2CPWMControlerPCA9685.obj
 0001:00028d70       ?IniDevice@DIOI2CPWMCONTROLERPCA9685@@EAE_NXZ 00429d70 f   DIOI2CPWMControlerPCA9685.obj
 0001:00028e00       ??0DIODEVICE@@QAE@XZ       00429e00 f i DIOI2CPWMControlerPCA9685.obj
 0001:00028e20       ??0DIODEVICEI2C@@QAE@XZ    00429e20 f i DIOI2CPWMControlerPCA9685.obj
 0001:00028ea0       ??1DIODEVICE@@UAE@XZ       00429ea0 f i DIOI2CPWMControlerPCA9685.obj
 0001:00028ef0       ??1DIODEVICEI2C@@UAE@XZ    00429ef0 f i DIOI2CPWMControlerPCA9685.obj
 0001:00028fa0       ??_EDIODEVICE@@UAEPAXI@Z   00429fa0 f i DIOI2CPWMControlerPCA9685.obj
 0001:00028fa0       ??_GDIODEVICE@@UAEPAXI@Z   00429fa0 f i DIOI2CPWMControlerPCA9685.obj
 0001:00028fd0       ??_GDIODEVICEI2C@@UAEPAXI@Z 00429fd0 f i DIOI2CPWMControlerPCA9685.obj
 0001:00028fd0       ??_EDIODEVICEI2C@@UAEPAXI@Z 00429fd0 f i DIOI2CPWMControlerPCA9685.obj
 0001:00029000       ??_EDIOI2CPWMCONTROLERPCA9685@@UAEPAXI@Z 0042a000 f i DIOI2CPWMControlerPCA9685.obj
 0001:00029000       ??_GDIOI2CPWMCONTROLERPCA9685@@UAEPAXI@Z 0042a000 f i DIOI2CPWMControlerPCA9685.obj
 0001:00029030       ?Clean@DIODEVICE@@AAEXXZ   0042a030 f i DIOI2CPWMControlerPCA9685.obj
 0001:00029050       ?Clean@DIODEVICEI2C@@AAEXXZ 0042a050 f i DIOI2CPWMControlerPCA9685.obj
 0001:00029080       ?Clean@DIOI2CPWMCONTROLERPCA9685@@AAEXXZ 0042a080 f i DIOI2CPWMControlerPCA9685.obj
 0001:000290a0       ?End@DIODEVICE@@UAE_NXZ    0042a0a0 f i DIOI2CPWMControlerPCA9685.obj
 0001:000290c0       ?Ini@DIODEVICE@@UAE_NXZ    0042a0c0 f i DIOI2CPWMControlerPCA9685.obj
 0001:000290e0       ?IsInitialized@DIODEVICE@@QAE_NXZ 0042a0e0 f i DIOI2CPWMControlerPCA9685.obj
 0001:00029100       ??0FILE@FBX@@QAE@XZ        0042a100 f   FBX.obj
 0001:000291d0       ??1FILE@FBX@@UAE@XZ        0042a1d0 f   FBX.obj
 0001:00029270       ?Load@FILE@FBX@@UAEPAVGRPOBJECT@@PA_W@Z 0042a270 f   FBX.obj
 0001:000293f0       ?ParseDataBlocks@FILE@FBX@@MAEXXZ 0042a3f0 f   FBX.obj
 0001:00029490       ?ReadLine@FILE@FBX@@MAE_NXZ 0042a490 f   FBX.obj
 0001:000294a0       ?ReadWord@FILE@FBX@@MAE_NAAVXSTRING@@@Z 0042a4a0 f   FBX.obj
 0001:00029560       ?SkipBlock@FILE@FBX@@MAE_NXZ 0042a560 f   FBX.obj
 0001:000295f0       ?SkipLine@FILE@FBX@@MAEIXZ 0042a5f0 f   FBX.obj
 0001:00029600       ?Clean@FILE@FBX@@AAEXXZ    0042a600 f   FBX.obj
 0001:00029620       ??_EFILE@FBX@@UAEPAXI@Z    0042a620 f i FBX.obj
 0001:00029620       ??_GFILE@FBX@@UAEPAXI@Z    0042a620 f i FBX.obj
 0001:00029660       _glewInit@0                0042a660 f   glew.obj
 0001:00029680       _glewIsSupported@4         0042a680 f   glew.obj
 0001:0002ff10       _glewGetExtension@4        00430f10 f   glew.obj
 0001:0002ff60       _glewGetErrorString@4      00430f60 f   glew.obj
 0001:0002ffa0       _glewGetString@4           00430fa0 f   glew.obj
 0001:0002ffe0       _wglewInit@0               00430fe0 f   glew.obj
 0001:00030e30       _wglewIsSupported@4        00431e30 f   glew.obj
 0001:00031910       _wglewGetExtension@4       00432910 f   glew.obj
 0001:0005ebd0       ?PointRectangle@@YA_NMMMMMM@Z 0045fbd0 f   GRP2DCollisionDetection.obj
 0001:0005ec70       ??1GRPANIMATIONCURVE@@UAE@XZ 0045fc70 f   GRPAnimation.obj
 0001:0005ed90       ?Init@GRPANIMATIONCURVE@@QAEXXZ 0045fd90 f   GRPAnimation.obj
 0001:0005f850       ?GetAttribute@GRPANIMATIONCURVE@@QAE_K_KPA_K@Z 00460850 f   GRPAnimation.obj
 0001:0005f950       ?Update@GRPANIMATIONCURVE@@QAE_N_J@Z 00460950 f   GRPAnimation.obj
 0001:0005fe40       ?UpdateAsLinear@GRPANIMATIONCURVE@@QAEX_JI@Z 00460e40 f   GRPAnimation.obj
 0001:0005fed0       ?UpdateAsCubic@GRPANIMATIONCURVE@@QAEX_JI@Z 00460ed0 f   GRPAnimation.obj
 0001:0005ffb0       ??0GRPANIMATIONNODE@@QAE@XZ 00460fb0 f   GRPAnimation.obj
 0001:000600d0       ??1GRPANIMATIONNODE@@UAE@XZ 004610d0 f   GRPAnimation.obj
 0001:000601b0       ?GetType@GRPANIMATIONNODE@@QAE?AW4GRPANIMATIONCURVETYPE@@XZ 004611b0 f   GRPAnimation.obj
 0001:000601d0       ?SetType@GRPANIMATIONNODE@@QAEXW4GRPANIMATIONCURVETYPE@@@Z 004611d0 f   GRPAnimation.obj
 0001:000601f0       ?GetCurves@GRPANIMATIONNODE@@QAEPAV?$XVECTOR@PAVGRPANIMATIONCURVE@@@@XZ 004611f0 f   GRPAnimation.obj
 0001:00060210       ?GetTarget@GRPANIMATIONNODE@@QAEPAVGRPINTERFACEANIMABLE@@XZ 00461210 f   GRPAnimation.obj
 0001:00060230       ?SetTarget@GRPANIMATIONNODE@@QAEXPAVGRPINTERFACEANIMABLE@@@Z 00461230 f   GRPAnimation.obj
 0001:00060250       ?GetTargetTag@GRPANIMATIONNODE@@QAE_KXZ 00461250 f   GRPAnimation.obj
 0001:00060270       ?SetTargetTag@GRPANIMATIONNODE@@QAEX_K@Z 00461270 f   GRPAnimation.obj
 0001:00060290       ?GetTargetName@GRPANIMATIONNODE@@QAEPAVXSTRING@@XZ 00461290 f   GRPAnimation.obj
 0001:000602b0       ?SetTargetName@GRPANIMATIONNODE@@QAEXPA_W@Z 004612b0 f   GRPAnimation.obj
 0001:000602d0       ?GetDefaultValues@GRPANIMATIONNODE@@QAEPAV?$XMAP@IM@@XZ 004612d0 f   GRPAnimation.obj
 0001:000602f0       ?SetLayer@GRPANIMATIONNODE@@QAEXPAVGRPANIMATIONLAYER@@@Z 004612f0 f   GRPAnimation.obj
 0001:00060310       ?GetLayer@GRPANIMATIONNODE@@QAEPAVGRPANIMATIONLAYER@@XZ 00461310 f   GRPAnimation.obj
 0001:00060330       ?GetCurveConnections@GRPANIMATIONNODE@@QAEPAV?$XMAP@IPAVGRPANIMATIONCURVE@@@@XZ 00461330 f   GRPAnimation.obj
 0001:00060350       ?GetOffsets@GRPANIMATIONNODE@@QAEPAV?$XMAP@IM@@XZ 00461350 f   GRPAnimation.obj
 0001:00060370       ?Update@GRPANIMATIONNODE@@QAEX_J@Z 00461370 f   GRPAnimation.obj
 0001:00060580       ?AddConnection@GRPANIMATIONNODE@@QAE_NW4GRPANIMATIONCURVEAXIS@@PAVGRPANIMATIONCURVE@@@Z 00461580 f   GRPAnimation.obj
 0001:000605c0       ?AttachTo@GRPANIMATIONNODE@@QAE_NPA_WPAVGRPINTERFACEANIMABLE@@@Z 004615c0 f   GRPAnimation.obj
 0001:00060730       ?GetMinTime@GRPANIMATIONNODE@@QAE_JXZ 00461730 f   GRPAnimation.obj
 0001:00060750       ?GetMaxTime@GRPANIMATIONNODE@@QAE_JXZ 00461750 f   GRPAnimation.obj
 0001:00060770       ?SetMinTime@GRPANIMATIONNODE@@QAEX_J@Z 00461770 f   GRPAnimation.obj
 0001:000607a0       ?SetMaxTime@GRPANIMATIONNODE@@QAEX_J@Z 004617a0 f   GRPAnimation.obj
 0001:000607d0       ??0GRPANIMATIONLAYER@@QAE@XZ 004617d0 f   GRPAnimation.obj
 0001:000608d0       ??1GRPANIMATIONLAYER@@UAE@XZ 004618d0 f   GRPAnimation.obj
 0001:00060960       ?GetStatus@GRPANIMATIONLAYER@@QAEIXZ 00461960 f   GRPAnimation.obj
 0001:00060980       ?GetIsFinished@GRPANIMATIONLAYER@@QAE_NXZ 00461980 f   GRPAnimation.obj
 0001:000609d0       ?SetMaxTime@GRPANIMATIONLAYER@@QAEX_J@Z 004619d0 f   GRPAnimation.obj
 0001:000609f0       ?SetMinTime@GRPANIMATIONLAYER@@QAEX_J@Z 004619f0 f   GRPAnimation.obj
 0001:00060a10       ?IsSync@GRPANIMATIONLAYER@@QAE_NXZ 00461a10 f   GRPAnimation.obj
 0001:00060a30       ?SetSync@GRPANIMATIONLAYER@@QAEX_N@Z 00461a30 f   GRPAnimation.obj
 0001:00060a50       ?IsActive@GRPANIMATIONLAYER@@QAE_NXZ 00461a50 f   GRPAnimation.obj
 0001:00060a70       ?SetActive@GRPANIMATIONLAYER@@QAEX_N@Z 00461a70 f   GRPAnimation.obj
 0001:00060a90       ?IsFinished@GRPANIMATIONLAYER@@QAE_NXZ 00461a90 f   GRPAnimation.obj
 0001:00060ab0       ?SetIsFinished@GRPANIMATIONLAYER@@QAEX_N@Z 00461ab0 f   GRPAnimation.obj
 0001:00060ad0       ?GetSpeedMultiplier@GRPANIMATIONLAYER@@QAEMXZ 00461ad0 f   GRPAnimation.obj
 0001:00060af0       ?SetSpeedMultiplier@GRPANIMATIONLAYER@@QAEXM@Z 00461af0 f   GRPAnimation.obj
 0001:00060b10       ?SetLoopMode@GRPANIMATIONLAYER@@QAEXW4GRPANIMATIONLOOPMODE@@@Z 00461b10 f   GRPAnimation.obj
 0001:00060b30       ?GetLoopMode@GRPANIMATIONLAYER@@QAE?AW4GRPANIMATIONLOOPMODE@@XZ 00461b30 f   GRPAnimation.obj
 0001:00060b50       ?Stop@GRPANIMATIONLAYER@@QAEXXZ 00461b50 f   GRPAnimation.obj
 0001:00060b70       ?Play@GRPANIMATIONLAYER@@QAEXXZ 00461b70 f   GRPAnimation.obj
 0001:00060b90       ?Pause@GRPANIMATIONLAYER@@QAEXXZ 00461b90 f   GRPAnimation.obj
 0001:00060bc0       ?Rewind@GRPANIMATIONLAYER@@QAEXXZ 00461bc0 f   GRPAnimation.obj
 0001:00060d40       ?Forward@GRPANIMATIONLAYER@@QAEXXZ 00461d40 f   GRPAnimation.obj
 0001:00060d80       ?Reverse@GRPANIMATIONLAYER@@QAEXXZ 00461d80 f   GRPAnimation.obj
 0001:00060db0       ?Update@GRPANIMATIONLAYER@@QAEX_J@Z 00461db0 f   GRPAnimation.obj
 0001:00061110       ?AddAnimationNode@GRPANIMATIONLAYER@@QAEXPAVGRPANIMATIONNODE@@@Z 00462110 f   GRPAnimation.obj
 0001:00061140       ?AddCurve@GRPANIMATIONLAYER@@QAEXPAVGRPANIMATIONCURVE@@@Z 00462140 f   GRPAnimation.obj
 0001:00061200       ?GetCurves@GRPANIMATIONLAYER@@QAEPAV?$XVECTOR@PAVGRPANIMATIONCURVE@@@@XZ 00462200 f   GRPAnimation.obj
 0001:00061220       ?GetAnimationNodes@GRPANIMATIONLAYER@@QAEPAV?$XVECTOR@PAVGRPANIMATIONNODE@@@@XZ 00462220 f   GRPAnimation.obj
 0001:00061240       ?SetAnimationNodes@GRPANIMATIONLAYER@@QAEXV?$XVECTOR@PAVGRPANIMATIONNODE@@@@@Z 00462240 f   GRPAnimation.obj
 0001:00061270       ?SetFrame@GRPANIMATIONLAYER@@QAEX_J@Z 00462270 f   GRPAnimation.obj
 0001:000613f0       ?GetFrame@GRPANIMATIONLAYER@@QAE_JXZ 004623f0 f   GRPAnimation.obj
 0001:00061420       ?SetStack@GRPANIMATIONLAYER@@QAE_NPAVGRPANIMATIONSTACK@@@Z 00462420 f   GRPAnimation.obj
 0001:00061450       ?GetStack@GRPANIMATIONLAYER@@QAEPAVGRPANIMATIONSTACK@@XZ 00462450 f   GRPAnimation.obj
 0001:00061470       ?SetStatus@GRPANIMATIONLAYER@@QAEXW4GRPANIMATION_STATUS@@@Z 00462470 f   GRPAnimation.obj
 0001:00061490       ?GetMinTime@GRPANIMATIONLAYER@@QAE_JXZ 00462490 f   GRPAnimation.obj
 0001:000614b0       ?GetMaxTime@GRPANIMATIONLAYER@@QAE_JXZ 004624b0 f   GRPAnimation.obj
 0001:000614d0       ?SetLocalTime@GRPANIMATIONLAYER@@QAEX_J@Z 004624d0 f   GRPAnimation.obj
 0001:000614f0       ?SetLastStackTime@GRPANIMATIONLAYER@@QAEX_J@Z 004624f0 f   GRPAnimation.obj
 0001:00061510       ?GetLocalTime@GRPANIMATIONLAYER@@QAE_JXZ 00462510 f   GRPAnimation.obj
 0001:00061530       ?GetLastStackTime@GRPANIMATIONLAYER@@QAE_JXZ 00462530 f   GRPAnimation.obj
 0001:00061550       ?SetPasses@GRPANIMATIONSTACKMILESTONE@@QAEXH@Z 00462550 f   GRPAnimation.obj
 0001:00061570       ?SetCurrentPass@GRPANIMATIONSTACKMILESTONE@@QAEXH@Z 00462570 f   GRPAnimation.obj
 0001:00061590       ?SetStartFrame@GRPANIMATIONSTACKMILESTONE@@QAEXM@Z 00462590 f   GRPAnimation.obj
 0001:000615c0       ?SetEndFrame@GRPANIMATIONSTACKMILESTONE@@QAEXM@Z 004625c0 f   GRPAnimation.obj
 0001:000615f0       ?SetStartFrameWithOffset@GRPANIMATIONSTACKMILESTONE@@QAEXM@Z 004625f0 f   GRPAnimation.obj
 0001:00061650       ?SetEndFrameWithOffset@GRPANIMATIONSTACKMILESTONE@@QAEXM@Z 00462650 f   GRPAnimation.obj
 0001:000616b0       ?SetTension@GRPANIMATIONSTACKMILESTONE@@QAEXM@Z 004626b0 f   GRPAnimation.obj
 0001:000616d0       ?SetType@GRPANIMATIONSTACKMILESTONE@@UAEXI@Z 004626d0 f   GRPAnimation.obj
 0001:000616f0       ?SetStack@GRPANIMATIONSTACKMILESTONE@@QAEXPAVGRPANIMATIONSTACK@@@Z 004626f0 f   GRPAnimation.obj
 0001:00061750       ?SetStartTime@GRPANIMATIONSTACKMILESTONE@@QAEXXZ 00462750 f   GRPAnimation.obj
 0001:00061780       ?SetEndTime@GRPANIMATIONSTACKMILESTONE@@QAEXXZ 00462780 f   GRPAnimation.obj
 0001:000617b0       ?GetPasses@GRPANIMATIONSTACKMILESTONE@@QAEHXZ 004627b0 f   GRPAnimation.obj
 0001:000617d0       ?GetCurrentPass@GRPANIMATIONSTACKMILESTONE@@QAEHXZ 004627d0 f   GRPAnimation.obj
 0001:000617f0       ?GetStartFrame@GRPANIMATIONSTACKMILESTONE@@QAEMXZ 004627f0 f   GRPAnimation.obj
 0001:00061810       ?GetEndFrame@GRPANIMATIONSTACKMILESTONE@@QAEMXZ 00462810 f   GRPAnimation.obj
 0001:00061830       ?GetStartTime@GRPANIMATIONSTACKMILESTONE@@QAE_KXZ 00462830 f   GRPAnimation.obj
 0001:00061850       ?GetEndTime@GRPANIMATIONSTACKMILESTONE@@QAE_KXZ 00462850 f   GRPAnimation.obj
 0001:00061870       ?GetTension@GRPANIMATIONSTACKMILESTONE@@QAEMXZ 00462870 f   GRPAnimation.obj
 0001:00061890       ?GetType@GRPANIMATIONSTACKMILESTONE@@UAEIXZ 00462890 f   GRPAnimation.obj
 0001:000618b0       ?GetStack@GRPANIMATIONSTACKMILESTONE@@QAEPAVGRPANIMATIONSTACK@@XZ 004628b0 f   GRPAnimation.obj
 0001:000618d0       ?GetDurationFrames@GRPANIMATIONSTACKMILESTONE@@QAEMXZ 004628d0 f   GRPAnimation.obj
 0001:000618f0       ?GetDurationTime@GRPANIMATIONSTACKMILESTONE@@QAE_KXZ 004628f0 f   GRPAnimation.obj
 0001:00061910       ?Enable@GRPANIMATIONSTACKMILESTONE@@QAEX_N@Z 00462910 f   GRPAnimation.obj
 0001:00061980       ?GetIsActive@GRPANIMATIONSTACKMILESTONE@@QAE_NXZ 00462980 f   GRPAnimation.obj
 0001:000619a0       ?GetIsDisabled@GRPANIMATIONSTACKMILESTONE@@QAE_NXZ 004629a0 f   GRPAnimation.obj
 0001:000619c0       ?GetCurrentLocalTime@GRPANIMATIONSTACKMILESTONE@@QAE_KXZ 004629c0 f   GRPAnimation.obj
 0001:000619e0       ?GetLastLocalTime@GRPANIMATIONSTACKMILESTONE@@QAE_KXZ 004629e0 f   GRPAnimation.obj
 0001:00061a00       ?SetMilestoneLocalTime@GRPANIMATIONSTACKMILESTONE@@QAEX_K@Z 00462a00 f   GRPAnimation.obj
 0001:00061a20       ?SetMilestoneLastTime@GRPANIMATIONSTACKMILESTONE@@QAEX_K@Z 00462a20 f   GRPAnimation.obj
 0001:00061a40       ?DoEnter@GRPANIMATIONSTACKMILESTONE@@QAE_N_K@Z 00462a40 f   GRPAnimation.obj
 0001:00061a80       ?DoContinue@GRPANIMATIONSTACKMILESTONE@@QAE_N_K@Z 00462a80 f   GRPAnimation.obj
 0001:00061ac0       ?DoExit@GRPANIMATIONSTACKMILESTONE@@QAE_N_K@Z 00462ac0 f   GRPAnimation.obj
 0001:00061b00       ?DoDisable@GRPANIMATIONSTACKMILESTONE@@QAE_N_N@Z 00462b00 f   GRPAnimation.obj
 0001:00061b50       ?OnEnter@GRPANIMATIONSTACKMILESTONE@@UAEX_K@Z 00462b50 f   GRPAnimation.obj
 0001:00061c80       ?OnContinue@GRPANIMATIONSTACKMILESTONE@@UAEX_K@Z 00462c80 f   GRPAnimation.obj
 0001:00061dc0       ?OnExit@GRPANIMATIONSTACKMILESTONE@@UAEX_K@Z 00462dc0 f   GRPAnimation.obj
 0001:00061eb0       ??0GRPANIMATIONSTACK@@QAE@XZ 00462eb0 f   GRPAnimation.obj
 0001:00061f80       ??1GRPANIMATIONSTACK@@UAE@XZ 00462f80 f   GRPAnimation.obj
 0001:00062020       ?GetLayers@GRPANIMATIONSTACK@@QAEPAV?$XVECTOR@PAVGRPANIMATIONLAYER@@@@XZ 00463020 f   GRPAnimation.obj
 0001:00062040       ?SetLayers@GRPANIMATIONSTACK@@QAEXV?$XVECTOR@PAVGRPANIMATIONLAYER@@@@@Z 00463040 f   GRPAnimation.obj
 0001:00062070       ?AddLayer@GRPANIMATIONSTACK@@QAE_NPAVGRPANIMATIONLAYER@@@Z 00463070 f   GRPAnimation.obj
 0001:000620b0       ?GetLayer@GRPANIMATIONSTACK@@QAEPAVGRPANIMATIONLAYER@@XZ 004630b0 f   GRPAnimation.obj
 0001:000620e0       ?GetLayer@GRPANIMATIONSTACK@@QAEPAVGRPANIMATIONLAYER@@H@Z 004630e0 f   GRPAnimation.obj
 0001:00062100       ?SetCurrentLayer@GRPANIMATIONSTACK@@QAEXH@Z 00463100 f   GRPAnimation.obj
 0001:00062120       ?GetCurrentLayer@GRPANIMATIONSTACK@@QAE_KXZ 00463120 f   GRPAnimation.obj
 0001:00062140       ?GetMaxTime@GRPANIMATIONSTACK@@QAE_JXZ 00463140 f   GRPAnimation.obj
 0001:00062160       ?SetMaxTime@GRPANIMATIONSTACK@@QAEX_J@Z 00463160 f   GRPAnimation.obj
 0001:00062180       ?GetMinTime@GRPANIMATIONSTACK@@QAE_JXZ 00463180 f   GRPAnimation.obj
 0001:000621a0       ?SetMinTime@GRPANIMATIONSTACK@@QAEX_J@Z 004631a0 f   GRPAnimation.obj
 0001:000621c0       ?GetFrames@GRPANIMATIONSTACK@@QAEHXZ 004631c0 f   GRPAnimation.obj
 0001:00062230       ?GetMaxFrame@GRPANIMATIONSTACK@@QAE_JXZ 00463230 f   GRPAnimation.obj
 0001:00062250       ?SetMaxFrame@GRPANIMATIONSTACK@@QAEX_J@Z 00463250 f   GRPAnimation.obj
 0001:00062270       ?GetMinFrame@GRPANIMATIONSTACK@@QAE_JXZ 00463270 f   GRPAnimation.obj
 0001:00062290       ?SetMinFrame@GRPANIMATIONSTACK@@QAEX_J@Z 00463290 f   GRPAnimation.obj
 0001:000622b0       ?SetFrame@GRPANIMATIONSTACK@@QAEX_J@Z 004632b0 f   GRPAnimation.obj
 0001:00062320       ?GetFrame@GRPANIMATIONSTACK@@QAE_JXZ 00463320 f   GRPAnimation.obj
 0001:00062360       ?HaltFrame@GRPANIMATIONSTACK@@QAEX_J@Z 00463360 f   GRPAnimation.obj
 0001:00062390       ?Update@GRPANIMATIONSTACK@@QAEX_J@Z 00463390 f   GRPAnimation.obj
 0001:00062500       ?IsActive@GRPANIMATIONSTACK@@QAE_NXZ 00463500 f   GRPAnimation.obj
 0001:00062520       ?SetActive@GRPANIMATIONSTACK@@QAEX_N@Z 00463520 f   GRPAnimation.obj
 0001:00062580       ?GetStatus@GRPANIMATIONSTACK@@QAE?AW4GRPANIMATION_STATUS@@XZ 00463580 f   GRPAnimation.obj
 0001:000625a0       ?IsFinished@GRPANIMATIONSTACK@@QAE_NXZ 004635a0 f   GRPAnimation.obj
 0001:000625c0       ?SetIsFinished@GRPANIMATIONSTACK@@QAEX_N@Z 004635c0 f   GRPAnimation.obj
 0001:000625e0       ?SetAnimationControl@GRPANIMATIONSTACK@@QAE_NPAVGRPANIMATIONCONTROL@@@Z 004635e0 f   GRPAnimation.obj
 0001:00062610       ?GetAnimationControl@GRPANIMATIONSTACK@@QAEPAVGRPANIMATIONCONTROL@@XZ 00463610 f   GRPAnimation.obj
 0001:00062630       ?GetStackFrame@GRPANIMATIONSTACK@@QAE_JXZ 00463630 f   GRPAnimation.obj
 0001:00062650       ?GetLastStackFrame@GRPANIMATIONSTACK@@QAE_JXZ 00463650 f   GRPAnimation.obj
 0001:00062670       ?SetStackFrame@GRPANIMATIONSTACK@@QAEX_J@Z 00463670 f   GRPAnimation.obj
 0001:00062690       ?SetLastStackFrame@GRPANIMATIONSTACK@@QAEX_J@Z 00463690 f   GRPAnimation.obj
 0001:000626b0       ?SetLoopMode@GRPANIMATIONSTACK@@QAEXW4GRPANIMATIONLOOPMODE@@@Z 004636b0 f   GRPAnimation.obj
 0001:00062710       ?GetLoopMode@GRPANIMATIONSTACK@@QAE?AW4GRPANIMATIONLOOPMODE@@XZ 00463710 f   GRPAnimation.obj
 0001:00062730       ?Play@GRPANIMATIONSTACK@@QAE_NXZ 00463730 f   GRPAnimation.obj
 0001:000627a0       ?Pause@GRPANIMATIONSTACK@@QAE_NXZ 004637a0 f   GRPAnimation.obj
 0001:00062800       ?Stop@GRPANIMATIONSTACK@@QAE_NXZ 00463800 f   GRPAnimation.obj
 0001:00062870       ?Rewind@GRPANIMATIONSTACK@@QAE_NXZ 00463870 f   GRPAnimation.obj
 0001:000628c0       ?Forward@GRPANIMATIONSTACK@@QAE_NXZ 004638c0 f   GRPAnimation.obj
 0001:00062930       ?Reverse@GRPANIMATIONSTACK@@QAE_NXZ 00463930 f   GRPAnimation.obj
 0001:00062980       ?IsSynced@GRPANIMATIONSTACK@@QAE_NXZ 00463980 f   GRPAnimation.obj
 0001:000629a0       ?SetIsSynced@GRPANIMATIONSTACK@@QAEX_N@Z 004639a0 f   GRPAnimation.obj
 0001:000629c0       ?SetFrameSpeed@GRPANIMATIONSTACK@@QAEXM@Z 004639c0 f   GRPAnimation.obj
 0001:000629e0       ?GetFrameSpeed@GRPANIMATIONSTACK@@QAEMXZ 004639e0 f   GRPAnimation.obj
 0001:00062a00       ?SetFrameAcceleration@GRPANIMATIONSTACK@@QAEXM@Z 00463a00 f   GRPAnimation.obj
 0001:00062a20       ?GetFrameAcceleration@GRPANIMATIONSTACK@@QAEMXZ 00463a20 f   GRPAnimation.obj
 0001:00062a40       ?SetFriction@GRPANIMATIONSTACK@@QAEXM@Z 00463a40 f   GRPAnimation.obj
 0001:00062a60       ?GetFriction@GRPANIMATIONSTACK@@QAEMXZ 00463a60 f   GRPAnimation.obj
 0001:00062a80       ?AddMilestone@GRPANIMATIONSTACK@@QAE_NPAVGRPANIMATIONSTACKMILESTONE@@@Z 00463a80 f   GRPAnimation.obj
 0001:00062ac0       ?GetMilestones@GRPANIMATIONSTACK@@QAEPAV?$XVECTOR@PAVGRPANIMATIONSTACKMILESTONE@@@@XZ 00463ac0 f   GRPAnimation.obj
 0001:00062ae0       ?GetMilestone@GRPANIMATIONSTACK@@QAEPAVGRPANIMATIONSTACKMILESTONE@@H@Z 00463ae0 f   GRPAnimation.obj
 0001:00062b00       ?CheckMilestones@GRPANIMATIONSTACK@@QAEX_J@Z 00463b00 f   GRPAnimation.obj
 0001:00062cd0       ?DisableMilestones@GRPANIMATIONSTACK@@QAEXXZ 00463cd0 f   GRPAnimation.obj
 0001:00062d40       ?GetFrameOfTime@GRPANIMATIONSTACK@@QAEH_J@Z 00463d40 f   GRPAnimation.obj
 0001:00062e10       ?GetTimeOfFrame@GRPANIMATIONSTACK@@QAE_JH@Z 00463e10 f   GRPAnimation.obj
 0001:00062ec0       ?FindAnimationNode@GRPANIMATIONSTACK@@QAEPAVGRPANIMATIONNODE@@PA_WW4GRPANIMATIONCURVETYPE@@W4GRPANIMATIONCURVEAXIS@@@Z 00463ec0 f   GRPAnimation.obj
 0001:00062fb0       ??0GRPANIMATIONCONTROL@@QAE@XZ 00463fb0 f   GRPAnimation.obj
 0001:00063040       ??1GRPANIMATIONCONTROL@@QAE@XZ 00464040 f   GRPAnimation.obj
 0001:000630d0       ?GetControlTimeFPS@GRPANIMATIONCONTROL@@QAE?AW4GRPANIMATIONCONTROLTIMEFPS@@XZ 004640d0 f   GRPAnimation.obj
 0001:000630f0       ?SetControlTimeFPS@GRPANIMATIONCONTROL@@QAEXW4GRPANIMATIONCONTROLTIMEFPS@@@Z 004640f0 f   GRPAnimation.obj
 0001:00063110       ?GetControlTimeProtocolType@GRPANIMATIONCONTROL@@QAE?AW4GRPANIMATIONCONTROLTIMEPROTOCOLTYPE@@XZ 00464110 f   GRPAnimation.obj
 0001:00063130       ?SetControlTimeProtocolType@GRPANIMATIONCONTROL@@QAEXW4GRPANIMATIONCONTROLTIMEPROTOCOLTYPE@@@Z 00464130 f   GRPAnimation.obj
 0001:00063150       ?GetFramesPerSecondByMode@GRPANIMATIONCONTROL@@QAENXZ 00464150 f   GRPAnimation.obj
 0001:000632d0       ?GetStatusType@GRPANIMATIONCONTROL@@QAE?AW4GRPANIMATION_STATUS@@XZ 004642d0 f   GRPAnimation.obj
 0001:000632f0       ?SetStatusType@GRPANIMATIONCONTROL@@QAEXW4GRPANIMATION_STATUS@@@Z 004642f0 f   GRPAnimation.obj
 0001:00063310       ?GetFrameSpeed@GRPANIMATIONCONTROL@@QAEMXZ 00464310 f   GRPAnimation.obj
 0001:00063330       ?SetFrameSpeed@GRPANIMATIONCONTROL@@QAEXM@Z 00464330 f   GRPAnimation.obj
 0001:00063350       ?GetCurrentFrame@GRPANIMATIONCONTROL@@QAE_KXZ 00464350 f   GRPAnimation.obj
 0001:00063370       ?SetCurrentFrame@GRPANIMATIONCONTROL@@QAEX_K@Z 00464370 f   GRPAnimation.obj
 0001:00063390       ?SetCurrentFrame@GRPANIMATIONCONTROL@@QAEXM@Z 00464390 f   GRPAnimation.obj
 0001:00063400       ?SetFrame@GRPANIMATIONCONTROL@@QAEX_K@Z 00464400 f   GRPAnimation.obj
 0001:000634a0       ?GetTotalFrames@GRPANIMATIONCONTROL@@QAE_KXZ 004644a0 f   GRPAnimation.obj
 0001:00063560       ?SetLoopMode@GRPANIMATIONCONTROL@@QAEXW4GRPANIMATIONLOOPMODE@@@Z 00464560 f   GRPAnimation.obj
 0001:00063580       ?AddStack@GRPANIMATIONCONTROL@@QAE_NPAVGRPANIMATIONSTACK@@I@Z 00464580 f   GRPAnimation.obj
 0001:000635d0       ?GetStacks@GRPANIMATIONCONTROL@@QAEPAV?$XMAP@IPAVGRPANIMATIONSTACK@@@@XZ 004645d0 f   GRPAnimation.obj
 0001:000635f0       ?GetStack@GRPANIMATIONCONTROL@@QAEPAVGRPANIMATIONSTACK@@XZ 004645f0 f   GRPAnimation.obj
 0001:00063610       ?GetStack@GRPANIMATIONCONTROL@@QAEPAVGRPANIMATIONSTACK@@I@Z 00464610 f   GRPAnimation.obj
 0001:00063630       ?GetStateStack@GRPANIMATIONCONTROL@@QAE_NH@Z 00464630 f   GRPAnimation.obj
 0001:00063660       ?SetStateStack@GRPANIMATIONCONTROL@@QAEPAVGRPANIMATIONSTACK@@H_N@Z 00464660 f   GRPAnimation.obj
 0001:000636f0       ?SetStateStack@GRPANIMATIONCONTROL@@QAEPAVGRPANIMATIONSTACK@@PA_W_N@Z 004646f0 f   GRPAnimation.obj
 0001:00063790       ?DisableStacks@GRPANIMATIONCONTROL@@QAEXXZ 00464790 f   GRPAnimation.obj
 0001:000637f0       ?GetIsStopped@GRPANIMATIONCONTROL@@QAE_NXZ 004647f0 f   GRPAnimation.obj
 0001:00063820       ?Play@GRPANIMATIONCONTROL@@QAEXXZ 00464820 f   GRPAnimation.obj
 0001:000638b0       ?Stop@GRPANIMATIONCONTROL@@QAEXXZ 004648b0 f   GRPAnimation.obj
 0001:00063980       ?Begin@GRPANIMATIONCONTROL@@QAEXXZ 00464980 f   GRPAnimation.obj
 0001:00063a10       ?Pause@GRPANIMATIONCONTROL@@QAEXXZ 00464a10 f   GRPAnimation.obj
 0001:00063b00       ?Pause@GRPANIMATIONCONTROL@@QAEXI@Z 00464b00 f   GRPAnimation.obj
 0001:00063b30       ?Update@GRPANIMATIONCONTROL@@QAEXXZ 00464b30 f   GRPAnimation.obj
 0001:00063c50       ?End@GRPANIMATIONCONTROL@@QAEXXZ 00464c50 f   GRPAnimation.obj
 0001:00063c70       ?Reset@GRPANIMATIONCONTROL@@QAEXXZ 00464c70 f   GRPAnimation.obj
 0001:00063c90       ?GetTimer@GRPANIMATIONCONTROL@@QAEPAVXTIMER@@XZ 00464c90 f   GRPAnimation.obj
 0001:00063cb0       ?SetupFrames@GRPANIMATIONCONTROL@@QAEXXZ 00464cb0 f   GRPAnimation.obj
 0001:00063cc0       ?ShowAllData@GRPANIMATIONCONTROL@@QAEXXZ 00464cc0 f   GRPAnimation.obj
 0001:00063ee0       ?ShowAllNodesAndCurvesAffectingTargetByName@GRPANIMATIONCONTROL@@QAEXPA_W@Z 00464ee0 f   GRPAnimation.obj
 0001:00064170       ?ShowAllNodesAndCurvesAffectingTargetByName@GRPANIMATIONCONTROL@@QAEXPA_WW4GRPANIMATIONCURVETYPE@@W4GRPANIMATIONCURVEAXIS@@@Z 00465170 f   GRPAnimation.obj
 0001:00064180       ?DettachAnimation@GRPANIMATIONCONTROL@@QAE_NPAVGRPINTERFACEANIMABLE@@@Z 00465180 f   GRPAnimation.obj
 0001:00064220       ?AttachAnimation@GRPANIMATIONCONTROL@@QAE_NPAVGRPINTERFACEANIMABLE@@PAVGRPANIMATIONNODE@@@Z 00465220 f   GRPAnimation.obj
 0001:00064240       ?Print@GRPANIMATIONCONTROL@@QAE_NXZ 00465240 f   GRPAnimation.obj
 0001:00064250       ?TrimStacks@GRPANIMATIONCONTROL@@QAEXXZ 00465250 f   GRPAnimation.obj
 0001:00064390       ??0?$XMAP@IM@@QAE@XZ       00465390 f i GRPAnimation.obj
 0001:00064410       ??0?$XMAP@IPAVGRPANIMATIONCURVE@@@@QAE@XZ 00465410 f i GRPAnimation.obj
 0001:00064490       ??0?$XMAP@IPAVGRPANIMATIONSTACK@@@@QAE@XZ 00465490 f i GRPAnimation.obj
 0001:00064510       ??0?$XMAP@PAVGRPINTERFACEANIMABLE@@PAVGRPANIMATIONNODE@@@@QAE@XZ 00465510 f i GRPAnimation.obj
 0001:00064590       ??0?$XVECTOR@M@@QAE@XZ     00465590 f i GRPAnimation.obj
 0001:000645b0       ??0?$XVECTOR@PAV?$XVECTOR@PAVGRPPOINT@@@@@@QAE@XZ 004655b0 f i GRPAnimation.obj
 0001:000645d0       ??0?$XVECTOR@PAVGRPANIMATIONCURVE@@@@QAE@XZ 004655d0 f i GRPAnimation.obj
 0001:000645f0       ??0?$XVECTOR@PAVGRPANIMATIONLAYER@@@@QAE@XZ 004655f0 f i GRPAnimation.obj
 0001:00064610       ??0?$XVECTOR@PAVGRPANIMATIONNODE@@@@QAE@XZ 00465610 f i GRPAnimation.obj
 0001:00064630       ??0?$XVECTOR@PAVGRPANIMATIONSTACK@@@@QAE@XZ 00465630 f i GRPAnimation.obj
 0001:00064650       ??0?$XVECTOR@PAVGRPANIMATIONSTACKMILESTONE@@@@QAE@XZ 00465650 f i GRPAnimation.obj
 0001:00064670       ??0?$XVECTOR@PAVGRPBEZIERANCHORS@@@@QAE@XZ 00465670 f i GRPAnimation.obj
 0001:00064690       ??0?$XVECTOR@PAVGRPINTERFACEANIMABLE@@@@QAE@XZ 00465690 f i GRPAnimation.obj
 0001:000646b0       ??0GRPANCHORPOINT@@QAE@W4GRPANCHORPOINTTYPE@@@Z 004656b0 f i GRPAnimation.obj
 0001:000646e0       ??0GRPBEZIERCURVE@@QAE@XZ  004656e0 f i GRPAnimation.obj
 0001:000647e0       ??0GRPBEZIERSPLINE@@QAE@XZ 004657e0 f i GRPAnimation.obj
 0001:00064850       ??0GRPPOINT@@QAE@XZ        00465850 f i GRPAnimation.obj
 0001:000648a0       ??1?$XMAP@IM@@UAE@XZ       004658a0 f i GRPAnimation.obj
 0001:000648d0       ??1?$XMAP@IPAVGRPANIMATIONCURVE@@@@UAE@XZ 004658d0 f i GRPAnimation.obj
 0001:00064900       ??1?$XMAP@IPAVGRPANIMATIONSTACK@@@@UAE@XZ 00465900 f i GRPAnimation.obj
 0001:00064930       ??1?$XMAP@PAVGRPINTERFACEANIMABLE@@PAVGRPANIMATIONNODE@@@@UAE@XZ 00465930 f i GRPAnimation.obj
 0001:00064960       ??1?$XVECTOR@H@@UAE@XZ     00465960 f i GRPAnimation.obj
 0001:000649b0       ??1?$XVECTOR@M@@UAE@XZ     004659b0 f i GRPAnimation.obj
 0001:00064a00       ??1?$XVECTOR@N@@UAE@XZ     00465a00 f i GRPAnimation.obj
 0001:00064a50       ??1?$XVECTOR@PAV?$XVECTOR@PAVGRPPOINT@@@@@@UAE@XZ 00465a50 f i GRPAnimation.obj
 0001:00064aa0       ??1?$XVECTOR@PAVGRPANIMATIONCURVE@@@@UAE@XZ 00465aa0 f i GRPAnimation.obj
 0001:00064af0       ??1?$XVECTOR@PAVGRPANIMATIONLAYER@@@@UAE@XZ 00465af0 f i GRPAnimation.obj
 0001:00064b40       ??1?$XVECTOR@PAVGRPANIMATIONNODE@@@@UAE@XZ 00465b40 f i GRPAnimation.obj
 0001:00064b90       ??1?$XVECTOR@PAVGRPANIMATIONSTACK@@@@UAE@XZ 00465b90 f i GRPAnimation.obj
 0001:00064be0       ??1?$XVECTOR@PAVGRPANIMATIONSTACKMILESTONE@@@@UAE@XZ 00465be0 f i GRPAnimation.obj
 0001:00064c30       ??1?$XVECTOR@PAVGRPBEZIERANCHORS@@@@UAE@XZ 00465c30 f i GRPAnimation.obj
 0001:00064c80       ??1?$XVECTOR@PAVGRPBEZIERSPLINE@@@@UAE@XZ 00465c80 f i GRPAnimation.obj
 0001:00064cd0       ??1?$XVECTOR@PAVGRPINTERFACEANIMABLE@@@@UAE@XZ 00465cd0 f i GRPAnimation.obj
 0001:00064d20       ??1?$XVECTOR@_K@@UAE@XZ    00465d20 f i GRPAnimation.obj
 0001:00064d70       ??1GRPBEZIERCURVE@@UAE@XZ  00465d70 f i GRPAnimation.obj
 0001:00064eb0       ??1GRPBEZIERSPLINE@@UAE@XZ 00465eb0 f i GRPAnimation.obj
 0001:00064f70       ??1GRPPOINT@@UAE@XZ        00465f70 f i GRPAnimation.obj
 0001:00064f90       ??4?$XVECTOR@PAVGRPANIMATIONLAYER@@@@QAEAAV0@ABV0@@Z 00465f90 f i GRPAnimation.obj
 0001:00064fe0       ??4?$XVECTOR@PAVGRPANIMATIONNODE@@@@QAEAAV0@ABV0@@Z 00465fe0 f i GRPAnimation.obj
 0001:00065030       ??_DGRPANIMATIONCURVE@@QAEXXZ 00466030 f i GRPAnimation.obj
 0001:00065060       ??_DGRPANIMATIONLAYER@@QAEXXZ 00466060 f i GRPAnimation.obj
 0001:00065090       ??_DGRPANIMATIONNODE@@QAEXXZ 00466090 f i GRPAnimation.obj
 0001:000650c0       ??_DGRPANIMATIONSTACK@@QAEXXZ 004660c0 f i GRPAnimation.obj
 0001:000650f0       ??_G?$XMAP@IM@@UAEPAXI@Z   004660f0 f i GRPAnimation.obj
 0001:000650f0       ??_E?$XMAP@IM@@UAEPAXI@Z   004660f0 f i GRPAnimation.obj
 0001:00065120       ??_E?$XMAP@IPAVGRPANIMATIONCURVE@@@@UAEPAXI@Z 00466120 f i GRPAnimation.obj
 0001:00065120       ??_G?$XMAP@IPAVGRPANIMATIONCURVE@@@@UAEPAXI@Z 00466120 f i GRPAnimation.obj
 0001:00065150       ??_E?$XMAP@IPAVGRPANIMATIONSTACK@@@@UAEPAXI@Z 00466150 f i GRPAnimation.obj
 0001:00065150       ??_G?$XMAP@IPAVGRPANIMATIONSTACK@@@@UAEPAXI@Z 00466150 f i GRPAnimation.obj
 0001:00065180       ??_G?$XMAP@PAVGRPINTERFACEANIMABLE@@PAVGRPANIMATIONNODE@@@@UAEPAXI@Z 00466180 f i GRPAnimation.obj
 0001:00065180       ??_E?$XMAP@PAVGRPINTERFACEANIMABLE@@PAVGRPANIMATIONNODE@@@@UAEPAXI@Z 00466180 f i GRPAnimation.obj
 0001:000651b0       ??_E?$XVECTOR@H@@UAEPAXI@Z 004661b0 f i GRPAnimation.obj
 0001:000651b0       ??_G?$XVECTOR@H@@UAEPAXI@Z 004661b0 f i GRPAnimation.obj
 0001:000651e0       ??_E?$XVECTOR@M@@UAEPAXI@Z 004661e0 f i GRPAnimation.obj
 0001:000651e0       ??_G?$XVECTOR@M@@UAEPAXI@Z 004661e0 f i GRPAnimation.obj
 0001:00065210       ??_E?$XVECTOR@N@@UAEPAXI@Z 00466210 f i GRPAnimation.obj
 0001:00065210       ??_G?$XVECTOR@N@@UAEPAXI@Z 00466210 f i GRPAnimation.obj
 0001:00065240       ??_G?$XVECTOR@PAV?$XVECTOR@PAVGRPPOINT@@@@@@UAEPAXI@Z 00466240 f i GRPAnimation.obj
 0001:00065240       ??_E?$XVECTOR@PAV?$XVECTOR@PAVGRPPOINT@@@@@@UAEPAXI@Z 00466240 f i GRPAnimation.obj
 0001:00065270       ??_E?$XVECTOR@PAVGRPANIMATIONCURVE@@@@UAEPAXI@Z 00466270 f i GRPAnimation.obj
 0001:00065270       ??_G?$XVECTOR@PAVGRPANIMATIONCURVE@@@@UAEPAXI@Z 00466270 f i GRPAnimation.obj
 0001:000652a0       ??_G?$XVECTOR@PAVGRPANIMATIONLAYER@@@@UAEPAXI@Z 004662a0 f i GRPAnimation.obj
 0001:000652a0       ??_E?$XVECTOR@PAVGRPANIMATIONLAYER@@@@UAEPAXI@Z 004662a0 f i GRPAnimation.obj
 0001:000652d0       ??_E?$XVECTOR@PAVGRPANIMATIONNODE@@@@UAEPAXI@Z 004662d0 f i GRPAnimation.obj
 0001:000652d0       ??_G?$XVECTOR@PAVGRPANIMATIONNODE@@@@UAEPAXI@Z 004662d0 f i GRPAnimation.obj
 0001:00065300       ??_G?$XVECTOR@PAVGRPANIMATIONSTACK@@@@UAEPAXI@Z 00466300 f i GRPAnimation.obj
 0001:00065300       ??_E?$XVECTOR@PAVGRPANIMATIONSTACK@@@@UAEPAXI@Z 00466300 f i GRPAnimation.obj
 0001:00065330       ??_G?$XVECTOR@PAVGRPANIMATIONSTACKMILESTONE@@@@UAEPAXI@Z 00466330 f i GRPAnimation.obj
 0001:00065330       ??_E?$XVECTOR@PAVGRPANIMATIONSTACKMILESTONE@@@@UAEPAXI@Z 00466330 f i GRPAnimation.obj
 0001:00065360       ??_E?$XVECTOR@PAVGRPBEZIERANCHORS@@@@UAEPAXI@Z 00466360 f i GRPAnimation.obj
 0001:00065360       ??_G?$XVECTOR@PAVGRPBEZIERANCHORS@@@@UAEPAXI@Z 00466360 f i GRPAnimation.obj
 0001:00065390       ??_E?$XVECTOR@PAVGRPBEZIERSPLINE@@@@UAEPAXI@Z 00466390 f i GRPAnimation.obj
 0001:00065390       ??_G?$XVECTOR@PAVGRPBEZIERSPLINE@@@@UAEPAXI@Z 00466390 f i GRPAnimation.obj
 0001:000653c0       ??_G?$XVECTOR@PAVGRPINTERFACEANIMABLE@@@@UAEPAXI@Z 004663c0 f i GRPAnimation.obj
 0001:000653c0       ??_E?$XVECTOR@PAVGRPINTERFACEANIMABLE@@@@UAEPAXI@Z 004663c0 f i GRPAnimation.obj
 0001:000653f0       ??_E?$XVECTOR@_K@@UAEPAXI@Z 004663f0 f i GRPAnimation.obj
 0001:000653f0       ??_G?$XVECTOR@_K@@UAEPAXI@Z 004663f0 f i GRPAnimation.obj
 0001:00065420       ??_GGRPANIMATIONCURVE@@UAEPAXI@Z 00466420 f i GRPAnimation.obj
 0001:00065420       ??_EGRPANIMATIONCURVE@@UAEPAXI@Z 00466420 f i GRPAnimation.obj
 0001:00065470       ??_EGRPANIMATIONLAYER@@UAEPAXI@Z 00466470 f i GRPAnimation.obj
 0001:00065470       ??_GGRPANIMATIONLAYER@@UAEPAXI@Z 00466470 f i GRPAnimation.obj
 0001:000654b0       ??_GGRPANIMATIONNODE@@UAEPAXI@Z 004664b0 f i GRPAnimation.obj
 0001:000654b0       ??_EGRPANIMATIONNODE@@UAEPAXI@Z 004664b0 f i GRPAnimation.obj
 0001:00065500       ??_GGRPANIMATIONSTACK@@UAEPAXI@Z 00466500 f i GRPAnimation.obj
 0001:00065500       ??_EGRPANIMATIONSTACK@@UAEPAXI@Z 00466500 f i GRPAnimation.obj
 0001:00065550       ??_GGRPBEZIERCURVE@@UAEPAXI@Z 00466550 f i GRPAnimation.obj
 0001:00065550       ??_EGRPBEZIERCURVE@@UAEPAXI@Z 00466550 f i GRPAnimation.obj
 0001:00065590       ??_EGRPBEZIERSPLINE@@UAEPAXI@Z 00466590 f i GRPAnimation.obj
 0001:00065590       ??_GGRPBEZIERSPLINE@@UAEPAXI@Z 00466590 f i GRPAnimation.obj
 0001:000655c0       ??_EGRPPOINT@@UAEPAXI@Z    004665c0 f i GRPAnimation.obj
 0001:000655c0       ??_GGRPPOINT@@UAEPAXI@Z    004665c0 f i GRPAnimation.obj
 0001:000655f0       ?Add@?$XMAP@IPAVGRPANIMATIONCURVE@@@@QAE_NIPAVGRPANIMATIONCURVE@@@Z 004665f0 f i GRPAnimation.obj
 0001:00065650       ?Add@?$XMAP@IPAVGRPANIMATIONSTACK@@@@QAE_NIPAVGRPANIMATIONSTACK@@@Z 00466650 f i GRPAnimation.obj
 0001:000656b0       ?Add@?$XMAP@PAVGRPINTERFACEANIMABLE@@PAVGRPANIMATIONNODE@@@@QAE_NPAVGRPINTERFACEANIMABLE@@PAVGRPANIMATIONNODE@@@Z 004666b0 f i GRPAnimation.obj
 0001:00065710       ?Add@?$XVECTOR@H@@QAE_NH@Z 00466710 f i GRPAnimation.obj
 0001:000657a0       ?Add@?$XVECTOR@PAVGRPANCHORPOINT@@@@QAE_NPAVGRPANCHORPOINT@@@Z 004667a0 f i GRPAnimation.obj
 0001:00065830       ?Add@?$XVECTOR@PAVGRPANIMATIONCURVE@@@@QAE_NPAVGRPANIMATIONCURVE@@@Z 00466830 f i GRPAnimation.obj
 0001:000658c0       ?Add@?$XVECTOR@PAVGRPANIMATIONLAYER@@@@QAE_NPAVGRPANIMATIONLAYER@@@Z 004668c0 f i GRPAnimation.obj
 0001:00065950       ?Add@?$XVECTOR@PAVGRPANIMATIONNODE@@@@QAE_NPAVGRPANIMATIONNODE@@@Z 00466950 f i GRPAnimation.obj
 0001:000659e0       ?Add@?$XVECTOR@PAVGRPANIMATIONSTACK@@@@QAE_NPAVGRPANIMATIONSTACK@@@Z 004669e0 f i GRPAnimation.obj
 0001:00065a70       ?Add@?$XVECTOR@PAVGRPANIMATIONSTACKMILESTONE@@@@QAE_NPAVGRPANIMATIONSTACKMILESTONE@@@Z 00466a70 f i GRPAnimation.obj
 0001:00065b00       ?Add@?$XVECTOR@PAVGRPBEZIERSPLINE@@@@QAE_NPAVGRPBEZIERSPLINE@@@Z 00466b00 f i GRPAnimation.obj
 0001:00065b90       ?Add@?$XVECTOR@PAVGRPINTERFACEANIMABLE@@@@QAE_NPAVGRPINTERFACEANIMABLE@@@Z 00466b90 f i GRPAnimation.obj
 0001:00065c20       ?Clean@?$XVECTOR@H@@AAEXXZ 00466c20 f i GRPAnimation.obj
 0001:00065c60       ?Clean@?$XVECTOR@M@@AAEXXZ 00466c60 f i GRPAnimation.obj
 0001:00065ca0       ?Clean@?$XVECTOR@N@@AAEXXZ 00466ca0 f i GRPAnimation.obj
 0001:00065ce0       ?Clean@?$XVECTOR@PAV?$XVECTOR@PAVGRPPOINT@@@@@@AAEXXZ 00466ce0 f i GRPAnimation.obj
 0001:00065d20       ?Clean@?$XVECTOR@PAVGRPANIMATIONCURVE@@@@AAEXXZ 00466d20 f i GRPAnimation.obj
 0001:00065d60       ?Clean@?$XVECTOR@PAVGRPANIMATIONLAYER@@@@AAEXXZ 00466d60 f i GRPAnimation.obj
 0001:00065da0       ?Clean@?$XVECTOR@PAVGRPANIMATIONNODE@@@@AAEXXZ 00466da0 f i GRPAnimation.obj
 0001:00065de0       ?Clean@?$XVECTOR@PAVGRPANIMATIONSTACK@@@@AAEXXZ 00466de0 f i GRPAnimation.obj
 0001:00065e20       ?Clean@?$XVECTOR@PAVGRPANIMATIONSTACKMILESTONE@@@@AAEXXZ 00466e20 f i GRPAnimation.obj
 0001:00065e60       ?Clean@?$XVECTOR@PAVGRPBEZIERANCHORS@@@@AAEXXZ 00466e60 f i GRPAnimation.obj
 0001:00065ea0       ?Clean@?$XVECTOR@PAVGRPBEZIERSPLINE@@@@AAEXXZ 00466ea0 f i GRPAnimation.obj
 0001:00065ee0       ?Clean@?$XVECTOR@PAVGRPINTERFACEANIMABLE@@@@AAEXXZ 00466ee0 f i GRPAnimation.obj
 0001:00065f20       ?Clean@?$XVECTOR@_K@@AAEXXZ 00466f20 f i GRPAnimation.obj
 0001:00065f60       ?Clean@GRPANIMATIONCONTROL@@AAEXXZ 00466f60 f i GRPAnimation.obj
 0001:00066020       ?Clean@GRPANIMATIONLAYER@@AAEXXZ 00467020 f i GRPAnimation.obj
 0001:000660d0       ?Clean@GRPANIMATIONNODE@@AAEXXZ 004670d0 f i GRPAnimation.obj
 0001:000661a0       ?Clean@GRPANIMATIONSTACK@@AAEXXZ 004671a0 f i GRPAnimation.obj
 0001:00066270       ?Delete@?$XMAP@PAVGRPINTERFACEANIMABLE@@PAVGRPANIMATIONNODE@@@@QAE_NPAVGRPINTERFACEANIMABLE@@@Z 00467270 f i GRPAnimation.obj
 0001:000662e0       ?Delete@?$XVECTOR@PAVGRPANIMATIONNODE@@@@QAE_NPAVGRPANIMATIONNODE@@@Z 004672e0 f i GRPAnimation.obj
 0001:00066350       ?Delete@?$XVECTOR@PAVGRPINTERFACEANIMABLE@@@@QAE_NPAVGRPINTERFACEANIMABLE@@@Z 00467350 f i GRPAnimation.obj
 0001:000663c0       ?DeleteAll@?$XMAP@IM@@QAE_NXZ 004673c0 f i GRPAnimation.obj
 0001:000663f0       ?DeleteAll@?$XMAP@IPAVGRPANIMATIONCURVE@@@@QAE_NXZ 004673f0 f i GRPAnimation.obj
 0001:00066420       ?DeleteAll@?$XMAP@IPAVGRPANIMATIONSTACK@@@@QAE_NXZ 00467420 f i GRPAnimation.obj
 0001:00066450       ?DeleteAll@?$XVECTOR@H@@QAE_NXZ 00467450 f i GRPAnimation.obj
 0001:000664a0       ?DeleteAll@?$XVECTOR@M@@QAE_NXZ 004674a0 f i GRPAnimation.obj
 0001:000664f0       ?DeleteAll@?$XVECTOR@N@@QAE_NXZ 004674f0 f i GRPAnimation.obj
 0001:00066540       ?DeleteAll@?$XVECTOR@PAV?$XVECTOR@PAVGRPPOINT@@@@@@QAE_NXZ 00467540 f i GRPAnimation.obj
 0001:00066590       ?DeleteAll@?$XVECTOR@PAVGRPANIMATIONCURVE@@@@QAE_NXZ 00467590 f i GRPAnimation.obj
 0001:000665e0       ?DeleteAll@?$XVECTOR@PAVGRPANIMATIONLAYER@@@@QAE_NXZ 004675e0 f i GRPAnimation.obj
 0001:00066630       ?DeleteAll@?$XVECTOR@PAVGRPANIMATIONNODE@@@@QAE_NXZ 00467630 f i GRPAnimation.obj
 0001:00066680       ?DeleteAll@?$XVECTOR@PAVGRPANIMATIONSTACK@@@@QAE_NXZ 00467680 f i GRPAnimation.obj
 0001:000666d0       ?DeleteAll@?$XVECTOR@PAVGRPANIMATIONSTACKMILESTONE@@@@QAE_NXZ 004676d0 f i GRPAnimation.obj
 0001:00066720       ?DeleteAll@?$XVECTOR@PAVGRPBEZIERANCHORS@@@@QAE_NXZ 00467720 f i GRPAnimation.obj
 0001:00066770       ?DeleteAll@?$XVECTOR@PAVGRPBEZIERSPLINE@@@@QAE_NXZ 00467770 f i GRPAnimation.obj
 0001:000667c0       ?DeleteAll@?$XVECTOR@PAVGRPINTERFACEANIMABLE@@@@QAE_NXZ 004677c0 f i GRPAnimation.obj
 0001:00066810       ?DeleteAll@?$XVECTOR@PAVGRPPOINT@@@@QAE_NXZ 00467810 f i GRPAnimation.obj
 0001:00066860       ?DeleteAll@?$XVECTOR@_K@@QAE_NXZ 00467860 f i GRPAnimation.obj
 0001:000668b0       ?DeleteContents@?$XVECTOR@PAV?$XVECTOR@PAVGRPPOINT@@@@@@QAE_NXZ 004678b0 f i GRPAnimation.obj
 0001:00066950       ?DeleteContents@?$XVECTOR@PAVGRPANIMATIONCURVE@@@@QAE_NXZ 00467950 f i GRPAnimation.obj
 0001:00066a00       ?DeleteContents@?$XVECTOR@PAVGRPANIMATIONLAYER@@@@QAE_NXZ 00467a00 f i GRPAnimation.obj
 0001:00066ab0       ?DeleteContents@?$XVECTOR@PAVGRPANIMATIONNODE@@@@QAE_NXZ 00467ab0 f i GRPAnimation.obj
 0001:00066b60       ?DeleteContents@?$XVECTOR@PAVGRPANIMATIONSTACK@@@@QAE_NXZ 00467b60 f i GRPAnimation.obj
 0001:00066c10       ?DeleteContents@?$XVECTOR@PAVGRPANIMATIONSTACKMILESTONE@@@@QAE_NXZ 00467c10 f i GRPAnimation.obj
 0001:00066cd0       ?DeleteContents@?$XVECTOR@PAVGRPBEZIERSPLINE@@@@QAE_NXZ 00467cd0 f i GRPAnimation.obj
 0001:00066d70       ?DeleteContents@?$XVECTOR@PAVGRPPOINT@@@@QAE_NXZ 00467d70 f i GRPAnimation.obj
 0001:00066e10       ?DeleteElementContents@?$XMAP@IPAVGRPANIMATIONSTACK@@@@QAE_NXZ 00467e10 f i GRPAnimation.obj
 0001:00066e30       ?FastGet@?$XVECTOR@H@@QAEHH@Z 00467e30 f i GRPAnimation.obj
 0001:00066e50       ?FastGet@?$XVECTOR@M@@QAEMH@Z 00467e50 f i GRPAnimation.obj
 0001:00066e70       ?FastGet@?$XVECTOR@N@@QAENH@Z 00467e70 f i GRPAnimation.obj
 0001:00066e90       ?FastGet@?$XVECTOR@PAV?$XVECTOR@PAVGRPPOINT@@@@@@QAEPAV?$XVECTOR@PAVGRPPOINT@@@@H@Z 00467e90 f i GRPAnimation.obj
 0001:00066eb0       ?FastGet@?$XVECTOR@PAVGRPANIMATIONCURVE@@@@QAEPAVGRPANIMATIONCURVE@@H@Z 00467eb0 f i GRPAnimation.obj
 0001:00066ed0       ?FastGet@?$XVECTOR@PAVGRPANIMATIONLAYER@@@@QAEPAVGRPANIMATIONLAYER@@H@Z 00467ed0 f i GRPAnimation.obj
 0001:00066ef0       ?FastGet@?$XVECTOR@PAVGRPANIMATIONNODE@@@@QAEPAVGRPANIMATIONNODE@@H@Z 00467ef0 f i GRPAnimation.obj
 0001:00066f10       ?FastGet@?$XVECTOR@PAVGRPANIMATIONSTACK@@@@QAEPAVGRPANIMATIONSTACK@@H@Z 00467f10 f i GRPAnimation.obj
 0001:00066f30       ?FastGet@?$XVECTOR@PAVGRPBEZIERSPLINE@@@@QAEPAVGRPBEZIERSPLINE@@H@Z 00467f30 f i GRPAnimation.obj
 0001:00066f50       ?FastGet@?$XVECTOR@_J@@QAE_JH@Z 00467f50 f i GRPAnimation.obj
 0001:00066f70       ?FastGet@?$XVECTOR@_K@@QAE_KH@Z 00467f70 f i GRPAnimation.obj
 0001:00066f90       ?FastGetElement@?$XMAP@IPAVGRPANIMATIONCURVE@@@@QAEPAVGRPANIMATIONCURVE@@H@Z 00467f90 f i GRPAnimation.obj
 0001:00066fb0       ?FastGetKey@?$XMAP@IPAVGRPANIMATIONCURVE@@@@QAEIH@Z 00467fb0 f i GRPAnimation.obj
 0001:00066fd0       ?Find@?$XMAP@PAVGRPINTERFACEANIMABLE@@PAVGRPANIMATIONNODE@@@@QAEHPAVGRPINTERFACEANIMABLE@@@Z 00467fd0 f i GRPAnimation.obj
 0001:00066ff0       ?Find@?$XVECTOR@PAVGRPINTERFACEANIMABLE@@@@QAEHPAVGRPINTERFACEANIMABLE@@@Z 00467ff0 f i GRPAnimation.obj
 0001:00067050       ?Get@?$XMAP@IM@@QAEMI@Z    00468050 f i GRPAnimation.obj
 0001:000670a0       ?Get@?$XMAP@IPAVGRPANIMATIONCURVE@@@@QAEPAVGRPANIMATIONCURVE@@I@Z 004680a0 f i GRPAnimation.obj
 0001:000670f0       ?Get@?$XMAP@IPAVGRPANIMATIONSTACK@@@@QAEPAVGRPANIMATIONSTACK@@I@Z 004680f0 f i GRPAnimation.obj
 0001:00067140       ?Get@?$XMAP@PAVGRPINTERFACEANIMABLE@@PAVGRPANIMATIONNODE@@@@QAEPAVGRPANIMATIONNODE@@PAVGRPINTERFACEANIMABLE@@@Z 00468140 f i GRPAnimation.obj
 0001:00067190       ?Get@?$XVECTOR@H@@QAEHH@Z  00468190 f i GRPAnimation.obj
 0001:000671d0       ?Get@?$XVECTOR@M@@QAEMH@Z  004681d0 f i GRPAnimation.obj
 0001:00067210       ?Get@?$XVECTOR@N@@QAENH@Z  00468210 f i GRPAnimation.obj
 0001:00067250       ?Get@?$XVECTOR@PAV?$XVECTOR@PAVGRPPOINT@@@@@@QAEPAV?$XVECTOR@PAVGRPPOINT@@@@H@Z 00468250 f i GRPAnimation.obj
 0001:00067290       ?Get@?$XVECTOR@PAVGRPANIMATIONCURVE@@@@QAEPAVGRPANIMATIONCURVE@@H@Z 00468290 f i GRPAnimation.obj
 0001:000672d0       ?Get@?$XVECTOR@PAVGRPANIMATIONLAYER@@@@QAEPAVGRPANIMATIONLAYER@@H@Z 004682d0 f i GRPAnimation.obj
 0001:00067310       ?Get@?$XVECTOR@PAVGRPANIMATIONNODE@@@@QAEPAVGRPANIMATIONNODE@@H@Z 00468310 f i GRPAnimation.obj
 0001:00067350       ?Get@?$XVECTOR@PAVGRPANIMATIONSTACKMILESTONE@@@@QAEPAVGRPANIMATIONSTACKMILESTONE@@H@Z 00468350 f i GRPAnimation.obj
 0001:00067390       ?Get@?$XVECTOR@PAVGRPBEZIERSPLINE@@@@QAEPAVGRPBEZIERSPLINE@@H@Z 00468390 f i GRPAnimation.obj
 0001:000673d0       ?Get@?$XVECTOR@PAVGRPINTERFACEANIMABLE@@@@QAEPAVGRPINTERFACEANIMABLE@@H@Z 004683d0 f i GRPAnimation.obj
 0001:00067410       ?Get@?$XVECTOR@_J@@QAE_JH@Z 00468410 f i GRPAnimation.obj
 0001:00067460       ?Get@?$XVECTOR@_K@@QAE_KH@Z 00468460 f i GRPAnimation.obj
 0001:000674b0       ?GetElement@?$XMAP@IM@@QAEMH@Z 004684b0 f i GRPAnimation.obj
 0001:000674d0       ?GetElement@?$XMAP@IPAVGRPANIMATIONCURVE@@@@QAEPAVGRPANIMATIONCURVE@@H@Z 004684d0 f i GRPAnimation.obj
 0001:000674f0       ?GetKey@?$XMAP@IM@@QAEIH@Z 004684f0 f i GRPAnimation.obj
 0001:00067510       ?GetKey@?$XMAP@IPAVGRPANIMATIONCURVE@@@@QAEIH@Z 00468510 f i GRPAnimation.obj
 0001:00067530       ?GetLast@?$XVECTOR@N@@QAENXZ 00468530 f i GRPAnimation.obj
 0001:00067550       ?GetLast@?$XVECTOR@_J@@QAE_JXZ 00468550 f i GRPAnimation.obj
 0001:00067570       ?GetLast@?$XVECTOR@_K@@QAE_KXZ 00468570 f i GRPAnimation.obj
 0001:00067590       ?GetSize@?$XMAP@IM@@QAEIXZ 00468590 f i GRPAnimation.obj
 0001:000675b0       ?GetSize@?$XMAP@IPAVGRPANIMATIONCURVE@@@@QAEIXZ 004685b0 f i GRPAnimation.obj
 0001:000675d0       ?GetSize@?$XVECTOR@N@@QAEIXZ 004685d0 f i GRPAnimation.obj
 0001:000675f0       ?GetSize@?$XVECTOR@PAV?$XVECTOR@PAVGRPPOINT@@@@@@QAEIXZ 004685f0 f i GRPAnimation.obj
 0001:00067610       ?GetSize@?$XVECTOR@PAVGRPANIMATIONCURVE@@@@QAEIXZ 00468610 f i GRPAnimation.obj
 0001:00067630       ?GetSize@?$XVECTOR@PAVGRPANIMATIONLAYER@@@@QAEIXZ 00468630 f i GRPAnimation.obj
 0001:00067650       ?GetSize@?$XVECTOR@PAVGRPANIMATIONNODE@@@@QAEIXZ 00468650 f i GRPAnimation.obj
 0001:00067670       ?GetSize@?$XVECTOR@PAVGRPANIMATIONSTACKMILESTONE@@@@QAEIXZ 00468670 f i GRPAnimation.obj
 0001:00067690       ?GetSize@?$XVECTOR@PAVGRPBEZIERSPLINE@@@@QAEIXZ 00468690 f i GRPAnimation.obj
 0001:000676b0       ?GetSize@?$XVECTOR@PAVGRPINTERFACEANIMABLE@@@@QAEIXZ 004686b0 f i GRPAnimation.obj
 0001:000676d0       ?GetSize@?$XVECTOR@_J@@QAEIXZ 004686d0 f i GRPAnimation.obj
 0001:000676f0       ?GetSize@?$XVECTOR@_K@@QAEIXZ 004686f0 f i GRPAnimation.obj
 0001:00067710       ?GetType@GRPNAMED@@QAE?AW4GRPNAMED_TYPE@@XZ 00468710 f i GRPAnimation.obj
 0001:00067730       ?InterpolateBezier@GRPBEZIERSPLINE@@QAE?AVGRPPOINT@@M@Z 00468730 f i GRPAnimation.obj
 0001:000677b0       ?ResizeAdd@?$XVECTOR@H@@AAE_NXZ 004687b0 f i GRPAnimation.obj
 0001:00067870       ?ResizeAdd@?$XVECTOR@PAVGRPANCHORPOINT@@@@AAE_NXZ 00468870 f i GRPAnimation.obj
 0001:00067930       ?ResizeAdd@?$XVECTOR@PAVGRPANIMATIONCURVE@@@@AAE_NXZ 00468930 f i GRPAnimation.obj
 0001:000679f0       ?ResizeAdd@?$XVECTOR@PAVGRPANIMATIONLAYER@@@@AAE_NXZ 004689f0 f i GRPAnimation.obj
 0001:00067ab0       ?ResizeAdd@?$XVECTOR@PAVGRPANIMATIONNODE@@@@AAE_NXZ 00468ab0 f i GRPAnimation.obj
 0001:00067b70       ?ResizeAdd@?$XVECTOR@PAVGRPANIMATIONSTACK@@@@AAE_NXZ 00468b70 f i GRPAnimation.obj
 0001:00067c30       ?ResizeAdd@?$XVECTOR@PAVGRPANIMATIONSTACKMILESTONE@@@@AAE_NXZ 00468c30 f i GRPAnimation.obj
 0001:00067cf0       ?ResizeAdd@?$XVECTOR@PAVGRPBEZIERSPLINE@@@@AAE_NXZ 00468cf0 f i GRPAnimation.obj
 0001:00067db0       ?ResizeAdd@?$XVECTOR@PAVGRPINTERFACEANIMABLE@@@@AAE_NXZ 00468db0 f i GRPAnimation.obj
 0001:00067e70       ?ResizeRemove@?$XVECTOR@PAVGRPANIMATIONNODE@@@@AAE_NI@Z 00468e70 f i GRPAnimation.obj
 0001:00067ee0       ?ResizeRemove@?$XVECTOR@PAVGRPINTERFACEANIMABLE@@@@AAE_NI@Z 00468ee0 f i GRPAnimation.obj
 0001:00067f50       ?Set@?$XVECTOR@H@@QAE_NHH@Z 00468f50 f i GRPAnimation.obj
 0001:00067f90       ?Set@?$XVECTOR@_K@@QAE_NH_K@Z 00468f90 f i GRPAnimation.obj
 0001:00067fd0       ?SetID@GRPANIMATIONSTACK@@QAEXI@Z 00468fd0 f i GRPAnimation.obj
 0001:00067ff0       ?SetIsMulti@?$XMAP@IM@@QAEX_N@Z 00468ff0 f i GRPAnimation.obj
 0001:00068020       ?SetIsMulti@?$XMAP@IPAVGRPANIMATIONCURVE@@@@QAEX_N@Z 00469020 f i GRPAnimation.obj
 0001:00068050       ?SetIsMulti@?$XMAP@IPAVGRPANIMATIONSTACK@@@@QAEX_N@Z 00469050 f i GRPAnimation.obj
 0001:00068080       ?SetIsMulti@?$XMAP@PAVGRPINTERFACEANIMABLE@@PAVGRPANIMATIONNODE@@@@QAEX_N@Z 00469080 f i GRPAnimation.obj
 0001:000680b0       ?SetIsMulti@?$XVECTOR@M@@QAEX_N@Z 004690b0 f i GRPAnimation.obj
 0001:000680d0       ?SetIsMulti@?$XVECTOR@PAVGRPANIMATIONCURVE@@@@QAEX_N@Z 004690d0 f i GRPAnimation.obj
 0001:000680f0       ?SetIsMulti@?$XVECTOR@PAVGRPANIMATIONNODE@@@@QAEX_N@Z 004690f0 f i GRPAnimation.obj
 0001:00068110       ?SetIsMulti@?$XVECTOR@PAVGRPANIMATIONSTACK@@@@QAEX_N@Z 00469110 f i GRPAnimation.obj
 0001:00068130       ?SetIsMulti@?$XVECTOR@PAVGRPINTERFACEANIMABLE@@@@QAEX_N@Z 00469130 f i GRPAnimation.obj
 0001:00068150       ?SetStatus@GRPANIMATIONSTACK@@QAEXW4GRPANIMATION_STATUS@@@Z 00469150 f i GRPAnimation.obj
 0001:00068170       ?UpdateAsConstant@GRPANIMATIONCURVE@@QAEX_JI@Z 00469170 f i GRPAnimation.obj
 0001:000681a0       ?PathManagement@GRPAPPLICATION@@QAE_NPA_W@Z 004691a0 f   GRPApplication.obj
 0001:00068310       ?Update@GRPAPPLICATION@@UAE_NXZ 00469310 f   GRPApplication.obj
 0001:000683f0       ?IniInputManager@GRPAPPLICATION@@UAE_NXZ 004693f0 f   GRPApplication.obj
 0001:000684b0       ?CreateRenderer@GRPAPPLICATION@@UAE_NXZ 004694b0 f   GRPApplication.obj
 0001:00068770       ?DeleteRenderer@GRPAPPLICATION@@UAE_NXZ 00469770 f   GRPApplication.obj
 0001:00068820       ?IniMainScreen@GRPAPPLICATION@@UAE_NPAVGRPPROPERTIES@@PAX@Z 00469820 f   GRPApplication.obj
 0001:00068a50       ?IniRenderer@GRPAPPLICATION@@UAE_NPAVGRPSCREEN@@PAVGRPSCENE@@@Z 00469a50 f   GRPApplication.obj
 0001:00068a60       ?EndRenderer@GRPAPPLICATION@@UAE_NXZ 00469a60 f   GRPApplication.obj
 0001:00068b00       ?EndMainScreen@GRPAPPLICATION@@UAE_NXZ 00469b00 f   GRPApplication.obj
 0001:00068bc0       ??4XPATH@@QAEXAAV0@@Z      00469bc0 f i GRPApplication.obj
 0001:00068be0       ?Clear@GRPRENDERER@@QAEXXZ 00469be0 f i GRPApplication.obj
 0001:00068c00       ?CopyPropertysFrom@GRPPROPERTIES@@QAEXPAV1@@Z 00469c00 f i GRPApplication.obj
 0001:00068c60       ?Get@GRPMATERIALLIBRARY@@SAPAV1@XZ 00469c60 f i GRPApplication.obj
 0001:00068cf0       ?Get@SNDFACTORY@@SAPAV1@XZ 00469cf0 f i GRPApplication.obj
 0001:00068d00       ?GetInstance@INPFACTORY@@SAPAV1@XZ 00469d00 f i GRPApplication.obj
 0001:00068d10       ?GetInstance@XLOG@@SAAAV1@XZ 00469d10 f i GRPApplication.obj
 0001:00068da0       ?IsFullScreen@GRPAPPLICATION@@QAE_NXZ 00469da0 f i GRPApplication.obj
 0001:00068dc0       ?IsFullScreen@GRPSCREEN@@QAE_NXZ 00469dc0 f i GRPApplication.obj
 0001:00068de0       ?IsInit@SNDFACTORY@@QAE_NXZ 00469de0 f i GRPApplication.obj
 0001:00068e00       ?SetClearFlags@GRPRENDERER@@QAEXW4GRPSCENE_CLEARFLAGS_TYPE@@@Z 00469e00 f i GRPApplication.obj
 0001:00068e20       ?SetHeight@GRPPROPERTIES@@QAEXI@Z 00469e20 f i GRPApplication.obj
 0001:00068e40       ?SetIsFullScreen@GRPSCREEN@@QAEX_N@Z 00469e40 f i GRPApplication.obj
 0001:00068e60       ?SetPosition@GRPPROPERTIES@@QAEXII@Z 00469e60 f i GRPApplication.obj
 0001:00068e80       ?SetResourceLocation@GRPMATERIALLIBRARY@@QAE_NVXPATH@@@Z 00469e80 f i GRPApplication.obj
 0001:00068ef0       ?SetWidth@GRPPROPERTIES@@QAEXI@Z 00469ef0 f i GRPApplication.obj
 0001:00068f10       ?SubscribeEvent@XOBSERVER@@QAE_NIPAVXSUBJECT@@@Z 00469f10 f i GRPApplication.obj
 0001:00068f40       ?UnSubscribeEvent@XOBSERVER@@QAE_NIPAVXSUBJECT@@@Z 00469f40 f i GRPApplication.obj
 0001:00068f70       ?Align@GRPARRAYALIGNTOOL@@QAEXPAVGRPOBJECT@@@Z 00469f70 f   GRPArrayAlignTool.obj
 0001:000694d0       ??0GRPPOINT@@QAE@ABV0@@Z   0046a4d0 f i GRPArrayAlignTool.obj
 0001:00069530       ??YGRPPOINT@@QAE?AV0@V0@@Z 0046a530 f i GRPArrayAlignTool.obj
 0001:000695b0       ?FastGet@?$XVECTOR@PAVGRPELEMENT@@@@QAEPAVGRPELEMENT@@H@Z 0046a5b0 f i GRPArrayAlignTool.obj
 0001:000695d0       ?Get@?$XVECTOR@PAVGRPELEMENT@@@@QAEPAVGRPELEMENT@@H@Z 0046a5d0 f i GRPArrayAlignTool.obj
 0001:00069610       ?GetBoundingBox@GRPELEMENT@@QAEPAVGRPBB@@XZ 0046a610 f i GRPArrayAlignTool.obj
 0001:00069630       ?GetPosition@GRPNODE@@QAEPBVGRPVECTOR@@XZ 0046a630 f i GRPArrayAlignTool.obj
 0001:00069650       ?GetSize@?$XVECTOR@PAVGRPELEMENT@@@@QAEIXZ 0046a650 f i GRPArrayAlignTool.obj
 0001:00069670       ?ResolveCubicBezier@GRPBEZIERSPLINE@@QAEPAVGRPSPLINE@@PAV2@H@Z 0046a670 f   GRPBezierSpline.obj
 0001:00069ab0       ?InterpolateBezier@GRPBEZIERSPLINE@@UAE?AVGRPPOINT@@PAV?$XVECTOR@PAVGRPPOINT@@@@M@Z 0046aab0 f   GRPBezierSpline.obj
 0001:00069c90       ?CombinatorialPermutation@GRPBEZIERSPLINE@@QAEMMM@Z 0046ac90 f   GRPBezierSpline.obj
 0001:00069d30       ?Factorial@GRPBEZIERSPLINE@@QAEMM@Z 0046ad30 f   GRPBezierSpline.obj
 0001:00069da0       ?Init@GRPBEZIERSPLINE@@UAEXPAVGRPSPLINE@@@Z 0046ada0 f   GRPBezierSpline.obj
 0001:00069ff0       ?GetStep@GRPBEZIERSPLINE@@UAEMM@Z 0046aff0 f   GRPBezierSpline.obj
 0001:0006a040       ?InterpolateBezier@GRPBEZIERCURVE@@UAE?AVGRPPOINT@@PAV?$XVECTOR@PAVGRPPOINT@@@@M@Z 0046b040 f   GRPBezierSpline.obj
 0001:0006a2b0       ?InterpolateBezier@GRPBEZIERCURVE@@QAE?AVGRPPOINT@@M@Z 0046b2b0 f   GRPBezierSpline.obj
 0001:0006a480       ?Init@GRPBEZIERCURVE@@UAEXPAVGRPSPLINE@@@Z 0046b480 f   GRPBezierSpline.obj
 0001:0006a700       ??0?$XVECTOR@PAVGRPPOINT@@@@QAE@XZ 0046b700 f i GRPBezierSpline.obj
 0001:0006a720       ??0GRPPOINT@@QAE@MMMI@Z    0046b720 f i GRPBezierSpline.obj
 0001:0006a770       ??0GRPPOINT@@QAE@PAV0@@Z   0046b770 f i GRPBezierSpline.obj
 0001:0006a7c0       ??1?$XVECTOR@PAVGRPPOINT@@@@UAE@XZ 0046b7c0 f i GRPBezierSpline.obj
 0001:0006a810       ??4GRPPOINT@@QAEAAV0@ABV0@@Z 0046b810 f i GRPBezierSpline.obj
 0001:0006a860       ??_E?$XVECTOR@PAVGRPPOINT@@@@UAEPAXI@Z 0046b860 f i GRPBezierSpline.obj
 0001:0006a860       ??_G?$XVECTOR@PAVGRPPOINT@@@@UAEPAXI@Z 0046b860 f i GRPBezierSpline.obj
 0001:0006a890       ?Add@?$XVECTOR@PAV?$XVECTOR@PAVGRPPOINT@@@@@@QAE_NPAV?$XVECTOR@PAVGRPPOINT@@@@@Z 0046b890 f i GRPBezierSpline.obj
 0001:0006a920       ?Add@?$XVECTOR@PAVGRPPOINT@@@@QAE_NPAVGRPPOINT@@@Z 0046b920 f i GRPBezierSpline.obj
 0001:0006a9b0       ?Clean@?$XVECTOR@PAVGRPPOINT@@@@AAEXXZ 0046b9b0 f i GRPBezierSpline.obj
 0001:0006a9f0       ?FastGet@?$XVECTOR@PAVGRPANCHORPOINT@@@@QAEPAVGRPANCHORPOINT@@H@Z 0046b9f0 f i GRPBezierSpline.obj
 0001:0006aa10       ?FastGet@?$XVECTOR@PAVGRPPOINT@@@@QAEPAVGRPPOINT@@H@Z 0046ba10 f i GRPBezierSpline.obj
 0001:0006aa30       ?Get@?$XVECTOR@PAVGRPANCHORPOINT@@@@QAEPAVGRPANCHORPOINT@@H@Z 0046ba30 f i GRPBezierSpline.obj
 0001:0006aa70       ?Get@?$XVECTOR@PAVGRPPOINT@@@@QAEPAVGRPPOINT@@H@Z 0046ba70 f i GRPBezierSpline.obj
 0001:0006aab0       ?GetLast@?$XVECTOR@PAV?$XVECTOR@PAVGRPPOINT@@@@@@QAEPAV?$XVECTOR@PAVGRPPOINT@@@@XZ 0046bab0 f i GRPBezierSpline.obj
 0001:0006aad0       ?GetSize@?$XVECTOR@PAVGRPANCHORPOINT@@@@QAEIXZ 0046bad0 f i GRPBezierSpline.obj
 0001:0006aaf0       ?GetSize@?$XVECTOR@PAVGRPPOINT@@@@QAEIXZ 0046baf0 f i GRPBezierSpline.obj
 0001:0006ab10       ?Interpolate@GRPPOINT@@SA?BV1@ABV1@0M@Z 0046bb10 f i GRPBezierSpline.obj
 0001:0006aba0       ?ResizeAdd@?$XVECTOR@PAV?$XVECTOR@PAVGRPPOINT@@@@@@AAE_NXZ 0046bba0 f i GRPBezierSpline.obj
 0001:0006ac60       ?ResizeAdd@?$XVECTOR@PAVGRPPOINT@@@@AAE_NXZ 0046bc60 f i GRPBezierSpline.obj
 0001:0006ad20       ??0GRPBITMAPSEQUENCE@@QAE@XZ 0046bd20 f   GRPBitmapSequence.obj
 0001:0006adb0       ??1GRPBITMAPSEQUENCE@@UAE@XZ 0046bdb0 f   GRPBitmapSequence.obj
 0001:0006ae30       ?AddFrame@GRPBITMAPSEQUENCE@@QAE_NPAVGRPBITMAP@@HH@Z 0046be30 f   GRPBitmapSequence.obj
 0001:0006aef0       ?DelAllSequence@GRPBITMAPSEQUENCE@@QAE_N_N@Z 0046bef0 f   GRPBitmapSequence.obj
 0001:0006af40       ?GetActualFrame@GRPBITMAPSEQUENCE@@QAEPAVGRPBITMAPFRAME@@XZ 0046bf40 f   GRPBitmapSequence.obj
 0001:0006af60       ?GetActualFrameIndex@GRPBITMAPSEQUENCE@@QAEHXZ 0046bf60 f   GRPBitmapSequence.obj
 0001:0006af80       ?GetFrame@GRPBITMAPSEQUENCE@@QAEPAVGRPBITMAPFRAME@@G@Z 0046bf80 f   GRPBitmapSequence.obj
 0001:0006afc0       ?GetNFrames@GRPBITMAPSEQUENCE@@QAEHXZ 0046bfc0 f   GRPBitmapSequence.obj
 0001:0006afe0       ?GetNLoops@GRPBITMAPSEQUENCE@@QAEHXZ 0046bfe0 f   GRPBitmapSequence.obj
 0001:0006b000       ?GetNLoopsMade@GRPBITMAPSEQUENCE@@QAEHXZ 0046c000 f   GRPBitmapSequence.obj
 0001:0006b020       ?SetNLoops@GRPBITMAPSEQUENCE@@QAE_NH@Z 0046c020 f   GRPBitmapSequence.obj
 0001:0006b040       ?SetNLoopsMade@GRPBITMAPSEQUENCE@@QAE_NH@Z 0046c040 f   GRPBitmapSequence.obj
 0001:0006b060       ?AdjustAllSequence@GRPBITMAPSEQUENCE@@QAE_NHH@Z 0046c060 f   GRPBitmapSequence.obj
 0001:0006b0e0       ?Play@GRPBITMAPSEQUENCE@@QAEPAVGRPBITMAPFRAME@@H_N0@Z 0046c0e0 f   GRPBitmapSequence.obj
 0001:0006b180       ?Stop@GRPBITMAPSEQUENCE@@QAE_NXZ 0046c180 f   GRPBitmapSequence.obj
 0001:0006b1f0       ?Pause@GRPBITMAPSEQUENCE@@QAE_NXZ 0046c1f0 f   GRPBitmapSequence.obj
 0001:0006b230       ?Finished@GRPBITMAPSEQUENCE@@QAE_NXZ 0046c230 f   GRPBitmapSequence.obj
 0001:0006b270       ?IsPlaying@GRPBITMAPSEQUENCE@@QAE_NXZ 0046c270 f   GRPBitmapSequence.obj
 0001:0006b290       ?IsEndSequence@GRPBITMAPSEQUENCE@@QAE_NXZ 0046c290 f   GRPBitmapSequence.obj
 0001:0006b2b0       ?Update@GRPBITMAPSEQUENCE@@QAEPAVGRPBITMAPFRAME@@XZ 0046c2b0 f   GRPBitmapSequence.obj
 0001:0006b420       ?AdjustTime@GRPBITMAPSEQUENCE@@QAE_NH@Z 0046c420 f   GRPBitmapSequence.obj
 0001:0006b460       ?Clean@GRPBITMAPSEQUENCE@@AAEXXZ 0046c460 f   GRPBitmapSequence.obj
 0001:0006b4c0       ??0?$XVECTOR@PAVGRPBITMAPFRAME@@@@QAE@XZ 0046c4c0 f i GRPBitmapSequence.obj
 0001:0006b4e0       ??0GRPBITMAPFRAME@@QAE@XZ  0046c4e0 f i GRPBitmapSequence.obj
 0001:0006b500       ??1?$XVECTOR@PAVGRPBITMAPFRAME@@@@UAE@XZ 0046c500 f i GRPBitmapSequence.obj
 0001:0006b550       ??1GRPBITMAPFRAME@@UAE@XZ  0046c550 f i GRPBitmapSequence.obj
 0001:0006b5d0       ??_E?$XVECTOR@PAVGRPBITMAPFRAME@@@@UAEPAXI@Z 0046c5d0 f i GRPBitmapSequence.obj
 0001:0006b5d0       ??_G?$XVECTOR@PAVGRPBITMAPFRAME@@@@UAEPAXI@Z 0046c5d0 f i GRPBitmapSequence.obj
 0001:0006b600       ??_GGRPBITMAPFRAME@@UAEPAXI@Z 0046c600 f i GRPBitmapSequence.obj
 0001:0006b600       ??_EGRPBITMAPFRAME@@UAEPAXI@Z 0046c600 f i GRPBitmapSequence.obj
 0001:0006b630       ??_GGRPBITMAPSEQUENCE@@UAEPAXI@Z 0046c630 f i GRPBitmapSequence.obj
 0001:0006b630       ??_EGRPBITMAPSEQUENCE@@UAEPAXI@Z 0046c630 f i GRPBitmapSequence.obj
 0001:0006b660       ?Add@?$XVECTOR@PAVGRPBITMAPFRAME@@@@QAE_NPAVGRPBITMAPFRAME@@@Z 0046c660 f i GRPBitmapSequence.obj
 0001:0006b6f0       ?Clean@?$XVECTOR@PAVGRPBITMAPFRAME@@@@AAEXXZ 0046c6f0 f i GRPBitmapSequence.obj
 0001:0006b730       ?Clean@GRPBITMAPFRAME@@AAEXXZ 0046c730 f i GRPBitmapSequence.obj
 0001:0006b760       ?DeleteAll@?$XVECTOR@PAVGRPBITMAPFRAME@@@@QAE_NXZ 0046c760 f i GRPBitmapSequence.obj
 0001:0006b7b0       ?DeleteContents@?$XVECTOR@PAVGRPBITMAPFRAME@@@@QAE_NXZ 0046c7b0 f i GRPBitmapSequence.obj
 0001:0006b850       ?Get@?$XVECTOR@PAVGRPBITMAPFRAME@@@@QAEPAVGRPBITMAPFRAME@@H@Z 0046c850 f i GRPBitmapSequence.obj
 0001:0006b890       ?GetSize@?$XVECTOR@PAVGRPBITMAPFRAME@@@@QAEIXZ 0046c890 f i GRPBitmapSequence.obj
 0001:0006b8b0       ?IsEmpty@?$XVECTOR@PAVGRPBITMAPFRAME@@@@QAE_NXZ 0046c8b0 f i GRPBitmapSequence.obj
 0001:0006b8e0       ?ResizeAdd@?$XVECTOR@PAVGRPBITMAPFRAME@@@@AAE_NXZ 0046c8e0 f i GRPBitmapSequence.obj
 0001:0006b9a0       ?SetAdjustX@GRPBITMAPFRAME@@QAEXH@Z 0046c9a0 f i GRPBitmapSequence.obj
 0001:0006b9c0       ?SetAdjustY@GRPBITMAPFRAME@@QAEXH@Z 0046c9c0 f i GRPBitmapSequence.obj
 0001:0006b9e0       ?SetBitmap@GRPBITMAPFRAME@@QAEXPAVGRPBITMAP@@@Z 0046c9e0 f i GRPBitmapSequence.obj
 0001:0006ba00       ??0GRPBLENDINGPASS@@QAE@PA_WW4GRPBLENDINGMODE@@@Z 0046ca00 f   GRPBlendingPass.obj
 0001:0006bb40       ?GetBlendedObjects@GRPBLENDINGPASS@@QAEHXZ 0046cb40 f   GRPBlendingPass.obj
 0001:0006bd00       ?Begin@GRPBLENDINGPASS@@UAEXXZ 0046cd00 f   GRPBlendingPass.obj
 0001:0006bd30       ?End@GRPBLENDINGPASS@@UAEXXZ 0046cd30 f   GRPBlendingPass.obj
 0001:0006bd60       ?OnAdded@GRPBLENDINGPASS@@UAE_NXZ 0046cd60 f   GRPBlendingPass.obj
 0001:0006be20       ??1GRPBLENDINGPASS@@UAE@XZ 0046ce20 f i GRPBlendingPass.obj
 0001:0006be40       ??_DGRPBLENDINGPASS@@QAEXXZ 0046ce40 f i GRPBlendingPass.obj
 0001:0006be70       ??_GGRPBLENDINGPASS@@UAEPAXI@Z 0046ce70 f i GRPBlendingPass.obj
 0001:0006be70       ??_EGRPBLENDINGPASS@@UAEPAXI@Z 0046ce70 f i GRPBlendingPass.obj
 0001:0006bec0       ?Clean@GRPBLENDINGPASS@@EAEXXZ 0046cec0 f i GRPBlendingPass.obj
 0001:0006bed0       ?Finish@GRPPASS@@UAEXXZ    0046ced0 f i GRPBlendingPass.obj
 0001:0006bee0       ?Get@?$XLIST@PAVGRPELEMENT@@@@QAEPAVGRPELEMENT@@I@Z 0046cee0 f i GRPBlendingPass.obj
 0001:0006bf40       ?GetLayers@GRPMATERIAL@@QAEPAV?$XMAP@IPAVGRPTEXTURE@@@@XZ 0046cf40 f i GRPBlendingPass.obj
 0001:0006bf60       ?GetPass@GRPSCENE@@QAEPAVGRPPASS@@XZ 0046cf60 f i GRPBlendingPass.obj
 0001:0006bf80       ?GetSize@?$XLIST@PAVGRPELEMENT@@@@QAEIXZ 0046cf80 f i GRPBlendingPass.obj
 0001:0006bfa0       ?GetSize@?$XMAP@IPAVGRPTEXTURE@@@@QAEIXZ 0046cfa0 f i GRPBlendingPass.obj
 0001:0006bfc0       ?GetSubjectType@GRPPASS@@UAEIXZ 0046cfc0 f i GRPBlendingPass.obj
 0001:0006bfd0       ?OnDraw@GRPPASS@@UAEXPAVGRPELEMENT@@@Z 0046cfd0 f i GRPBlendingPass.obj
 0001:0006bfe0       ?SetBlending@GRPPASS@@QAEX_NW4GRPBLENDINGMODE@@@Z 0046cfe0 f i GRPBlendingPass.obj
 0001:0006c010       ?Start@GRPPASS@@UAEXXZ     0046d010 f i GRPBlendingPass.obj
 0001:0006c020       ??0GRPBUFFEROPENGLRENDER@@QAE@XZ 0046d020 f   GRPBufferOpenGLRender.obj
 0001:0006c040       ??1GRPBUFFEROPENGLRENDER@@UAE@XZ 0046d040 f   GRPBufferOpenGLRender.obj
 0001:0006c090       ?Ini@GRPBUFFEROPENGLRENDER@@QAE_NHHH@Z 0046d090 f   GRPBufferOpenGLRender.obj
 0001:0006c2e0       ?SetActive@GRPBUFFEROPENGLRENDER@@QAE_N_N@Z 0046d2e0 f   GRPBufferOpenGLRender.obj
 0001:0006c330       ?GetFrameBuffer@GRPBUFFEROPENGLRENDER@@QAEPAEXZ 0046d330 f   GRPBufferOpenGLRender.obj
 0001:0006c3b0       ?End@GRPBUFFEROPENGLRENDER@@QAE_NXZ 0046d3b0 f   GRPBufferOpenGLRender.obj
 0001:0006c450       ?CheckFramebuffer@GRPBUFFEROPENGLRENDER@@AAE_NXZ 0046d450 f   GRPBufferOpenGLRender.obj
 0001:0006c520       ??_GGRPBUFFEROPENGLRENDER@@UAEPAXI@Z 0046d520 f i GRPBufferOpenGLRender.obj
 0001:0006c520       ??_EGRPBUFFEROPENGLRENDER@@UAEPAXI@Z 0046d520 f i GRPBufferOpenGLRender.obj
 0001:0006c550       ?Clean@GRPBUFFEROPENGLRENDER@@AAEXXZ 0046d550 f i GRPBufferOpenGLRender.obj
 0001:0006c5c0       ?GetBuffer@GRPBITMAP@@QAEPAEXZ 0046d5c0 f i GRPBufferOpenGLRender.obj
 0001:0006c5e0       ?GetHeight@GRPPROPERTIES@@QAEIXZ 0046d5e0 f i GRPBufferOpenGLRender.obj
 0001:0006c600       ?GetWidth@GRPPROPERTIES@@QAEIXZ 0046d600 f i GRPBufferOpenGLRender.obj
 0001:0006c620       ??0GRPCAMERA@@QAE@XZ       0046d620 f   GRPCamera.obj
 0001:0006c900       ??1GRPCAMERA@@UAE@XZ       0046d900 f   GRPCamera.obj
 0001:0006c9b0       ?BuildLookAtMatrix@GRPCAMERA@@QAEXXZ 0046d9b0 f   GRPCamera.obj
 0001:0006cf10       ?BuildLookAt@GRPCAMERA@@UAEXXZ 0046df10 f   GRPCamera.obj
 0001:0006cf40       ?BuildLookAtTargetMatrix@GRPCAMERA@@QAEXXZ 0046df40 f   GRPCamera.obj
 0001:0006d230       ?BuildLookAtFreeMatrix@GRPCAMERA@@QAEXXZ 0046e230 f   GRPCamera.obj
 0001:0006d400       ?SetTarget@GRPCAMERA@@QAEXPAVGRPNODE@@@Z 0046e400 f   GRPCamera.obj
 0001:0006d440       ?CopyFrom@GRPCAMERA@@QAEXPAV1@@Z 0046e440 f   GRPCamera.obj
 0001:0006d650       ?UpdateFov@GRPCAMERA@@QAEXXZ 0046e650 f   GRPCamera.obj
 0001:0006d7e0       ?SetViewport@GRPCAMERA@@UAE_NPAVGRPVIEWPORT@@@Z 0046e7e0 f   GRPCamera.obj
 0001:0006d810       ?GetViewport@GRPCAMERA@@QAEPAVGRPVIEWPORT@@XZ 0046e810 f   GRPCamera.obj
 0001:0006d830       ?SetValue@GRPCAMERA@@UAE_NW4GRPANIMATIONCURVETYPE@@W4GRPANIMATIONCURVEAXIS@@NN@Z 0046e830 f   GRPCamera.obj
 0001:0006d8a0       ?CreateDepthBuffer@GRPCAMERA@@QAE_NIIW4GRPPROPERTYMODE@@@Z 0046e8a0 f   GRPCamera.obj
 0001:0006da90       ?CreateRenderBuffer@GRPCAMERA@@QAE_NIIW4GRPPROPERTYMODE@@@Z 0046ea90 f   GRPCamera.obj
 0001:0006dc80       ?CreateRayFromScreenPoint@GRPCAMERA@@QAE?AVGRPRAY@@MM@Z 0046ec80 f   GRPCamera.obj
 0001:0006e220       ?Orbit@GRPCAMERA@@QAE_NMM@Z 0046f220 f   GRPCamera.obj
 0001:0006e4f0       ??0GRPCOLOR@@QAE@ABV0@@Z   0046f4f0 f i GRPCamera.obj
 0001:0006e550       ??0GRPMATRIX@@QAE@ABV0@@Z  0046f550 f i GRPCamera.obj
 0001:0006e590       ??0GRPRAY@@QAE@$$QAV0@@Z   0046f590 f i GRPCamera.obj
 0001:0006e5f0       ??0GRPRAY@@QAE@XZ          0046f5f0 f i GRPCamera.obj
 0001:0006e660       ??0GRPVECTOR@@QAE@VGRPPOINT@@@Z 0046f660 f i GRPCamera.obj
 0001:0006e6c0       ??1GRPRAY@@QAE@XZ          0046f6c0 f i GRPCamera.obj
 0001:0006e6e0       ??4GRPCOLOR@@QAEAAV0@V0@@Z 0046f6e0 f i GRPCamera.obj
 0001:0006e740       ??4GRPMATERIALATTRIBUTES@@QAEAAV0@ABV0@@Z 0046f740 f i GRPCamera.obj
 0001:0006e8b0       ??4GRPNAMED@@QAEAAV0@ABV0@@Z 0046f8b0 f i GRPCamera.obj
 0001:0006e8f0       ??4GRPVIEWPORT@@QAEAAV0@ABV0@@Z 0046f8f0 f i GRPCamera.obj
 0001:0006eb20       ??4XSUBJECT@@QAEAAV0@ABV0@@Z 0046fb20 f i GRPCamera.obj
 0001:0006eb30       ??BGRPCAMERA@@QAE?AVGRPMATRIX@@XZ 0046fb30 f i GRPCamera.obj
 0001:0006eb70       ??BGRPVECTOR@@QAE?AVGRPPOINT@@XZ 0046fb70 f i GRPCamera.obj
 0001:0006ebe0       ??_DGRPCAMERA@@QAEXXZ      0046fbe0 f i GRPCamera.obj
 0001:0006ec10       ??_GGRPCAMERA@@UAEPAXI@Z   0046fc10 f i GRPCamera.obj
 0001:0006ec10       ??_EGRPCAMERA@@UAEPAXI@Z   0046fc10 f i GRPCamera.obj
 0001:0006ec60       ??_GGRPMATRIX@@UAEPAXI@Z   0046fc60 f i GRPCamera.obj
 0001:0006ec60       ??_EGRPMATRIX@@UAEPAXI@Z   0046fc60 f i GRPCamera.obj
 0001:0006ec90       ?Clean@GRPCAMERA@@EAEXXZ   0046fc90 f i GRPCamera.obj
 0001:0006ede0       ?GetAspectRatio@GRPVIEWPORT@@QAEMXZ 0046fde0 f i GRPCamera.obj
 0001:0006ee00       ?GetSubjectType@GRPCAMERA@@UAEIXZ 0046fe00 f i GRPCamera.obj
 0001:0006ee10       ?GetWindowSize@GRPVIEWPORT@@QAEXAAM0@Z 0046fe10 f i GRPCamera.obj
 0001:0006ee40       ?Notify@GRPNODE@@UAE_NW4GRPMSGTYPE@@PAVGRPSUBJECT@@@Z 0046fe40 f i GRPCamera.obj
 0001:0006ee50       ??0GRPCOLOR@@QAE@PAM@Z     0046fe50 f   GRPColor.obj
 0001:0006ef30       ??0GRPCOLOR@@QAE@NNNN@Z    0046ff30 f   GRPColor.obj
 0001:0006f020       ??0GRPCOLOR@@QAE@MMMM@Z    00470020 f   GRPColor.obj
 0001:0006f110       ??0GRPCOLOR@@QAE@HHHH@Z    00470110 f   GRPColor.obj
 0001:0006f1e0       ??0GRPCOLOR@@QAE@PA_W@Z    004701e0 f   GRPColor.obj
 0001:0006f250       ??0GRPCOLOR@@QAE@XZ        00470250 f   GRPColor.obj
 0001:0006f2c0       ??1GRPCOLOR@@UAE@XZ        004702c0 f   GRPColor.obj
 0001:0006f320       ?GetRed@GRPCOLOR@@QAEMXZ   00470320 f   GRPColor.obj
 0001:0006f340       ?SetRed@GRPCOLOR@@QAEXM@Z  00470340 f   GRPColor.obj
 0001:0006f360       ?GetGreen@GRPCOLOR@@QAEMXZ 00470360 f   GRPColor.obj
 0001:0006f380       ?SetGreen@GRPCOLOR@@QAEXM@Z 00470380 f   GRPColor.obj
 0001:0006f3a0       ?GetBlue@GRPCOLOR@@QAEMXZ  004703a0 f   GRPColor.obj
 0001:0006f3c0       ?SetBlue@GRPCOLOR@@QAEXM@Z 004703c0 f   GRPColor.obj
 0001:0006f3e0       ?GetAlpha@GRPCOLOR@@QAEMXZ 004703e0 f   GRPColor.obj
 0001:0006f400       ?SetAlpha@GRPCOLOR@@QAEXM@Z 00470400 f   GRPColor.obj
 0001:0006f420       ?Set@GRPCOLOR@@QAEXMMMM@Z  00470420 f   GRPColor.obj
 0001:0006f470       ?Set@GRPCOLOR@@QAEXPA_W@Z  00470470 f   GRPColor.obj
 0001:0006fb80       ?Get@GRPCOLOR@@QAEXAAM000@Z 00470b80 f   GRPColor.obj
 0001:0006fbc0       ??$__vcrt_va_start_verify_argument_type@QBD@@YAXXZ 00470bc0 f i GRPColor.obj
 0001:0006fbd0       ?Clean@GRPCOLOR@@QAEXXZ    00470bd0 f i GRPColor.obj
 0001:0006fc20       ___local_stdio_scanf_options 00470c20 f i GRPColor.obj
 0001:0006fc30       __vsscanf_s_l              00470c30 f i GRPColor.obj
 0001:0006fc60       _sscanf_s                  00470c60 f i GRPColor.obj
 0001:0006fca0       _vsscanf_s                 00470ca0 f i GRPColor.obj
 0001:0006fcc0       ??0CARET@GRPCONSOLE@@QAE@XZ 00470cc0 f   GRPConsole.obj
 0001:0006fd40       ?Clean@CARET@GRPCONSOLE@@AAEXXZ 00470d40 f   GRPConsole.obj
 0001:0006fde0       ??0PRINTABLE@GRPCONSOLE@@QAE@PA_WVGRPCOLOR@@MPAVGRPFONT@@@Z 00470de0 f   GRPConsole.obj
 0001:0006ff60       ??1PRINTABLE@GRPCONSOLE@@QAE@XZ 00470f60 f   GRPConsole.obj
 0001:0006ffc0       ??0GRPCONSOLE@@QAE@XZ      00470fc0 f   GRPConsole.obj
 0001:000701f0       ??0GRPCONSOLE@@QAE@PAVGRPSCENE@@@Z 004711f0 f   GRPConsole.obj
 0001:00070420       ??0GRPCONSOLE@@QAE@PAVGRPSCREEN@@@Z 00471420 f   GRPConsole.obj
 0001:00070660       ??0GRPCONSOLE@@QAE@PAVGRPSCENE@@PAVGRPSCREEN@@@Z 00471660 f   GRPConsole.obj
 0001:000708a0       ??1GRPCONSOLE@@UAE@XZ      004718a0 f   GRPConsole.obj
 0001:00070ae0       ?Create@GRPCONSOLE@@QAE_NI@Z 00471ae0 f   GRPConsole.obj
 0001:00071150       ?InitDefaultColors@GRPCONSOLE@@QAE_NXZ 00472150 f   GRPConsole.obj
 0001:000714e0       ?Destroy@GRPCONSOLE@@QAEXXZ 004724e0 f   GRPConsole.obj
 0001:00071640       ?SetScreen@GRPCONSOLE@@QAEXPAVGRPSCREEN@@@Z 00472640 f   GRPConsole.obj
 0001:00071660       ?CreateBackgroundPlane@GRPCONSOLE@@QAE_NXZ 00472660 f   GRPConsole.obj
 0001:00071950       ?Maximize@GRPCONSOLE@@UAE_NXZ 00472950 f   GRPConsole.obj
 0001:00071a00       ?Resize@GRPCONSOLE@@QAEXXZ 00472a00 f   GRPConsole.obj
 0001:00071c00       ?Update@GRPCONSOLE@@QAE_NXZ 00472c00 f   GRPConsole.obj
 0001:00071d40       ?SetTextProgram@GRPCONSOLE@@QAEXPAVGRPSHADERPROGRAM@@@Z 00472d40 f   GRPConsole.obj
 0001:00071d60       ?SetFont@GRPCONSOLE@@QAEXPAVGRPFONT@@@Z 00472d60 f   GRPConsole.obj
 0001:00071d80       ?SetArea@GRPCONSOLE@@QAEXPAVGRPBB@@@Z 00472d80 f   GRPConsole.obj
 0001:00072200       ?SetArea@GRPCONSOLE@@QAEXMMMM@Z 00473200 f   GRPConsole.obj
 0001:00072320       ?SetViewport@GRPCONSOLE@@QAEXMMMM@Z 00473320 f   GRPConsole.obj
 0001:00072390       ?SetBackgroundMaterial@GRPCONSOLE@@QAEXPAVGRPMATERIAL@@@Z 00473390 f   GRPConsole.obj
 0001:00072420       ?HandleEvent@GRPCONSOLE@@UAEXPAVXEVENT@@@Z 00473420 f   GRPConsole.obj
 0001:00072450       ?Add@GRPCONSOLE@@QAEXPA_W@Z 00473450 f   GRPConsole.obj
 0001:00072650       ?Print@GRPCONSOLE@@UAE_NPA_W@Z 00473650 f   GRPConsole.obj
 0001:000728e0       ?Print@GRPCONSOLE@@UAE_NIPA_W@Z 004738e0 f   GRPConsole.obj
 0001:00072950       ?Print@GRPCONSOLE@@QAE_NVGRPCOLOR@@PA_W@Z 00473950 f   GRPConsole.obj
 0001:000729e0       ?PrintImp@GRPCONSOLE@@UAE_NPA_W@Z 004739e0 f   GRPConsole.obj
 0001:00072ef0       ?SetColor@GRPCONSOLE@@QAEXVGRPCOLOR@@@Z 00473ef0 f   GRPConsole.obj
 0001:00072f70       ?Clear@GRPCONSOLE@@UAE_NXZ 00473f70 f   GRPConsole.obj
 0001:00072ff0       ?AddBackground@GRPCONSOLE@@QAEXPAVGRPELEMENT@@@Z 00473ff0 f   GRPConsole.obj
 0001:00073020       ?Notify@GRPCONSOLE@@UAE_NW4GRPMSGTYPE@@PAVGRPSUBJECT@@@Z 00474020 f   GRPConsole.obj
 0001:00073140       ?DeleteLine@GRPCONSOLE@@QAEXH@Z 00474140 f   GRPConsole.obj
 0001:00073150       ?ScrollLines@GRPCONSOLE@@QAE_NXZ 00474150 f   GRPConsole.obj
 0001:000732c0       ?ScrollDown@GRPCONSOLE@@QAE_NXZ 004742c0 f   GRPConsole.obj
 0001:000732f0       ?ScrollUp@GRPCONSOLE@@QAE_NXZ 004742f0 f   GRPConsole.obj
 0001:00073320       ?ScrollTop@GRPCONSOLE@@QAE_NXZ 00474320 f   GRPConsole.obj
 0001:00073340       ?ScrollBottom@GRPCONSOLE@@QAE_NXZ 00474340 f   GRPConsole.obj
 0001:00073390       ?MoveTextElementToConsole@GRPCONSOLE@@IAEXPAVGRPTEXTBOX@@@Z 00474390 f   GRPConsole.obj
 0001:000735d0       ??0?$XMAP@IPAVGRPCOLOR@@@@QAE@XZ 004745d0 f i GRPConsole.obj
 0001:00073650       ??0?$XMAP@VGRPCOLOR@@PAVGRPMATERIAL@@@@QAE@XZ 00474650 f i GRPConsole.obj
 0001:000736d0       ??0?$XVECTOR@PAVGRPCOLOR@@@@QAE@XZ 004746d0 f i GRPConsole.obj
 0001:000736f0       ??0?$XVECTOR@PAVGRPELEMENT@@@@QAE@XZ 004746f0 f i GRPConsole.obj
 0001:00073710       ??0?$XVECTOR@PAVGRPMATERIAL@@@@QAE@XZ 00474710 f i GRPConsole.obj
 0001:00073730       ??0?$XVECTOR@PAVPRINTABLE@GRPCONSOLE@@@@QAE@XZ 00474730 f i GRPConsole.obj
 0001:00073750       ??0?$XVECTOR@VGRPCOLOR@@@@QAE@XZ 00474750 f i GRPConsole.obj
 0001:00073770       ??0GRPAABB@@QAE@XZ         00474770 f i GRPConsole.obj
 0001:000737f0       ??0GRPBB@@QAE@MMMMMMMMMMMM@Z 004747f0 f i GRPConsole.obj
 0001:000738f0       ??0GRPFONTATTRIBUTES@@QAE@XZ 004748f0 f i GRPConsole.obj
 0001:00073910       ??0GRPTEXTELEMENT@@QAE@XZ  00474910 f i GRPConsole.obj
 0001:00073a00       ??0XOBSERVER@@QAE@XZ       00474a00 f i GRPConsole.obj
 0001:00073a20       ??1?$XMAP@IPAVGRPCOLOR@@@@UAE@XZ 00474a20 f i GRPConsole.obj
 0001:00073a50       ??1?$XMAP@VGRPCOLOR@@PAVGRPMATERIAL@@@@UAE@XZ 00474a50 f i GRPConsole.obj
 0001:00073a80       ??1?$XVECTOR@PAVGRPCOLOR@@@@UAE@XZ 00474a80 f i GRPConsole.obj
 0001:00073ad0       ??1?$XVECTOR@PAVGRPELEMENT@@@@UAE@XZ 00474ad0 f i GRPConsole.obj
 0001:00073b20       ??1?$XVECTOR@PAVGRPMATERIAL@@@@UAE@XZ 00474b20 f i GRPConsole.obj
 0001:00073b70       ??1?$XVECTOR@PAVPRINTABLE@GRPCONSOLE@@@@UAE@XZ 00474b70 f i GRPConsole.obj
 0001:00073bc0       ??1?$XVECTOR@VGRPCOLOR@@@@UAE@XZ 00474bc0 f i GRPConsole.obj
 0001:00073c10       ??1CARET@GRPCONSOLE@@QAE@XZ 00474c10 f i GRPConsole.obj
 0001:00073c40       ??1GRPAABB@@UAE@XZ         00474c40 f i GRPConsole.obj
 0001:00073ca0       ??1GRPBB@@UAE@XZ           00474ca0 f i GRPConsole.obj
 0001:00073cf0       ??1GRPFONTATTRIBUTES@@UAE@XZ 00474cf0 f i GRPConsole.obj
 0001:00073d40       ??1GRPTEXTELEMENT@@UAE@XZ  00474d40 f i GRPConsole.obj
 0001:00073d70       ??1XOBSERVER@@UAE@XZ       00474d70 f i GRPConsole.obj
 0001:00073dc0       ??4GRPAABB@@QAEAAV0@ABV0@@Z 00474dc0 f i GRPConsole.obj
 0001:00073f10       ??4GRPBB@@QAEAAV0@ABV0@@Z  00474f10 f i GRPConsole.obj
 0001:00073f40       ??8GRPCOLOR@@QAE_NABV0@@Z  00474f40 f i GRPConsole.obj
 0001:00073fc0       ??_DGRPCONSOLE@@QAEXXZ     00474fc0 f i GRPConsole.obj
 0001:00073ff0       ??_DGRPTEXTELEMENT@@QAEXXZ 00474ff0 f i GRPConsole.obj
 0001:00074020       ??_EGRPCOLOR@@UAEPAXI@Z    00475020 f i GRPConsole.obj
 0001:000740c1       ??_EGRPCONSOLE@@$4PPPPPPPM@DJI@AEPAXI@Z 004750c1 f i GRPConsole.obj
 0001:000740cf       ??_EGRPCONSOLE@@WBHI@AEPAXI@Z 004750cf f i GRPConsole.obj
 0001:000740e0       ??_E?$XMAP@IPAVGRPCOLOR@@@@UAEPAXI@Z 004750e0 f i GRPConsole.obj
 0001:000740e0       ??_G?$XMAP@IPAVGRPCOLOR@@@@UAEPAXI@Z 004750e0 f i GRPConsole.obj
 0001:00074110       ??_E?$XMAP@VGRPCOLOR@@PAVGRPMATERIAL@@@@UAEPAXI@Z 00475110 f i GRPConsole.obj
 0001:00074110       ??_G?$XMAP@VGRPCOLOR@@PAVGRPMATERIAL@@@@UAEPAXI@Z 00475110 f i GRPConsole.obj
 0001:00074140       ??_G?$XVECTOR@PAVGRPCOLOR@@@@UAEPAXI@Z 00475140 f i GRPConsole.obj
 0001:00074140       ??_E?$XVECTOR@PAVGRPCOLOR@@@@UAEPAXI@Z 00475140 f i GRPConsole.obj
 0001:00074170       ??_G?$XVECTOR@PAVGRPELEMENT@@@@UAEPAXI@Z 00475170 f i GRPConsole.obj
 0001:00074170       ??_E?$XVECTOR@PAVGRPELEMENT@@@@UAEPAXI@Z 00475170 f i GRPConsole.obj
 0001:000741a0       ??_G?$XVECTOR@PAVGRPMATERIAL@@@@UAEPAXI@Z 004751a0 f i GRPConsole.obj
 0001:000741a0       ??_E?$XVECTOR@PAVGRPMATERIAL@@@@UAEPAXI@Z 004751a0 f i GRPConsole.obj
 0001:000741d0       ??_E?$XVECTOR@PAVPRINTABLE@GRPCONSOLE@@@@UAEPAXI@Z 004751d0 f i GRPConsole.obj
 0001:000741d0       ??_G?$XVECTOR@PAVPRINTABLE@GRPCONSOLE@@@@UAEPAXI@Z 004751d0 f i GRPConsole.obj
 0001:00074200       ??_E?$XVECTOR@VGRPCOLOR@@@@UAEPAXI@Z 00475200 f i GRPConsole.obj
 0001:00074200       ??_G?$XVECTOR@VGRPCOLOR@@@@UAEPAXI@Z 00475200 f i GRPConsole.obj
 0001:00074230       ??_GGRPAABB@@UAEPAXI@Z     00475230 f i GRPConsole.obj
 0001:00074230       ??_EGRPAABB@@UAEPAXI@Z     00475230 f i GRPConsole.obj
 0001:00074270       ??_EGRPBB@@UAEPAXI@Z       00475270 f i GRPConsole.obj
 0001:00074270       ??_GGRPBB@@UAEPAXI@Z       00475270 f i GRPConsole.obj
 0001:000742b0       ??_EGRPCONSOLE@@UAEPAXI@Z  004752b0 f i GRPConsole.obj
 0001:000742b0       ??_GGRPCONSOLE@@UAEPAXI@Z  004752b0 f i GRPConsole.obj
 0001:000742f0       ??_EGRPFONTATTRIBUTES@@UAEPAXI@Z 004752f0 f i GRPConsole.obj
 0001:000742f0       ??_GGRPFONTATTRIBUTES@@UAEPAXI@Z 004752f0 f i GRPConsole.obj
 0001:00074320       ??_EGRPTEXTELEMENT@@UAEPAXI@Z 00475320 f i GRPConsole.obj
 0001:00074320       ??_GGRPTEXTELEMENT@@UAEPAXI@Z 00475320 f i GRPConsole.obj
 0001:00074370       ??_GPRINTABLE@GRPCONSOLE@@QAEPAXI@Z 00475370 f i GRPConsole.obj
 0001:000743b0       ??_EXOBSERVER@@UAEPAXI@Z   004753b0 f i GRPConsole.obj
 0001:000743b0       ??_GXOBSERVER@@UAEPAXI@Z   004753b0 f i GRPConsole.obj
 0001:000743e0       ?Add@?$XMAP@IPAVGRPCOLOR@@@@QAE_NIPAVGRPCOLOR@@@Z 004753e0 f i GRPConsole.obj
 0001:00074440       ?Add@?$XMAP@PAVXSTRING@@PAVGRPMATERIAL@@@@QAE_NPAVXSTRING@@PAVGRPMATERIAL@@@Z 00475440 f i GRPConsole.obj
 0001:000744a0       ?Add@?$XMAP@VGRPCOLOR@@PAVGRPMATERIAL@@@@QAE_NVGRPCOLOR@@PAVGRPMATERIAL@@@Z 004754a0 f i GRPConsole.obj
 0001:00074580       ?Add@?$XVECTOR@PAVGRPCOLOR@@@@QAE_NPAVGRPCOLOR@@@Z 00475580 f i GRPConsole.obj
 0001:00074610       ?Add@?$XVECTOR@PAVGRPELEMENT@@@@QAE_NPAVGRPELEMENT@@@Z 00475610 f i GRPConsole.obj
 0001:000746a0       ?Add@?$XVECTOR@PAVGRPMATERIAL@@@@QAE_NPAVGRPMATERIAL@@@Z 004756a0 f i GRPConsole.obj
 0001:00074730       ?Add@?$XVECTOR@PAVPRINTABLE@GRPCONSOLE@@@@QAE_NPAVPRINTABLE@GRPCONSOLE@@@Z 00475730 f i GRPConsole.obj
 0001:000747c0       ?Add@?$XVECTOR@VGRPCOLOR@@@@QAE_NVGRPCOLOR@@@Z 004757c0 f i GRPConsole.obj
 0001:000748d0       ?Add@GRPMATERIALLIBRARY@@QAE_NPAVGRPMATERIAL@@@Z 004758d0 f i GRPConsole.obj
 0001:00074920       ?Clean@?$XVECTOR@PAVGRPCOLOR@@@@AAEXXZ 00475920 f i GRPConsole.obj
 0001:00074960       ?Clean@?$XVECTOR@PAVGRPELEMENT@@@@AAEXXZ 00475960 f i GRPConsole.obj
 0001:000749a0       ?Clean@?$XVECTOR@PAVGRPMATERIAL@@@@AAEXXZ 004759a0 f i GRPConsole.obj
 0001:000749e0       ?Clean@?$XVECTOR@PAVPRINTABLE@GRPCONSOLE@@@@AAEXXZ 004759e0 f i GRPConsole.obj
 0001:00074a20       ?Clean@?$XVECTOR@VGRPCOLOR@@@@AAEXXZ 00475a20 f i GRPConsole.obj
 0001:00074a60       ?Clean@GRPAABB@@QAEXXZ     00475a60 f i GRPConsole.obj
 0001:00074b70       ?Clean@GRPBB@@QAEXXZ       00475b70 f i GRPConsole.obj
 0001:00074be0       ?Clean@GRPCONSOLE@@EAEXXZ  00475be0 f i GRPConsole.obj
 0001:00074d00       ?Clean@GRPELEMENT@@EAEXXZ  00475d00 f i GRPConsole.obj
 0001:00074e40       ?Clean@GRPFONTATTRIBUTES@@AAEXXZ 00475e40 f i GRPConsole.obj
 0001:00074ef0       ?Clean@GRPPOINT@@QAEXXZ    00475ef0 f i GRPConsole.obj
 0001:00074f40       ?Clean@XOBSERVER@@AAEXXZ   00475f40 f i GRPConsole.obj
 0001:00074f50       ?Delete@?$XVECTOR@PAVGRPELEMENT@@@@QAE_NPAVGRPELEMENT@@@Z 00475f50 f i GRPConsole.obj
 0001:00074fc0       ?Delete@?$XVECTOR@VGRPCOLOR@@@@QAE_NVGRPCOLOR@@@Z 00475fc0 f i GRPConsole.obj
 0001:000750b0       ?DeleteAll@?$XMAP@IPAVGRPCOLOR@@@@QAE_NXZ 004760b0 f i GRPConsole.obj
 0001:000750e0       ?DeleteAll@?$XVECTOR@PAVGRPCOLOR@@@@QAE_NXZ 004760e0 f i GRPConsole.obj
 0001:00075130       ?DeleteAll@?$XVECTOR@PAVGRPELEMENT@@@@QAE_NXZ 00476130 f i GRPConsole.obj
 0001:00075180       ?DeleteAll@?$XVECTOR@PAVGRPMATERIAL@@@@QAE_NXZ 00476180 f i GRPConsole.obj
 0001:000751d0       ?DeleteAll@?$XVECTOR@PAVGRPOBJECT@@@@QAE_NXZ 004761d0 f i GRPConsole.obj
 0001:00075220       ?DeleteAll@?$XVECTOR@PAVPRINTABLE@GRPCONSOLE@@@@QAE_NXZ 00476220 f i GRPConsole.obj
 0001:00075270       ?DeleteAll@?$XVECTOR@VGRPCOLOR@@@@QAE_NXZ 00476270 f i GRPConsole.obj
 0001:00075310       ?DeleteContents@?$XVECTOR@PAVGRPCOLOR@@@@QAE_NXZ 00476310 f i GRPConsole.obj
 0001:000753b0       ?DeleteContents@?$XVECTOR@PAVGRPELEMENT@@@@QAE_NXZ 004763b0 f i GRPConsole.obj
 0001:00075470       ?DeleteContentsInstanced@?$XVECTOR@PAVGRPELEMENT@@@@QAE_NXZ 00476470 f i GRPConsole.obj
 0001:00075560       ?DeleteElementContents@?$XMAP@IPAVGRPCOLOR@@@@QAE_NXZ 00476560 f i GRPConsole.obj
 0001:00075580       ?FastGet@?$XVECTOR@PAVGRPCOLOR@@@@QAEPAVGRPCOLOR@@H@Z 00476580 f i GRPConsole.obj
 0001:000755a0       ?FastGet@?$XVECTOR@PAVGRPMATERIAL@@@@QAEPAVGRPMATERIAL@@H@Z 004765a0 f i GRPConsole.obj
 0001:000755c0       ?FastGet@?$XVECTOR@PAVPRINTABLE@GRPCONSOLE@@@@QAEPAVPRINTABLE@GRPCONSOLE@@H@Z 004765c0 f i GRPConsole.obj
 0001:000755e0       ?Find@?$XMAP@IPAVGRPCOLOR@@@@QAEHI@Z 004765e0 f i GRPConsole.obj
 0001:00075600       ?Find@?$XVECTOR@VGRPCOLOR@@@@QAEHVGRPCOLOR@@@Z 00476600 f i GRPConsole.obj
 0001:000756d0       ?Get@?$XMAP@IPAVGRPCOLOR@@@@QAEPAVGRPCOLOR@@I@Z 004766d0 f i GRPConsole.obj
 0001:00075720       ?Get@?$XMAP@VGRPCOLOR@@PAVGRPMATERIAL@@@@QAEPAVGRPMATERIAL@@VGRPCOLOR@@@Z 00476720 f i GRPConsole.obj
 0001:000757e0       ?Get@?$XVECTOR@PAVGRPCAMERA@@@@QAEPAVGRPCAMERA@@H@Z 004767e0 f i GRPConsole.obj
 0001:00075820       ?Get@?$XVECTOR@PAVGRPVIEWPORT@@@@QAEPAVGRPVIEWPORT@@H@Z 00476820 f i GRPConsole.obj
 0001:00075860       ?GetAttachments@GRPCONSOLE@@QAEPAV?$XVECTOR@PAVGRPELEMENT@@@@XZ 00476860 f i GRPConsole.obj
 0001:00075880       ?GetAttributes@GRPFONT@@QAEPAVGRPFONTATTRIBUTES@@XZ 00476880 f i GRPConsole.obj
 0001:000758a0       ?GetAttributes@GRPMATERIAL@@QAEPAVGRPMATERIALATTRIBUTES@@XZ 004768a0 f i GRPConsole.obj
 0001:000758c0       ?GetCamera@GRPSCENE@@QAEPAVGRPCAMERA@@XZ 004768c0 f i GRPConsole.obj
 0001:000758f0       ?GetCameras@GRPSCENE@@QAEPAV?$XVECTOR@PAVGRPCAMERA@@@@XZ 004768f0 f i GRPConsole.obj
 0001:00075910       ?GetChar@XCONSOLE@@UAEHXZ  00476910 f i GRPConsole.obj
 0001:00075920       ?GetEventType@XEVENT@@QAEIXZ 00476920 f i GRPConsole.obj
 0001:00075940       ?GetLast@?$XLIST@PAVGRPPASS@@@@QAEPAVGRPPASS@@XZ 00476940 f i GRPConsole.obj
 0001:00075960       ?GetLast@?$XVECTOR@PAVGRPELEMENT@@@@QAEPAVGRPELEMENT@@XZ 00476960 f i GRPConsole.obj
 0001:00075980       ?GetLineHeight@GRPFONT@@QAEMXZ 00476980 f i GRPConsole.obj
 0001:000759a0       ?GetObjects@GRPSCENE@@QAEPAV?$XVECTOR@PAVGRPOBJECT@@@@XZ 004769a0 f i GRPConsole.obj
 0001:000759c0       ?GetPasses@GRPSCENE@@QAEPAV?$XORDEREDLIST@PAVGRPPASS@@VCOMPARATOR@1@@@XZ 004769c0 f i GRPConsole.obj
 0001:000759e0       ?GetRenderer@GRPSCENE@@QAEPAVGRPRENDERER@@XZ 004769e0 f i GRPConsole.obj
 0001:00075a00       ?GetScale@GRPNODE@@QAEPBVGRPVECTOR@@XZ 00476a00 f i GRPConsole.obj
 0001:00075a20       ?GetScreen@GRPSCENE@@QAEPAVGRPSCREEN@@XZ 00476a20 f i GRPConsole.obj
 0001:00075a40       ?GetSize@?$XVECTOR@PAVPRINTABLE@GRPCONSOLE@@@@QAEIXZ 00476a40 f i GRPConsole.obj
 0001:00075a60       ?GetSize@XCONSOLE@@UAE_NAAH0@Z 00476a60 f i GRPConsole.obj
 0001:00075a90       ?GetSubjectType@GRPCONSOLE@@UAEIXZ 00476a90 f i GRPConsole.obj
 0001:00075aa0       ?GetTarget@GRPCAMERA@@QAEPAVGRPNODE@@XZ 00476aa0 f i GRPConsole.obj
 0001:00075ac0       ?GetViewport@GRPSCENE@@QAEPAVGRPVIEWPORT@@XZ 00476ac0 f i GRPConsole.obj
 0001:00075af0       ?GetViewports@GRPSCENE@@QAEPAV?$XVECTOR@PAVGRPVIEWPORT@@@@XZ 00476af0 f i GRPConsole.obj
 0001:00075b10       ?Hide@XCONSOLE@@UAE_NXZ    00476b10 f i GRPConsole.obj
 0001:00075b20       ?IsHide@XCONSOLE@@UAE_NXZ  00476b20 f i GRPConsole.obj
 0001:00075b30       ?KBHit@XCONSOLE@@UAE_NXZ   00476b30 f i GRPConsole.obj
 0001:00075b40       ?Lock@GRPSCENE@@QAEXXZ     00476b40 f i GRPConsole.obj
 0001:00075b70       ?Minimize@XCONSOLE@@UAE_NXZ 00476b70 f i GRPConsole.obj
 0001:00075b80       ?ResizeAdd@?$XVECTOR@PAVGRPCOLOR@@@@AAE_NXZ 00476b80 f i GRPConsole.obj
 0001:00075c40       ?ResizeAdd@?$XVECTOR@PAVGRPELEMENT@@@@AAE_NXZ 00476c40 f i GRPConsole.obj
 0001:00075d00       ?ResizeAdd@?$XVECTOR@PAVGRPMATERIAL@@@@AAE_NXZ 00476d00 f i GRPConsole.obj
 0001:00075dc0       ?ResizeAdd@?$XVECTOR@PAVPRINTABLE@GRPCONSOLE@@@@AAE_NXZ 00476dc0 f i GRPConsole.obj
 0001:00075e80       ?ResizeAdd@?$XVECTOR@VGRPCOLOR@@@@AAE_NXZ 00476e80 f i GRPConsole.obj
 0001:00076010       ?ResizeRemove@?$XVECTOR@PAVGRPELEMENT@@@@AAE_NI@Z 00477010 f i GRPConsole.obj
 0001:00076080       ?ResizeRemove@?$XVECTOR@VGRPCOLOR@@@@AAE_NI@Z 00477080 f i GRPConsole.obj
 0001:00076110       ?Set@?$XMAP@IPAVGRPCOLOR@@@@QAE_NIPAVGRPCOLOR@@@Z 00477110 f i GRPConsole.obj
 0001:00076150       ?Set@?$XVECTOR@PAVGRPCOLOR@@@@QAE_NHPAVGRPCOLOR@@@Z 00477150 f i GRPConsole.obj
 0001:00076190       ?SetCamera@GRPPASS@@QAEXPAVGRPCAMERA@@@Z 00477190 f i GRPConsole.obj
 0001:000761b0       ?SetClear@GRPPASS@@QAEXI@Z 004771b0 f i GRPConsole.obj
 0001:000761d0       ?SetDiffuse@GRPMATERIALATTRIBUTES@@QAEXVGRPCOLOR@@@Z 004771d0 f i GRPConsole.obj
 0001:00076250       ?SetIsMulti@?$XMAP@IPAVGRPCOLOR@@@@QAEX_N@Z 00477250 f i GRPConsole.obj
 0001:00076280       ?SetIsMulti@?$XMAP@VGRPCOLOR@@PAVGRPMATERIAL@@@@QAEX_N@Z 00477280 f i GRPConsole.obj
 0001:000762b0       ?SetIsMulti@?$XVECTOR@PAVGRPCOLOR@@@@QAEX_N@Z 004772b0 f i GRPConsole.obj
 0001:000762d0       ?SetIsMulti@?$XVECTOR@PAVGRPMATERIAL@@@@QAEX_N@Z 004772d0 f i GRPConsole.obj
 0001:000762f0       ?SetIsMulti@?$XVECTOR@VGRPCOLOR@@@@QAEX_N@Z 004772f0 f i GRPConsole.obj
 0001:00076310       ?SetPosition@GRPVIEWPORT@@QAEXMM@Z 00477310 f i GRPConsole.obj
 0001:00076340       ?SetProjection@GRPVIEWPORT@@QAEXW4GRPPROJECTIONTYPE@@@Z 00477340 f i GRPConsole.obj
 0001:00076360       ?SetScene@GRPCONSOLE@@QAEXPAVGRPSCENE@@@Z 00477360 f i GRPConsole.obj
 0001:00076380       ?SetSize@GRPVIEWPORT@@QAEXMM@Z 00477380 f i GRPConsole.obj
 0001:000763b0       ?SetSize@XCONSOLE@@UAE_NHH@Z 004773b0 f i GRPConsole.obj
 0001:000763bf       ?SetTag@GRPOBJECT@@$4PPPPPPPM@CBI@AEX_K@Z 004773bf f i GRPConsole.obj
 0001:000763d0       ?SetTransparency@GRPMATERIALATTRIBUTES@@QAEXM@Z 004773d0 f i GRPConsole.obj
 0001:00076400       ?SetVisibility@GRPELEMENT@@QAEXM@Z 00477400 f i GRPConsole.obj
 0001:00076420       ?UnHide@XCONSOLE@@UAE_NXZ  00477420 f i GRPConsole.obj
 0001:00076430       ?UnLock@GRPSCENE@@QAEXXZ   00477430 f i GRPConsole.obj
 0001:00076460       ?Update@GRPAABB@@QAEXXZ    00477460 f i GRPConsole.obj
 0001:000764c0       ??0GRPCONTEXT@@QAE@XZ      004774c0 f   GRPContext.obj
 0001:000764f0       ??1GRPCONTEXT@@UAE@XZ      004774f0 f   GRPContext.obj
 0001:00076540       ?SetScreen@GRPCONTEXT@@QAEXPAVGRPSCREEN@@@Z 00477540 f   GRPContext.obj
 0001:00076560       ?GetScreen@GRPCONTEXT@@QAEPAVGRPSCREEN@@XZ 00477560 f   GRPContext.obj
 0001:00076580       ?Create@GRPCONTEXT@@UAE_NPAX@Z 00477580 f   GRPContext.obj
 0001:00076590       ?Destroy@GRPCONTEXT@@UAE_NXZ 00477590 f   GRPContext.obj
 0001:000765a0       ?IsLost@GRPCONTEXT@@UAE_NXZ 004775a0 f   GRPContext.obj
 0001:000765b0       ?Update@GRPCONTEXT@@UAE_NXZ 004775b0 f   GRPContext.obj
 0001:000765c0       ?SetMustRebuild@GRPCONTEXT@@QAEX_N@Z 004775c0 f   GRPContext.obj
 0001:000765e0       ?IsMustRebuild@GRPCONTEXT@@QAE_NXZ 004775e0 f   GRPContext.obj
 0001:00076600       ?SetMultiSampling@GRPCONTEXT@@QAEXI@Z 00477600 f   GRPContext.obj
 0001:00076620       ?GetMultisampling@GRPCONTEXT@@QAEIXZ 00477620 f   GRPContext.obj
 0001:00076640       ??_GGRPCONTEXT@@UAEPAXI@Z  00477640 f i GRPContext.obj
 0001:00076640       ??_EGRPCONTEXT@@UAEPAXI@Z  00477640 f i GRPContext.obj
 0001:00076670       ?Clean@GRPCONTEXT@@AAEXXZ  00477670 f i GRPContext.obj
 0001:000766a0       ??0GRPSUBDEFORMER@@QAE@XZ  004776a0 f   GRPDeformer.obj
 0001:00076760       ??1GRPSUBDEFORMER@@UAE@XZ  00477760 f   GRPDeformer.obj
 0001:000767d0       ?SetValue@GRPSUBDEFORMER@@UAE_NW4GRPANIMATIONCURVETYPE@@W4GRPANIMATIONCURVEAXIS@@NN@Z 004777d0 f   GRPDeformer.obj
 0001:00076800       ?Init@GRPSUBDEFORMER@@QAE_NPAVGRPELEMENT@@I@Z 00477800 f   GRPDeformer.obj
 0001:00076f10       ?Init@GRPDEFORMER@@UAE_NXZ 00477f10 f   GRPDeformer.obj
 0001:00077030       ?Update@GRPDEFORMER@@UAE_NXZ 00478030 f   GRPDeformer.obj
 0001:000772a0       ??0GRPINTERFACEANIMABLE@@QAE@XZ 004782a0 f i GRPDeformer.obj
 0001:000772f0       ??1?$XVECTOR@PAUGRPVERTEX@@@@UAE@XZ 004782f0 f i GRPDeformer.obj
 0001:00077340       ??1GRPINTERFACEANIMABLE@@UAE@XZ 00478340 f i GRPDeformer.obj
 0001:00077350       ??1GRPSUBDEFORMERSHAPE@@QAE@XZ 00478350 f i GRPDeformer.obj
 0001:000773c0       ??_DGRPSUBDEFORMER@@QAEXXZ 004783c0 f i GRPDeformer.obj
 0001:000773f0       ??_E?$XVECTOR@PAUGRPVERTEX@@@@UAEPAXI@Z 004783f0 f i GRPDeformer.obj
 0001:000773f0       ??_G?$XVECTOR@PAUGRPVERTEX@@@@UAEPAXI@Z 004783f0 f i GRPDeformer.obj
 0001:00077420       ??_EGRPINTERFACEANIMABLE@@UAEPAXI@Z 00478420 f i GRPDeformer.obj
 0001:00077420       ??_GGRPINTERFACEANIMABLE@@UAEPAXI@Z 00478420 f i GRPDeformer.obj
 0001:00077460       ??_EGRPSUBDEFORMER@@UAEPAXI@Z 00478460 f i GRPDeformer.obj
 0001:00077460       ??_GGRPSUBDEFORMER@@UAEPAXI@Z 00478460 f i GRPDeformer.obj
 0001:000774a0       ??_GGRPSUBDEFORMERSHAPE@@QAEPAXI@Z 004784a0 f i GRPDeformer.obj
 0001:000774d0       ?Add@?$XVECTOR@W4GRPVERTEX_CHANNEL@@@@QAE_NW4GRPVERTEX_CHANNEL@@@Z 004784d0 f i GRPDeformer.obj
 0001:00077560       ?Clean@?$XVECTOR@PAUGRPVERTEX@@@@AAEXXZ 00478560 f i GRPDeformer.obj
 0001:000775a0       ?Clean@GRPSUBDEFORMER@@AAEXXZ 004785a0 f i GRPDeformer.obj
 0001:000775d0       ?DeleteAll@?$XVECTOR@PAUGRPVERTEX@@@@QAE_NXZ 004785d0 f i GRPDeformer.obj
 0001:00077620       ?DeleteContents@?$XVECTOR@PAUGRPVERTEX@@@@QAE_NXZ 00478620 f i GRPDeformer.obj
 0001:000776b0       ?Find@?$XVECTOR@W4GRPVERTEX_CHANNEL@@@@QAEHW4GRPVERTEX_CHANNEL@@@Z 004786b0 f i GRPDeformer.obj
 0001:00077710       ?Find@?$XVECTOR@_J@@QAEH_J@Z 00478710 f i GRPDeformer.obj
 0001:00077780       ?Get@?$XVECTOR@PAUGRPVERTEX@@@@QAEPAUGRPVERTEX@@H@Z 00478780 f i GRPDeformer.obj
 0001:000777c0       ?Get@?$XVECTOR@PAVGRPFACE@@@@QAEPAVGRPFACE@@H@Z 004787c0 f i GRPDeformer.obj
 0001:00077800       ?Get@?$XVECTOR@PAVGRPSUBDEFORMER@@@@QAEPAVGRPSUBDEFORMER@@H@Z 00478800 f i GRPDeformer.obj
 0001:00077840       ?GetFactor@GRPSUBDEFORMER@@QAEMXZ 00478840 f i GRPDeformer.obj
 0001:00077860       ?GetSize@?$XMAP@_KPAVGRPSUBDEFORMER@@@@QAEIXZ 00478860 f i GRPDeformer.obj
 0001:00077880       ?GetSize@?$XVECTOR@PAVGRPFACE@@@@QAEIXZ 00478880 f i GRPDeformer.obj
 0001:000778a0       ?GetSize@?$XVECTOR@W4GRPVERTEX_CHANNEL@@@@QAEIXZ 004788a0 f i GRPDeformer.obj
 0001:000778c0       ?ResizeAdd@?$XVECTOR@W4GRPVERTEX_CHANNEL@@@@AAE_NXZ 004788c0 f i GRPDeformer.obj
 0001:00077980       ?Compare@COMPARATOR@GRPELEMENT@@UAEHPAV2@0@Z 00478980 f   GRPElement.obj
 0001:00077cf0       ??0GRPELEMENT@@QAE@I@Z     00478cf0 f   GRPElement.obj
 0001:00077ec0       ??1GRPELEMENT@@UAE@XZ      00478ec0 f   GRPElement.obj
 0001:00078060       ?SetMesh@GRPELEMENT@@QAE_NPAVGRPMESH@@@Z 00479060 f   GRPElement.obj
 0001:000780e0       ?GetMesh@GRPELEMENT@@QAEPAVGRPMESH@@H@Z 004790e0 f   GRPElement.obj
 0001:00078100       ?Draw@GRPELEMENT@@UAE_NXZ  00479100 f   GRPElement.obj
 0001:00078110       ?Draw@GRPELEMENT@@UAE_NPAVGRPPASS@@@Z 00479110 f   GRPElement.obj
 0001:00078220       ?Draw@GRPELEMENT@@UAE_NPBVGRPMATRIX@@00@Z 00479220 f   GRPElement.obj
 0001:00078290       ?LoadMatricesToGPU@GRPELEMENT@@UAEXPBVGRPMATRIX@@00PBVGRPSHADERPROGRAM@@@Z 00479290 f   GRPElement.obj
 0001:00078580       ?ComputeMatrices@GRPELEMENT@@UAEXPBVGRPMATRIX@@00@Z 00479580 f   GRPElement.obj
 0001:00078660       ?LoadMaterialToGPU@GRPELEMENT@@QAEXPAVGRPSHADERPROGRAM@@@Z 00479660 f   GRPElement.obj
 0001:000787a0       ?ProcessMorphs@GRPELEMENT@@QAEXXZ 004797a0 f   GRPElement.obj
 0001:00078800       ?DrawVBO@GRPELEMENT@@QAEXW4GRPRENDERMODE@@@Z 00479800 f   GRPElement.obj
 0001:00078c60       ?Reference@GRPELEMENT@@QAE_NPAV1@@Z 00479c60 f   GRPElement.obj
 0001:00078d10       ?Reference@GRPELEMENT@@QAE_NPAVGRPMESH@@@Z 00479d10 f   GRPElement.obj
 0001:00078d90       ?LoadToGPU@GRPELEMENT@@QAE_NXZ 00479d90 f   GRPElement.obj
 0001:00078ff0       ?GetDeformer@GRPELEMENT@@QAEPAVGRPDEFORMER@@XZ 00479ff0 f   GRPElement.obj
 0001:00079010       ?SetDeformer@GRPELEMENT@@QAEXPAVGRPDEFORMER@@@Z 0047a010 f   GRPElement.obj
 0001:00079040       ?GetSkin@GRPELEMENT@@QAEPAVGRPSKIN@@XZ 0047a040 f   GRPElement.obj
 0001:00079060       ?SetSkin@GRPELEMENT@@QAEXPAVGRPSKIN@@@Z 0047a060 f   GRPElement.obj
 0001:000790b0       ?MergeElement@GRPELEMENT@@QAE_NPAV1@@Z 0047a0b0 f   GRPElement.obj
 0001:00079550       ?UpdateBoundingBox@GRPELEMENT@@QAEXXZ 0047a550 f   GRPElement.obj
 0001:000797f0       ?Collapse@GRPELEMENT@@QAE_N_N@Z 0047a7f0 f   GRPElement.obj
 0001:00079820       ?CollapseTranslations@GRPELEMENT@@QAE_NXZ 0047a820 f   GRPElement.obj
 0001:000799b0       ?CollapseTransforms@GRPELEMENT@@QAE_NXZ 0047a9b0 f   GRPElement.obj
 0001:00079ee0       ?Disembody@GRPELEMENT@@QAE_NXZ 0047aee0 f   GRPElement.obj
 0001:0007a1b0       ?SetProgram@GRPELEMENT@@UAEXPAVGRPSHADERPROGRAM@@@Z 0047b1b0 f   GRPElement.obj
 0001:0007a1f0       ?GetProgram@GRPELEMENT@@UAEPAVGRPSHADERPROGRAM@@XZ 0047b1f0 f   GRPElement.obj
 0001:0007a210       ?SetVisible@GRPELEMENT@@QAEX_N@Z 0047b210 f   GRPElement.obj
 0001:0007a250       ?IsVisible@GRPELEMENT@@QAE_NXZ 0047b250 f   GRPElement.obj
 0001:0007a290       ?GetIsReferible@GRPELEMENT@@QAE_NXZ 0047b290 f   GRPElement.obj
 0001:0007a2b0       ?GetRenderMode@GRPELEMENT@@QAE?AW4GRPRENDERMODE@@XZ 0047b2b0 f   GRPElement.obj
 0001:0007a2d0       ?SetRenderMode@GRPELEMENT@@QAEXW4GRPRENDERMODE@@@Z 0047b2d0 f   GRPElement.obj
 0001:0007a2f0       ?SetTextureFrame@GRPELEMENT@@QAEXM@Z 0047b2f0 f   GRPElement.obj
 0001:0007a310       ?Finish@GRPELEMENT@@QAEXXZ 0047b310 f   GRPElement.obj
 0001:0007a330       ?GetNode@GRPELEMENT@@QAEPAVGRPNODE@@XZ 0047b330 f   GRPElement.obj
 0001:0007a350       ?SetNode@GRPELEMENT@@QAEXPAVGRPNODE@@@Z 0047b350 f   GRPElement.obj
 0001:0007a3b0       ?SetDefaultColor@GRPELEMENT@@QAEXVGRPCOLOR@@@Z 0047b3b0 f   GRPElement.obj
 0001:0007a430       ?SetRenderFlags@GRPELEMENT@@QAEXI@Z 0047b430 f   GRPElement.obj
 0001:0007a450       ?GetRenderFlags@GRPELEMENT@@QAEIXZ 0047b450 f   GRPElement.obj
 0001:0007a470       ?GetRenderedFaces@GRPELEMENT@@QAEIXZ 0047b470 f   GRPElement.obj
 0001:0007a490       ?GetShader@GRPELEMENT@@QAEPAVGRPSHADERPROGRAM@@XZ 0047b490 f   GRPElement.obj
 0001:0007a4b0       ?SetRenderPriority@GRPELEMENT@@QAEXH@Z 0047b4b0 f   GRPElement.obj
 0001:0007a4e0       ?GetRenderPriority@GRPELEMENT@@QAEHXZ 0047b4e0 f   GRPElement.obj
 0001:0007a500       ?Notify@GRPELEMENT@@UAE_NW4GRPMSGTYPE@@PAVGRPSUBJECT@@@Z 0047b500 f   GRPElement.obj
 0001:0007a5b0       ?GetSubjectType@GRPELEMENT@@UAEIXZ 0047b5b0 f   GRPElement.obj
 0001:0007a5c0       ?SetBlending@GRPELEMENT@@QAEX_N@Z 0047b5c0 f   GRPElement.obj
 0001:0007a5e0       ?SetBlendingMode@GRPELEMENT@@QAEXW4GRPBLENDINGMODE@@@Z 0047b5e0 f   GRPElement.obj
 0001:0007a610       ?IsBlending@GRPELEMENT@@QAE_NXZ 0047b610 f   GRPElement.obj
 0001:0007a680       ?GetVertexVBOID@GRPELEMENT@@QAEIXZ 0047b680 f   GRPElement.obj
 0001:0007a6a0       ?GetIndexVBOID@GRPELEMENT@@QAEIXZ 0047b6a0 f   GRPElement.obj
 0001:0007a6c0       ?GetIsLoaded@GRPELEMENT@@QAE_NXZ 0047b6c0 f   GRPElement.obj
 0001:0007a6f0       ?IsInstance@GRPELEMENT@@QAE_NXZ 0047b6f0 f   GRPElement.obj
 0001:0007a710       ??0?$XVECTOR@PAVGRPDEFORMER@@@@QAE@XZ 0047b710 f i GRPElement.obj
 0001:0007a730       ??0GRPATTACHEABLE@@QAE@XZ  0047b730 f i GRPElement.obj
 0001:0007a7c0       ??0GRPDRAWABLE@@QAE@XZ     0047b7c0 f i GRPElement.obj
 0001:0007a7e0       ??1?$XVECTOR@PAVGRPDEFORMER@@@@UAE@XZ 0047b7e0 f i GRPElement.obj
 0001:0007a830       ??1GRPATTACHEABLE@@UAE@XZ  0047b830 f i GRPElement.obj
 0001:0007a860       ??1GRPFACE@@QAE@XZ         0047b860 f i GRPElement.obj
 0001:0007aa20       ??_DGRPELEMENT@@QAEXXZ     0047ba20 f i GRPElement.obj
 0001:0007aa50       ??_E?$XVECTOR@PAVGRPDEFORMER@@@@UAEPAXI@Z 0047ba50 f i GRPElement.obj
 0001:0007aa50       ??_G?$XVECTOR@PAVGRPDEFORMER@@@@UAEPAXI@Z 0047ba50 f i GRPElement.obj
 0001:0007aa80       ??_EGRPATTACHEABLE@@UAEPAXI@Z 0047ba80 f i GRPElement.obj
 0001:0007aa80       ??_GGRPATTACHEABLE@@UAEPAXI@Z 0047ba80 f i GRPElement.obj
 0001:0007aac0       ??_GGRPELEMENT@@UAEPAXI@Z  0047bac0 f i GRPElement.obj
 0001:0007aac0       ??_EGRPELEMENT@@UAEPAXI@Z  0047bac0 f i GRPElement.obj
 0001:0007ab10       ??_GGRPFACE@@QAEPAXI@Z     0047bb10 f i GRPElement.obj
 0001:0007ab40       ?Add@?$XVECTOR@PAVGRPDEFORMER@@@@QAE_NPAVGRPDEFORMER@@@Z 0047bb40 f i GRPElement.obj
 0001:0007abd0       ?Clean@?$XVECTOR@PAVGRPDEFORMER@@@@AAEXXZ 0047bbd0 f i GRPElement.obj
 0001:0007ac10       ?Clean@GRPATTACHEABLE@@EAEXXZ 0047bc10 f i GRPElement.obj
 0001:0007ac40       ?Copy@GRPMATRIX@@QAEXAAV1@@Z 0047bc40 f i GRPElement.obj
 0001:0007ac70       ?Delete@?$XVECTOR@PAVGRPOBSERVER@@@@QAE_NPAVGRPOBSERVER@@@Z 0047bc70 f i GRPElement.obj
 0001:0007ace0       ?DeleteAll@?$XVECTOR@PAVGRPDEFORMER@@@@QAE_NXZ 0047bce0 f i GRPElement.obj
 0001:0007ad30       ?DeleteAll@?$XVECTOR@PAVGRPFACE@@@@QAE_NXZ 0047bd30 f i GRPElement.obj
 0001:0007ad80       ?DeleteContents@?$XVECTOR@PAVGRPDEFORMER@@@@QAE_NXZ 0047bd80 f i GRPElement.obj
 0001:0007ae40       ?DeleteContents@?$XVECTOR@PAVGRPFACE@@@@QAE_NXZ 0047be40 f i GRPElement.obj
 0001:0007aee0       ?FastGet@?$XVECTOR@PAVGRPDEFORMER@@@@QAEPAVGRPDEFORMER@@H@Z 0047bee0 f i GRPElement.obj
 0001:0007af00       ?FastGet@?$XVECTOR@PAVGRPTEXTURE@@@@QAEPAVGRPTEXTURE@@H@Z 0047bf00 f i GRPElement.obj
 0001:0007af20       ?Get@?$XMAP@IPAVGRPTEXTURE@@@@QAEPAVGRPTEXTURE@@I@Z 0047bf20 f i GRPElement.obj
 0001:0007af70       ?GetIntensity@GRPMATERIALATTRIBUTES@@QAEMXZ 0047bf70 f i GRPElement.obj
 0001:0007af90       ?GetLayer@GRPMATERIAL@@QAEPAVGRPTEXTURE@@I@Z 0047bf90 f i GRPElement.obj
 0001:0007afb0       ?GetShader@GRPPASS@@QAEPAVGRPSHADERPROGRAM@@XZ 0047bfb0 f i GRPElement.obj
 0001:0007afd0       ?GetSize@?$XVECTOR@PAVGRPDEFORMER@@@@QAEIXZ 0047bfd0 f i GRPElement.obj
 0001:0007aff0       ?GetTransparency@GRPMATERIALATTRIBUTES@@QAEMXZ 0047bff0 f i GRPElement.obj
 0001:0007b010       ?ResizeAdd@?$XVECTOR@PAVGRPDEFORMER@@@@AAE_NXZ 0047c010 f i GRPElement.obj
 0001:0007b0d0       ?ResizeRemove@?$XVECTOR@PAVGRPOBSERVER@@@@AAE_NI@Z 0047c0d0 f i GRPElement.obj
 0001:0007b140       ?SetFrame@GRPTEXTURE@@QAEXM@Z 0047c140 f i GRPElement.obj
 0001:0007b1b0       ?CreateBitmap@GRPFACTORY@@QAEPAVGRPBITMAP@@HHW4GRPPROPERTYMODE@@@Z 0047c1b0 f   GRPFactory.obj
 0001:0007b440       ?DeleteBitmap@GRPFACTORY@@QAE_NPAVGRPBITMAP@@@Z 0047c440 f   GRPFactory.obj
 0001:0007b620       ?GetTextureFormat@GRPFACTORY@@QAEIW4GRPTEXTURE_FORMAT@@@Z 0047c620 f   GRPFactory.obj
 0001:0007b640       ??$?MW4GRPTEXTURE_FORMAT@@I@@YA_NABV?$XPAIR@W4GRPTEXTURE_FORMAT@@I@@0@Z 0047c640 f i GRPFactory.obj
 0001:0007b670       ??0?$GRPBUFFERBITMAPPIXELFORMAT@V?$GRPBUFFERPIXELFORMATALPHABLENDRGB@V?$BLENDERRGB@VGRPBUFFERCOLORRGBA8@@UGRPBUFFERCOLORORDER_BGR@@@@V?$GRPBUFFERMINMEM@E@@@@@@QAE@HHW4GRPPROPERTYMODE@@@Z 0047c670 f i GRPFactory.obj
 0001:0007b720       ??0?$GRPBUFFERBITMAPPIXELFORMAT@V?$GRPBUFFERPIXELFORMATALPHABLENDRGB@V?$BLENDERRGB@VGRPBUFFERCOLORRGBA8@@UGRPBUFFERCOLORORDER_RGB@@@@V?$GRPBUFFERMINMEM@E@@@@@@QAE@HHW4GRPPROPERTYMODE@@@Z 0047c720 f i GRPFactory.obj
 0001:0007b7d0       ??0?$GRPBUFFERBITMAPPIXELFORMAT@V?$GRPBUFFERPIXELFORMATALPHABLENDRGBA@V?$BLENDERRGBA@VGRPBUFFERCOLORRGBA8@@UGRPBUFFERCOLORORDER_BGRA@@@@V?$GRPBUFFERMINMEM@E@@I@@@@QAE@HHW4GRPPROPERTYMODE@@@Z 0047c7d0 f i GRPFactory.obj
 0001:0007b880       ??0?$GRPBUFFERBITMAPPIXELFORMAT@V?$GRPBUFFERPIXELFORMATALPHABLENDRGBA@V?$BLENDERRGBA@VGRPBUFFERCOLORRGBA8@@UGRPBUFFERCOLORORDER_RGBA@@@@V?$GRPBUFFERMINMEM@E@@I@@@@QAE@HHW4GRPPROPERTYMODE@@@Z 0047c880 f i GRPFactory.obj
 0001:0007b930       ??0?$GRPBUFFERBITMAPPIXELFORMAT@V?$GRPBUFFERPIXELFORMATALPHABLENDRGBPACKED@VBLENDERRGB555@@V?$GRPBUFFERMINMEM@E@@@@@@QAE@HHW4GRPPROPERTYMODE@@@Z 0047c930 f i GRPFactory.obj
 0001:0007b9e0       ??0?$GRPBUFFERBITMAPPIXELFORMAT@V?$GRPBUFFERPIXELFORMATALPHABLENDRGBPACKED@VBLENDERRGB565@@V?$GRPBUFFERMINMEM@E@@@@@@QAE@HHW4GRPPROPERTYMODE@@@Z 0047c9e0 f i GRPFactory.obj
 0001:0007ba90       ??0?$GRPBUFFERMINMEM@E@@QAE@XZ 0047ca90 f i GRPFactory.obj
 0001:0007bab0       ??0?$GRPBUFFERPIXELFORMATALPHABLENDRGB@V?$BLENDERRGB@VGRPBUFFERCOLORRGBA8@@UGRPBUFFERCOLORORDER_BGR@@@@V?$GRPBUFFERMINMEM@E@@@@QAE@AAV?$GRPBUFFERMINMEM@E@@@Z 0047cab0 f i GRPFactory.obj
 0001:0007bad0       ??0?$GRPBUFFERPIXELFORMATALPHABLENDRGB@V?$BLENDERRGB@VGRPBUFFERCOLORRGBA8@@UGRPBUFFERCOLORORDER_RGB@@@@V?$GRPBUFFERMINMEM@E@@@@QAE@AAV?$GRPBUFFERMINMEM@E@@@Z 0047cad0 f i GRPFactory.obj
 0001:0007baf0       ??0?$GRPBUFFERPIXELFORMATALPHABLENDRGBA@V?$BLENDERRGBA@VGRPBUFFERCOLORRGBA8@@UGRPBUFFERCOLORORDER_BGRA@@@@V?$GRPBUFFERMINMEM@E@@I@@QAE@AAV?$GRPBUFFERMINMEM@E@@@Z 0047caf0 f i GRPFactory.obj
 0001:0007bb10       ??0?$GRPBUFFERPIXELFORMATALPHABLENDRGBA@V?$BLENDERRGBA@VGRPBUFFERCOLORRGBA8@@UGRPBUFFERCOLORORDER_RGBA@@@@V?$GRPBUFFERMINMEM@E@@I@@QAE@AAV?$GRPBUFFERMINMEM@E@@@Z 0047cb10 f i GRPFactory.obj
 0001:0007bb30       ??0?$GRPBUFFERPIXELFORMATALPHABLENDRGBPACKED@VBLENDERRGB555@@V?$GRPBUFFERMINMEM@E@@@@QAE@AAV?$GRPBUFFERMINMEM@E@@@Z 0047cb30 f i GRPFactory.obj
 0001:0007bb50       ??0?$GRPBUFFERPIXELFORMATALPHABLENDRGBPACKED@VBLENDERRGB565@@V?$GRPBUFFERMINMEM@E@@@@QAE@AAV?$GRPBUFFERMINMEM@E@@@Z 0047cb50 f i GRPFactory.obj
 0001:0007bb70       ??0?$GRPBUFFERRENDERERBASE@V?$GRPBUFFERPIXELFORMATALPHABLENDRGB@V?$BLENDERRGB@VGRPBUFFERCOLORRGBA8@@UGRPBUFFERCOLORORDER_BGR@@@@V?$GRPBUFFERMINMEM@E@@@@@@QAE@AAV?$GRPBUFFERPIXELFORMATALPHABLENDRGB@V?$BLENDERRGB@VGRPBUFFERCOLORRGBA8@@UGRPBUFFERCOLORORDER_BGR@@@@V?$GRPBUFFERMINMEM@E@@@@@Z 0047cb70 f i GRPFactory.obj
 0001:0007bc10       ??0?$GRPBUFFERRENDERERBASE@V?$GRPBUFFERPIXELFORMATALPHABLENDRGB@V?$BLENDERRGB@VGRPBUFFERCOLORRGBA8@@UGRPBUFFERCOLORORDER_RGB@@@@V?$GRPBUFFERMINMEM@E@@@@@@QAE@AAV?$GRPBUFFERPIXELFORMATALPHABLENDRGB@V?$BLENDERRGB@VGRPBUFFERCOLORRGBA8@@UGRPBUFFERCOLORORDER_RGB@@@@V?$GRPBUFFERMINMEM@E@@@@@Z 0047cc10 f i GRPFactory.obj
 0001:0007bcb0       ??0?$GRPBUFFERRENDERERBASE@V?$GRPBUFFERPIXELFORMATALPHABLENDRGBA@V?$BLENDERRGBA@VGRPBUFFERCOLORRGBA8@@UGRPBUFFERCOLORORDER_BGRA@@@@V?$GRPBUFFERMINMEM@E@@I@@@@QAE@AAV?$GRPBUFFERPIXELFORMATALPHABLENDRGBA@V?$BLENDERRGBA@VGRPBUFFERCOLORRGBA8@@UGRPBUFFERCOLORORDER_BGRA@@@@V?$GRPBUFFERMINMEM@E@@I@@@Z 0047ccb0 f i GRPFactory.obj
 0001:0007bd50       ??0?$GRPBUFFERRENDERERBASE@V?$GRPBUFFERPIXELFORMATALPHABLENDRGBA@V?$BLENDERRGBA@VGRPBUFFERCOLORRGBA8@@UGRPBUFFERCOLORORDER_RGBA@@@@V?$GRPBUFFERMINMEM@E@@I@@@@QAE@AAV?$GRPBUFFERPIXELFORMATALPHABLENDRGBA@V?$BLENDERRGBA@VGRPBUFFERCOLORRGBA8@@UGRPBUFFERCOLORORDER_RGBA@@@@V?$GRPBUFFERMINMEM@E@@I@@@Z 0047cd50 f i GRPFactory.obj
 0001:0007bdf0       ??0?$GRPBUFFERRENDERERBASE@V?$GRPBUFFERPIXELFORMATALPHABLENDRGBPACKED@VBLENDERRGB555@@V?$GRPBUFFERMINMEM@E@@@@@@QAE@AAV?$GRPBUFFERPIXELFORMATALPHABLENDRGBPACKED@VBLENDERRGB555@@V?$GRPBUFFERMINMEM@E@@@@@Z 0047cdf0 f i GRPFactory.obj
 0001:0007be90       ??0?$GRPBUFFERRENDERERBASE@V?$GRPBUFFERPIXELFORMATALPHABLENDRGBPACKED@VBLENDERRGB565@@V?$GRPBUFFERMINMEM@E@@@@@@QAE@AAV?$GRPBUFFERPIXELFORMATALPHABLENDRGBPACKED@VBLENDERRGB565@@V?$GRPBUFFERMINMEM@E@@@@@Z 0047ce90 f i GRPFactory.obj
 0001:0007bf30       ??0?$GRPRECTBASE@H@@QAE@XZ 0047cf30 f i GRPFactory.obj
 0001:0007bf50       ??0?$XPAIR@W4GRPTEXTURE_FORMAT@@I@@QAE@ABV0@@Z 0047cf50 f i GRPFactory.obj
 0001:0007bf70       ??0?$XPAIR@W4GRPTEXTURE_FORMAT@@I@@QAE@W4GRPTEXTURE_FORMAT@@I@Z 0047cf70 f i GRPFactory.obj
 0001:0007bfa0       ??0?$XPAIR@W4GRPTEXTURE_FORMAT@@I@@QAE@XZ 0047cfa0 f i GRPFactory.obj
 0001:0007bfc0       ??0GRPBITMAP@@QAE@HHW4GRPPROPERTYMODE@@@Z 0047cfc0 f i GRPFactory.obj
 0001:0007c040       ??0GRPBUFFERCOLOR@@QAE@ABV0@@Z 0047d040 f i GRPFactory.obj
 0001:0007c060       ??0GRPBUFFERCOLOR@@QAE@XZ  0047d060 f i GRPFactory.obj
 0001:0007c080       ??0GRPBUFFERCOLORRGBA8@@QAE@ABV0@@Z 0047d080 f i GRPFactory.obj
 0001:0007c0e0       ??0GRPBUFFERCOLORRGBA8@@QAE@IIII@Z 0047d0e0 f i GRPFactory.obj
 0001:0007c130       ??0GRPBUFFERCOLORRGBA8@@QAE@XZ 0047d130 f i GRPFactory.obj
 0001:0007c190       ??0GRPPROPERTIES@@QAE@XZ   0047d190 f i GRPFactory.obj
 0001:0007c1b0       ??1?$GRPBUFFERBITMAPPIXELFORMAT@V?$GRPBUFFERPIXELFORMATALPHABLENDRGB@V?$BLENDERRGB@VGRPBUFFERCOLORRGBA8@@UGRPBUFFERCOLORORDER_BGR@@@@V?$GRPBUFFERMINMEM@E@@@@@@UAE@XZ 0047d1b0 f i GRPFactory.obj
 0001:0007c220       ??1?$GRPBUFFERBITMAPPIXELFORMAT@V?$GRPBUFFERPIXELFORMATALPHABLENDRGB@V?$BLENDERRGB@VGRPBUFFERCOLORRGBA8@@UGRPBUFFERCOLORORDER_RGB@@@@V?$GRPBUFFERMINMEM@E@@@@@@UAE@XZ 0047d220 f i GRPFactory.obj
 0001:0007c290       ??1?$GRPBUFFERBITMAPPIXELFORMAT@V?$GRPBUFFERPIXELFORMATALPHABLENDRGBA@V?$BLENDERRGBA@VGRPBUFFERCOLORRGBA8@@UGRPBUFFERCOLORORDER_BGRA@@@@V?$GRPBUFFERMINMEM@E@@I@@@@UAE@XZ 0047d290 f i GRPFactory.obj
 0001:0007c300       ??1?$GRPBUFFERBITMAPPIXELFORMAT@V?$GRPBUFFERPIXELFORMATALPHABLENDRGBA@V?$BLENDERRGBA@VGRPBUFFERCOLORRGBA8@@UGRPBUFFERCOLORORDER_RGBA@@@@V?$GRPBUFFERMINMEM@E@@I@@@@UAE@XZ 0047d300 f i GRPFactory.obj
 0001:0007c370       ??1?$GRPBUFFERBITMAPPIXELFORMAT@V?$GRPBUFFERPIXELFORMATALPHABLENDRGBPACKED@VBLENDERRGB555@@V?$GRPBUFFERMINMEM@E@@@@@@UAE@XZ 0047d370 f i GRPFactory.obj
 0001:0007c3e0       ??1?$GRPBUFFERBITMAPPIXELFORMAT@V?$GRPBUFFERPIXELFORMATALPHABLENDRGBPACKED@VBLENDERRGB565@@V?$GRPBUFFERMINMEM@E@@@@@@UAE@XZ 0047d3e0 f i GRPFactory.obj
 0001:0007c450       ??1?$GRPBUFFERMINMEM@E@@UAE@XZ 0047d450 f i GRPFactory.obj
 0001:0007c4a0       ??1?$GRPBUFFERRENDERERBASE@V?$GRPBUFFERPIXELFORMATALPHABLENDRGB@V?$BLENDERRGB@VGRPBUFFERCOLORRGBA8@@UGRPBUFFERCOLORORDER_BGR@@@@V?$GRPBUFFERMINMEM@E@@@@@@UAE@XZ 0047d4a0 f i GRPFactory.obj
 0001:0007c500       ??1?$GRPBUFFERRENDERERBASE@V?$GRPBUFFERPIXELFORMATALPHABLENDRGB@V?$BLENDERRGB@VGRPBUFFERCOLORRGBA8@@UGRPBUFFERCOLORORDER_RGB@@@@V?$GRPBUFFERMINMEM@E@@@@@@UAE@XZ 0047d500 f i GRPFactory.obj
 0001:0007c560       ??1?$GRPBUFFERRENDERERBASE@V?$GRPBUFFERPIXELFORMATALPHABLENDRGBA@V?$BLENDERRGBA@VGRPBUFFERCOLORRGBA8@@UGRPBUFFERCOLORORDER_BGRA@@@@V?$GRPBUFFERMINMEM@E@@I@@@@UAE@XZ 0047d560 f i GRPFactory.obj
 0001:0007c5c0       ??1?$GRPBUFFERRENDERERBASE@V?$GRPBUFFERPIXELFORMATALPHABLENDRGBA@V?$BLENDERRGBA@VGRPBUFFERCOLORRGBA8@@UGRPBUFFERCOLORORDER_RGBA@@@@V?$GRPBUFFERMINMEM@E@@I@@@@UAE@XZ 0047d5c0 f i GRPFactory.obj
 0001:0007c620       ??1?$GRPBUFFERRENDERERBASE@V?$GRPBUFFERPIXELFORMATALPHABLENDRGBPACKED@VBLENDERRGB555@@V?$GRPBUFFERMINMEM@E@@@@@@UAE@XZ 0047d620 f i GRPFactory.obj
 0001:0007c680       ??1?$GRPBUFFERRENDERERBASE@V?$GRPBUFFERPIXELFORMATALPHABLENDRGBPACKED@VBLENDERRGB565@@V?$GRPBUFFERMINMEM@E@@@@@@UAE@XZ 0047d680 f i GRPFactory.obj
 0001:0007c6e0       ??1?$GRPRECTBASE@H@@UAE@XZ 0047d6e0 f i GRPFactory.obj
 0001:0007c730       ??1GRPBITMAP@@UAE@XZ       0047d730 f i GRPFactory.obj
 0001:0007c780       ??1GRPBUFFERCOLOR@@UAE@XZ  0047d780 f i GRPFactory.obj
 0001:0007c7a0       ??1GRPBUFFERCOLORRGBA8@@UAE@XZ 0047d7a0 f i GRPFactory.obj
 0001:0007c7f0       ??1GRPPROPERTIES@@UAE@XZ   0047d7f0 f i GRPFactory.obj
 0001:0007c840       ??4?$XPAIR@W4GRPTEXTURE_FORMAT@@I@@QAEAAV0@ABV0@@Z 0047d840 f i GRPFactory.obj
 0001:0007c870       ??4GRPBUFFERCOLOR@@QAEAAV0@ABV0@@Z 0047d870 f i GRPFactory.obj
 0001:0007c880       ??4GRPBUFFERCOLORRGBA8@@QAEAAV0@ABV0@@Z 0047d880 f i GRPFactory.obj
 0001:0007c8d0       ??R?$XLESS@V?$XPAIR@W4GRPTEXTURE_FORMAT@@I@@@@QAE_NABV?$XPAIR@W4GRPTEXTURE_FORMAT@@I@@0@Z 0047d8d0 f i GRPFactory.obj
 0001:0007c8f0       ??_E?$GRPBUFFERBITMAPPIXELFORMAT@V?$GRPBUFFERPIXELFORMATALPHABLENDRGB@V?$BLENDERRGB@VGRPBUFFERCOLORRGBA8@@UGRPBUFFERCOLORORDER_BGR@@@@V?$GRPBUFFERMINMEM@E@@@@@@UAEPAXI@Z 0047d8f0 f i GRPFactory.obj
 0001:0007c8f0       ??_G?$GRPBUFFERBITMAPPIXELFORMAT@V?$GRPBUFFERPIXELFORMATALPHABLENDRGB@V?$BLENDERRGB@VGRPBUFFERCOLORRGBA8@@UGRPBUFFERCOLORORDER_BGR@@@@V?$GRPBUFFERMINMEM@E@@@@@@UAEPAXI@Z 0047d8f0 f i GRPFactory.obj
 0001:0007c920       ??_G?$GRPBUFFERBITMAPPIXELFORMAT@V?$GRPBUFFERPIXELFORMATALPHABLENDRGB@V?$BLENDERRGB@VGRPBUFFERCOLORRGBA8@@UGRPBUFFERCOLORORDER_RGB@@@@V?$GRPBUFFERMINMEM@E@@@@@@UAEPAXI@Z 0047d920 f i GRPFactory.obj
 0001:0007c920       ??_E?$GRPBUFFERBITMAPPIXELFORMAT@V?$GRPBUFFERPIXELFORMATALPHABLENDRGB@V?$BLENDERRGB@VGRPBUFFERCOLORRGBA8@@UGRPBUFFERCOLORORDER_RGB@@@@V?$GRPBUFFERMINMEM@E@@@@@@UAEPAXI@Z 0047d920 f i GRPFactory.obj
 0001:0007c950       ??_G?$GRPBUFFERBITMAPPIXELFORMAT@V?$GRPBUFFERPIXELFORMATALPHABLENDRGBA@V?$BLENDERRGBA@VGRPBUFFERCOLORRGBA8@@UGRPBUFFERCOLORORDER_BGRA@@@@V?$GRPBUFFERMINMEM@E@@I@@@@UAEPAXI@Z 0047d950 f i GRPFactory.obj
 0001:0007c950       ??_E?$GRPBUFFERBITMAPPIXELFORMAT@V?$GRPBUFFERPIXELFORMATALPHABLENDRGBA@V?$BLENDERRGBA@VGRPBUFFERCOLORRGBA8@@UGRPBUFFERCOLORORDER_BGRA@@@@V?$GRPBUFFERMINMEM@E@@I@@@@UAEPAXI@Z 0047d950 f i GRPFactory.obj
 0001:0007c980       ??_G?$GRPBUFFERBITMAPPIXELFORMAT@V?$GRPBUFFERPIXELFORMATALPHABLENDRGBA@V?$BLENDERRGBA@VGRPBUFFERCOLORRGBA8@@UGRPBUFFERCOLORORDER_RGBA@@@@V?$GRPBUFFERMINMEM@E@@I@@@@UAEPAXI@Z 0047d980 f i GRPFactory.obj
 0001:0007c980       ??_E?$GRPBUFFERBITMAPPIXELFORMAT@V?$GRPBUFFERPIXELFORMATALPHABLENDRGBA@V?$BLENDERRGBA@VGRPBUFFERCOLORRGBA8@@UGRPBUFFERCOLORORDER_RGBA@@@@V?$GRPBUFFERMINMEM@E@@I@@@@UAEPAXI@Z 0047d980 f i GRPFactory.obj
 0001:0007c9b0       ??_E?$GRPBUFFERBITMAPPIXELFORMAT@V?$GRPBUFFERPIXELFORMATALPHABLENDRGBPACKED@VBLENDERRGB555@@V?$GRPBUFFERMINMEM@E@@@@@@UAEPAXI@Z 0047d9b0 f i GRPFactory.obj
 0001:0007c9b0       ??_G?$GRPBUFFERBITMAPPIXELFORMAT@V?$GRPBUFFERPIXELFORMATALPHABLENDRGBPACKED@VBLENDERRGB555@@V?$GRPBUFFERMINMEM@E@@@@@@UAEPAXI@Z 0047d9b0 f i GRPFactory.obj
 0001:0007c9e0       ??_E?$GRPBUFFERBITMAPPIXELFORMAT@V?$GRPBUFFERPIXELFORMATALPHABLENDRGBPACKED@VBLENDERRGB565@@V?$GRPBUFFERMINMEM@E@@@@@@UAEPAXI@Z 0047d9e0 f i GRPFactory.obj
 0001:0007c9e0       ??_G?$GRPBUFFERBITMAPPIXELFORMAT@V?$GRPBUFFERPIXELFORMATALPHABLENDRGBPACKED@VBLENDERRGB565@@V?$GRPBUFFERMINMEM@E@@@@@@UAEPAXI@Z 0047d9e0 f i GRPFactory.obj
 0001:0007ca10       ??_G?$GRPBUFFERMINMEM@E@@UAEPAXI@Z 0047da10 f i GRPFactory.obj
 0001:0007ca10       ??_E?$GRPBUFFERMINMEM@E@@UAEPAXI@Z 0047da10 f i GRPFactory.obj
 0001:0007ca40       ??_E?$GRPBUFFERRENDERERBASE@V?$GRPBUFFERPIXELFORMATALPHABLENDRGB@V?$BLENDERRGB@VGRPBUFFERCOLORRGBA8@@UGRPBUFFERCOLORORDER_BGR@@@@V?$GRPBUFFERMINMEM@E@@@@@@UAEPAXI@Z 0047da40 f i GRPFactory.obj
 0001:0007ca40       ??_G?$GRPBUFFERRENDERERBASE@V?$GRPBUFFERPIXELFORMATALPHABLENDRGB@V?$BLENDERRGB@VGRPBUFFERCOLORRGBA8@@UGRPBUFFERCOLORORDER_BGR@@@@V?$GRPBUFFERMINMEM@E@@@@@@UAEPAXI@Z 0047da40 f i GRPFactory.obj
 0001:0007ca70       ??_E?$GRPBUFFERRENDERERBASE@V?$GRPBUFFERPIXELFORMATALPHABLENDRGB@V?$BLENDERRGB@VGRPBUFFERCOLORRGBA8@@UGRPBUFFERCOLORORDER_RGB@@@@V?$GRPBUFFERMINMEM@E@@@@@@UAEPAXI@Z 0047da70 f i GRPFactory.obj
 0001:0007ca70       ??_G?$GRPBUFFERRENDERERBASE@V?$GRPBUFFERPIXELFORMATALPHABLENDRGB@V?$BLENDERRGB@VGRPBUFFERCOLORRGBA8@@UGRPBUFFERCOLORORDER_RGB@@@@V?$GRPBUFFERMINMEM@E@@@@@@UAEPAXI@Z 0047da70 f i GRPFactory.obj
 0001:0007caa0       ??_G?$GRPBUFFERRENDERERBASE@V?$GRPBUFFERPIXELFORMATALPHABLENDRGBA@V?$BLENDERRGBA@VGRPBUFFERCOLORRGBA8@@UGRPBUFFERCOLORORDER_BGRA@@@@V?$GRPBUFFERMINMEM@E@@I@@@@UAEPAXI@Z 0047daa0 f i GRPFactory.obj
 0001:0007caa0       ??_E?$GRPBUFFERRENDERERBASE@V?$GRPBUFFERPIXELFORMATALPHABLENDRGBA@V?$BLENDERRGBA@VGRPBUFFERCOLORRGBA8@@UGRPBUFFERCOLORORDER_BGRA@@@@V?$GRPBUFFERMINMEM@E@@I@@@@UAEPAXI@Z 0047daa0 f i GRPFactory.obj
 0001:0007cad0       ??_E?$GRPBUFFERRENDERERBASE@V?$GRPBUFFERPIXELFORMATALPHABLENDRGBA@V?$BLENDERRGBA@VGRPBUFFERCOLORRGBA8@@UGRPBUFFERCOLORORDER_RGBA@@@@V?$GRPBUFFERMINMEM@E@@I@@@@UAEPAXI@Z 0047dad0 f i GRPFactory.obj
 0001:0007cad0       ??_G?$GRPBUFFERRENDERERBASE@V?$GRPBUFFERPIXELFORMATALPHABLENDRGBA@V?$BLENDERRGBA@VGRPBUFFERCOLORRGBA8@@UGRPBUFFERCOLORORDER_RGBA@@@@V?$GRPBUFFERMINMEM@E@@I@@@@UAEPAXI@Z 0047dad0 f i GRPFactory.obj
 0001:0007cb00       ??_E?$GRPBUFFERRENDERERBASE@V?$GRPBUFFERPIXELFORMATALPHABLENDRGBPACKED@VBLENDERRGB555@@V?$GRPBUFFERMINMEM@E@@@@@@UAEPAXI@Z 0047db00 f i GRPFactory.obj
 0001:0007cb00       ??_G?$GRPBUFFERRENDERERBASE@V?$GRPBUFFERPIXELFORMATALPHABLENDRGBPACKED@VBLENDERRGB555@@V?$GRPBUFFERMINMEM@E@@@@@@UAEPAXI@Z 0047db00 f i GRPFactory.obj
 0001:0007cb30       ??_G?$GRPBUFFERRENDERERBASE@V?$GRPBUFFERPIXELFORMATALPHABLENDRGBPACKED@VBLENDERRGB565@@V?$GRPBUFFERMINMEM@E@@@@@@UAEPAXI@Z 0047db30 f i GRPFactory.obj
 0001:0007cb30       ??_E?$GRPBUFFERRENDERERBASE@V?$GRPBUFFERPIXELFORMATALPHABLENDRGBPACKED@VBLENDERRGB565@@V?$GRPBUFFERMINMEM@E@@@@@@UAEPAXI@Z 0047db30 f i GRPFactory.obj
 0001:0007cb60       ??_G?$GRPRECTBASE@H@@UAEPAXI@Z 0047db60 f i GRPFactory.obj
 0001:0007cb60       ??_E?$GRPRECTBASE@H@@UAEPAXI@Z 0047db60 f i GRPFactory.obj
 0001:0007cb90       ??_EGRPBITMAP@@UAEPAXI@Z   0047db90 f i GRPFactory.obj
 0001:0007cb90       ??_GGRPBITMAP@@UAEPAXI@Z   0047db90 f i GRPFactory.obj
 0001:0007cbc0       ??_GGRPBUFFERCOLOR@@UAEPAXI@Z 0047dbc0 f i GRPFactory.obj
 0001:0007cbc0       ??_EGRPBUFFERCOLOR@@UAEPAXI@Z 0047dbc0 f i GRPFactory.obj
 0001:0007cbf0       ??_GGRPBUFFERCOLORRGBA8@@UAEPAXI@Z 0047dbf0 f i GRPFactory.obj
 0001:0007cbf0       ??_EGRPBUFFERCOLORRGBA8@@UAEPAXI@Z 0047dbf0 f i GRPFactory.obj
 0001:0007cc20       ??_EGRPPROPERTIES@@UAEPAXI@Z 0047dc20 f i GRPFactory.obj
 0001:0007cc20       ??_GGRPPROPERTIES@@UAEPAXI@Z 0047dc20 f i GRPFactory.obj
 0001:0007cc50       ?Clean@?$GRPBUFFERBITMAPPIXELFORMAT@V?$GRPBUFFERPIXELFORMATALPHABLENDRGB@V?$BLENDERRGB@VGRPBUFFERCOLORRGBA8@@UGRPBUFFERCOLORORDER_BGR@@@@V?$GRPBUFFERMINMEM@E@@@@@@AAEXXZ 0047dc50 f i GRPFactory.obj
 0001:0007cc70       ?Clean@?$GRPBUFFERBITMAPPIXELFORMAT@V?$GRPBUFFERPIXELFORMATALPHABLENDRGB@V?$BLENDERRGB@VGRPBUFFERCOLORRGBA8@@UGRPBUFFERCOLORORDER_RGB@@@@V?$GRPBUFFERMINMEM@E@@@@@@AAEXXZ 0047dc70 f i GRPFactory.obj
 0001:0007cc90       ?Clean@?$GRPBUFFERBITMAPPIXELFORMAT@V?$GRPBUFFERPIXELFORMATALPHABLENDRGBA@V?$BLENDERRGBA@VGRPBUFFERCOLORRGBA8@@UGRPBUFFERCOLORORDER_BGRA@@@@V?$GRPBUFFERMINMEM@E@@I@@@@AAEXXZ 0047dc90 f i GRPFactory.obj
 0001:0007ccb0       ?Clean@?$GRPBUFFERBITMAPPIXELFORMAT@V?$GRPBUFFERPIXELFORMATALPHABLENDRGBA@V?$BLENDERRGBA@VGRPBUFFERCOLORRGBA8@@UGRPBUFFERCOLORORDER_RGBA@@@@V?$GRPBUFFERMINMEM@E@@I@@@@AAEXXZ 0047dcb0 f i GRPFactory.obj
 0001:0007ccd0       ?Clean@?$GRPBUFFERBITMAPPIXELFORMAT@V?$GRPBUFFERPIXELFORMATALPHABLENDRGBPACKED@VBLENDERRGB555@@V?$GRPBUFFERMINMEM@E@@@@@@AAEXXZ 0047dcd0 f i GRPFactory.obj
 0001:0007ccf0       ?Clean@?$GRPBUFFERBITMAPPIXELFORMAT@V?$GRPBUFFERPIXELFORMATALPHABLENDRGBPACKED@VBLENDERRGB565@@V?$GRPBUFFERMINMEM@E@@@@@@AAEXXZ 0047dcf0 f i GRPFactory.obj
 0001:0007cd10       ?Clean@?$GRPBUFFERMINMEM@E@@AAEXXZ 0047dd10 f i GRPFactory.obj
 0001:0007cd60       ?Clean@?$GRPBUFFERRENDERERBASE@V?$GRPBUFFERPIXELFORMATALPHABLENDRGB@V?$BLENDERRGB@VGRPBUFFERCOLORRGBA8@@UGRPBUFFERCOLORORDER_BGR@@@@V?$GRPBUFFERMINMEM@E@@@@@@AAEXXZ 0047dd60 f i GRPFactory.obj
 0001:0007cd80       ?Clean@?$GRPBUFFERRENDERERBASE@V?$GRPBUFFERPIXELFORMATALPHABLENDRGB@V?$BLENDERRGB@VGRPBUFFERCOLORRGBA8@@UGRPBUFFERCOLORORDER_RGB@@@@V?$GRPBUFFERMINMEM@E@@@@@@AAEXXZ 0047dd80 f i GRPFactory.obj
 0001:0007cda0       ?Clean@?$GRPBUFFERRENDERERBASE@V?$GRPBUFFERPIXELFORMATALPHABLENDRGBA@V?$BLENDERRGBA@VGRPBUFFERCOLORRGBA8@@UGRPBUFFERCOLORORDER_BGRA@@@@V?$GRPBUFFERMINMEM@E@@I@@@@AAEXXZ 0047dda0 f i GRPFactory.obj
 0001:0007cdc0       ?Clean@?$GRPBUFFERRENDERERBASE@V?$GRPBUFFERPIXELFORMATALPHABLENDRGBA@V?$BLENDERRGBA@VGRPBUFFERCOLORRGBA8@@UGRPBUFFERCOLORORDER_RGBA@@@@V?$GRPBUFFERMINMEM@E@@I@@@@AAEXXZ 0047ddc0 f i GRPFactory.obj
 0001:0007cde0       ?Clean@?$GRPBUFFERRENDERERBASE@V?$GRPBUFFERPIXELFORMATALPHABLENDRGBPACKED@VBLENDERRGB555@@V?$GRPBUFFERMINMEM@E@@@@@@AAEXXZ 0047dde0 f i GRPFactory.obj
 0001:0007ce00       ?Clean@?$GRPBUFFERRENDERERBASE@V?$GRPBUFFERPIXELFORMATALPHABLENDRGBPACKED@VBLENDERRGB565@@V?$GRPBUFFERMINMEM@E@@@@@@AAEXXZ 0047de00 f i GRPFactory.obj
 0001:0007ce20       ?Clean@?$GRPRECTBASE@H@@AAEXXZ 0047de20 f i GRPFactory.obj
 0001:0007ce60       ?Clean@?$XPAIR@W4GRPTEXTURE_FORMAT@@I@@AAEXXZ 0047de60 f i GRPFactory.obj
 0001:0007ce80       ?Clean@GRPBITMAP@@AAEXXZ   0047de80 f i GRPFactory.obj
 0001:0007ceb0       ?Clean@GRPBUFFERCOLORRGBA8@@AAEXXZ 0047deb0 f i GRPFactory.obj
 0001:0007cee0       ?Clean@GRPPROPERTIES@@AAEXXZ 0047dee0 f i GRPFactory.obj
 0001:0007cf30       ?Clear@GRPBUFFERCOLORRGBA8@@QAEXXZ 0047df30 f i GRPFactory.obj
 0001:0007cf60       ?Clone@?$GRPBUFFERBITMAPPIXELFORMAT@V?$GRPBUFFERPIXELFORMATALPHABLENDRGB@V?$BLENDERRGB@VGRPBUFFERCOLORRGBA8@@UGRPBUFFERCOLORORDER_BGR@@@@V?$GRPBUFFERMINMEM@E@@@@@@UAEPAVGRPBITMAP@@XZ 0047df60 f i GRPFactory.obj
 0001:0007d040       ?Clone@?$GRPBUFFERBITMAPPIXELFORMAT@V?$GRPBUFFERPIXELFORMATALPHABLENDRGB@V?$BLENDERRGB@VGRPBUFFERCOLORRGBA8@@UGRPBUFFERCOLORORDER_RGB@@@@V?$GRPBUFFERMINMEM@E@@@@@@UAEPAVGRPBITMAP@@XZ 0047e040 f i GRPFactory.obj
 0001:0007d120       ?Clone@?$GRPBUFFERBITMAPPIXELFORMAT@V?$GRPBUFFERPIXELFORMATALPHABLENDRGBA@V?$BLENDERRGBA@VGRPBUFFERCOLORRGBA8@@UGRPBUFFERCOLORORDER_BGRA@@@@V?$GRPBUFFERMINMEM@E@@I@@@@UAEPAVGRPBITMAP@@XZ 0047e120 f i GRPFactory.obj
 0001:0007d200       ?Clone@?$GRPBUFFERBITMAPPIXELFORMAT@V?$GRPBUFFERPIXELFORMATALPHABLENDRGBA@V?$BLENDERRGBA@VGRPBUFFERCOLORRGBA8@@UGRPBUFFERCOLORORDER_RGBA@@@@V?$GRPBUFFERMINMEM@E@@I@@@@UAEPAVGRPBITMAP@@XZ 0047e200 f i GRPFactory.obj
 0001:0007d2e0       ?Clone@?$GRPBUFFERBITMAPPIXELFORMAT@V?$GRPBUFFERPIXELFORMATALPHABLENDRGBPACKED@VBLENDERRGB555@@V?$GRPBUFFERMINMEM@E@@@@@@UAEPAVGRPBITMAP@@XZ 0047e2e0 f i GRPFactory.obj
 0001:0007d3c0       ?Clone@?$GRPBUFFERBITMAPPIXELFORMAT@V?$GRPBUFFERPIXELFORMATALPHABLENDRGBPACKED@VBLENDERRGB565@@V?$GRPBUFFERMINMEM@E@@@@@@UAEPAVGRPBITMAP@@XZ 0047e3c0 f i GRPFactory.obj
 0001:0007d4a0       ?Clone@GRPBITMAP@@UAEPAV1@XZ 0047e4a0 f i GRPFactory.obj
 0001:0007d4b0       ?CopyBuffer@?$GRPBUFFERBITMAPPIXELFORMAT@V?$GRPBUFFERPIXELFORMATALPHABLENDRGB@V?$BLENDERRGB@VGRPBUFFERCOLORRGBA8@@UGRPBUFFERCOLORORDER_BGR@@@@V?$GRPBUFFERMINMEM@E@@@@@@AAE_NPAE@Z 0047e4b0 f i GRPFactory.obj
 0001:0007d4f0       ?CopyBuffer@?$GRPBUFFERBITMAPPIXELFORMAT@V?$GRPBUFFERPIXELFORMATALPHABLENDRGB@V?$BLENDERRGB@VGRPBUFFERCOLORRGBA8@@UGRPBUFFERCOLORORDER_RGB@@@@V?$GRPBUFFERMINMEM@E@@@@@@AAE_NPAE@Z 0047e4f0 f i GRPFactory.obj
 0001:0007d530       ?CopyBuffer@?$GRPBUFFERBITMAPPIXELFORMAT@V?$GRPBUFFERPIXELFORMATALPHABLENDRGBA@V?$BLENDERRGBA@VGRPBUFFERCOLORRGBA8@@UGRPBUFFERCOLORORDER_BGRA@@@@V?$GRPBUFFERMINMEM@E@@I@@@@AAE_NPAE@Z 0047e530 f i GRPFactory.obj
 0001:0007d570       ?CopyBuffer@?$GRPBUFFERBITMAPPIXELFORMAT@V?$GRPBUFFERPIXELFORMATALPHABLENDRGBA@V?$BLENDERRGBA@VGRPBUFFERCOLORRGBA8@@UGRPBUFFERCOLORORDER_RGBA@@@@V?$GRPBUFFERMINMEM@E@@I@@@@AAE_NPAE@Z 0047e570 f i GRPFactory.obj
 0001:0007d5b0       ?CopyBuffer@?$GRPBUFFERBITMAPPIXELFORMAT@V?$GRPBUFFERPIXELFORMATALPHABLENDRGBPACKED@VBLENDERRGB555@@V?$GRPBUFFERMINMEM@E@@@@@@AAE_NPAE@Z 0047e5b0 f i GRPFactory.obj
 0001:0007d5f0       ?CopyBuffer@?$GRPBUFFERBITMAPPIXELFORMAT@V?$GRPBUFFERPIXELFORMATALPHABLENDRGBPACKED@VBLENDERRGB565@@V?$GRPBUFFERMINMEM@E@@@@@@AAE_NPAE@Z 0047e5f0 f i GRPFactory.obj
 0001:0007d630       ?CopyFrom@?$GRPBUFFERBITMAPPIXELFORMAT@V?$GRPBUFFERPIXELFORMATALPHABLENDRGB@V?$BLENDERRGB@VGRPBUFFERCOLORRGBA8@@UGRPBUFFERCOLORORDER_BGR@@@@V?$GRPBUFFERMINMEM@E@@@@@@UAE_NPAVGRPBITMAP@@@Z 0047e630 f i GRPFactory.obj
 0001:0007d680       ?CopyFrom@?$GRPBUFFERBITMAPPIXELFORMAT@V?$GRPBUFFERPIXELFORMATALPHABLENDRGB@V?$BLENDERRGB@VGRPBUFFERCOLORRGBA8@@UGRPBUFFERCOLORORDER_RGB@@@@V?$GRPBUFFERMINMEM@E@@@@@@UAE_NPAVGRPBITMAP@@@Z 0047e680 f i GRPFactory.obj
 0001:0007d6d0       ?CopyFrom@?$GRPBUFFERBITMAPPIXELFORMAT@V?$GRPBUFFERPIXELFORMATALPHABLENDRGBA@V?$BLENDERRGBA@VGRPBUFFERCOLORRGBA8@@UGRPBUFFERCOLORORDER_BGRA@@@@V?$GRPBUFFERMINMEM@E@@I@@@@UAE_NPAVGRPBITMAP@@@Z 0047e6d0 f i GRPFactory.obj
 0001:0007d720       ?CopyFrom@?$GRPBUFFERBITMAPPIXELFORMAT@V?$GRPBUFFERPIXELFORMATALPHABLENDRGBA@V?$BLENDERRGBA@VGRPBUFFERCOLORRGBA8@@UGRPBUFFERCOLORORDER_RGBA@@@@V?$GRPBUFFERMINMEM@E@@I@@@@UAE_NPAVGRPBITMAP@@@Z 0047e720 f i GRPFactory.obj
 0001:0007d770       ?CopyFrom@?$GRPBUFFERBITMAPPIXELFORMAT@V?$GRPBUFFERPIXELFORMATALPHABLENDRGBPACKED@VBLENDERRGB555@@V?$GRPBUFFERMINMEM@E@@@@@@UAE_NPAVGRPBITMAP@@@Z 0047e770 f i GRPFactory.obj
 0001:0007d7c0       ?CopyFrom@?$GRPBUFFERBITMAPPIXELFORMAT@V?$GRPBUFFERPIXELFORMATALPHABLENDRGBPACKED@VBLENDERRGB565@@V?$GRPBUFFERMINMEM@E@@@@@@UAE_NPAVGRPBITMAP@@@Z 0047e7c0 f i GRPFactory.obj
 0001:0007d810       ?CopyFrom@GRPBITMAP@@UAE_NPAV1@@Z 0047e810 f i GRPFactory.obj
 0001:0007d820       ?CreateBuffers@?$GRPBUFFERBITMAPPIXELFORMAT@V?$GRPBUFFERPIXELFORMATALPHABLENDRGB@V?$BLENDERRGB@VGRPBUFFERCOLORRGBA8@@UGRPBUFFERCOLORORDER_BGR@@@@V?$GRPBUFFERMINMEM@E@@@@@@AAE_NXZ 0047e820 f i GRPFactory.obj
 0001:0007d9d0       ?CreateBuffers@?$GRPBUFFERBITMAPPIXELFORMAT@V?$GRPBUFFERPIXELFORMATALPHABLENDRGB@V?$BLENDERRGB@VGRPBUFFERCOLORRGBA8@@UGRPBUFFERCOLORORDER_RGB@@@@V?$GRPBUFFERMINMEM@E@@@@@@AAE_NXZ 0047e9d0 f i GRPFactory.obj
 0001:0007db80       ?CreateBuffers@?$GRPBUFFERBITMAPPIXELFORMAT@V?$GRPBUFFERPIXELFORMATALPHABLENDRGBA@V?$BLENDERRGBA@VGRPBUFFERCOLORRGBA8@@UGRPBUFFERCOLORORDER_BGRA@@@@V?$GRPBUFFERMINMEM@E@@I@@@@AAE_NXZ 0047eb80 f i GRPFactory.obj
 0001:0007dd30       ?CreateBuffers@?$GRPBUFFERBITMAPPIXELFORMAT@V?$GRPBUFFERPIXELFORMATALPHABLENDRGBA@V?$BLENDERRGBA@VGRPBUFFERCOLORRGBA8@@UGRPBUFFERCOLORORDER_RGBA@@@@V?$GRPBUFFERMINMEM@E@@I@@@@AAE_NXZ 0047ed30 f i GRPFactory.obj
 0001:0007dee0       ?CreateBuffers@?$GRPBUFFERBITMAPPIXELFORMAT@V?$GRPBUFFERPIXELFORMATALPHABLENDRGBPACKED@VBLENDERRGB555@@V?$GRPBUFFERMINMEM@E@@@@@@AAE_NXZ 0047eee0 f i GRPFactory.obj
 0001:0007e090       ?CreateBuffers@?$GRPBUFFERBITMAPPIXELFORMAT@V?$GRPBUFFERPIXELFORMATALPHABLENDRGBPACKED@VBLENDERRGB565@@V?$GRPBUFFERMINMEM@E@@@@@@AAE_NXZ 0047f090 f i GRPFactory.obj
 0001:0007e240       ?Crop@?$GRPBUFFERBITMAPPIXELFORMAT@V?$GRPBUFFERPIXELFORMATALPHABLENDRGB@V?$BLENDERRGB@VGRPBUFFERCOLORRGBA8@@UGRPBUFFERCOLORORDER_BGR@@@@V?$GRPBUFFERMINMEM@E@@@@@@UAE_NAAV?$GRPRECTBASE@H@@@Z 0047f240 f i GRPFactory.obj
 0001:0007e2c0       ?Crop@?$GRPBUFFERBITMAPPIXELFORMAT@V?$GRPBUFFERPIXELFORMATALPHABLENDRGB@V?$BLENDERRGB@VGRPBUFFERCOLORRGBA8@@UGRPBUFFERCOLORORDER_RGB@@@@V?$GRPBUFFERMINMEM@E@@@@@@UAE_NAAV?$GRPRECTBASE@H@@@Z 0047f2c0 f i GRPFactory.obj
 0001:0007e340       ?Crop@?$GRPBUFFERBITMAPPIXELFORMAT@V?$GRPBUFFERPIXELFORMATALPHABLENDRGBA@V?$BLENDERRGBA@VGRPBUFFERCOLORRGBA8@@UGRPBUFFERCOLORORDER_BGRA@@@@V?$GRPBUFFERMINMEM@E@@I@@@@UAE_NAAV?$GRPRECTBASE@H@@@Z 0047f340 f i GRPFactory.obj
 0001:0007e3c0       ?Crop@?$GRPBUFFERBITMAPPIXELFORMAT@V?$GRPBUFFERPIXELFORMATALPHABLENDRGBA@V?$BLENDERRGBA@VGRPBUFFERCOLORRGBA8@@UGRPBUFFERCOLORORDER_RGBA@@@@V?$GRPBUFFERMINMEM@E@@I@@@@UAE_NAAV?$GRPRECTBASE@H@@@Z 0047f3c0 f i GRPFactory.obj
 0001:0007e440       ?Crop@?$GRPBUFFERBITMAPPIXELFORMAT@V?$GRPBUFFERPIXELFORMATALPHABLENDRGBPACKED@VBLENDERRGB555@@V?$GRPBUFFERMINMEM@E@@@@@@UAE_NAAV?$GRPRECTBASE@H@@@Z 0047f440 f i GRPFactory.obj
 0001:0007e4c0       ?Crop@?$GRPBUFFERBITMAPPIXELFORMAT@V?$GRPBUFFERPIXELFORMATALPHABLENDRGBPACKED@VBLENDERRGB565@@V?$GRPBUFFERMINMEM@E@@@@@@UAE_NAAV?$GRPRECTBASE@H@@@Z 0047f4c0 f i GRPFactory.obj
 0001:0007e540       ?Crop@GRPBITMAP@@UAE_NAAV?$GRPRECTBASE@H@@@Z 0047f540 f i GRPFactory.obj
 0001:0007e550       ?Default@GRPPROPERTIES@@QAEXXZ 0047f550 f i GRPFactory.obj
 0001:0007e590       ?DeleteBuffers@?$GRPBUFFERBITMAPPIXELFORMAT@V?$GRPBUFFERPIXELFORMATALPHABLENDRGB@V?$BLENDERRGB@VGRPBUFFERCOLORRGBA8@@UGRPBUFFERCOLORORDER_BGR@@@@V?$GRPBUFFERMINMEM@E@@@@@@AAE_NXZ 0047f590 f i GRPFactory.obj
 0001:0007e620       ?DeleteBuffers@?$GRPBUFFERBITMAPPIXELFORMAT@V?$GRPBUFFERPIXELFORMATALPHABLENDRGB@V?$BLENDERRGB@VGRPBUFFERCOLORRGBA8@@UGRPBUFFERCOLORORDER_RGB@@@@V?$GRPBUFFERMINMEM@E@@@@@@AAE_NXZ 0047f620 f i GRPFactory.obj
 0001:0007e6b0       ?DeleteBuffers@?$GRPBUFFERBITMAPPIXELFORMAT@V?$GRPBUFFERPIXELFORMATALPHABLENDRGBA@V?$BLENDERRGBA@VGRPBUFFERCOLORRGBA8@@UGRPBUFFERCOLORORDER_BGRA@@@@V?$GRPBUFFERMINMEM@E@@I@@@@AAE_NXZ 0047f6b0 f i GRPFactory.obj
 0001:0007e740       ?DeleteBuffers@?$GRPBUFFERBITMAPPIXELFORMAT@V?$GRPBUFFERPIXELFORMATALPHABLENDRGBA@V?$BLENDERRGBA@VGRPBUFFERCOLORRGBA8@@UGRPBUFFERCOLORORDER_RGBA@@@@V?$GRPBUFFERMINMEM@E@@I@@@@AAE_NXZ 0047f740 f i GRPFactory.obj
 0001:0007e7d0       ?DeleteBuffers@?$GRPBUFFERBITMAPPIXELFORMAT@V?$GRPBUFFERPIXELFORMATALPHABLENDRGBPACKED@VBLENDERRGB555@@V?$GRPBUFFERMINMEM@E@@@@@@AAE_NXZ 0047f7d0 f i GRPFactory.obj
 0001:0007e860       ?DeleteBuffers@?$GRPBUFFERBITMAPPIXELFORMAT@V?$GRPBUFFERPIXELFORMATALPHABLENDRGBPACKED@VBLENDERRGB565@@V?$GRPBUFFERMINMEM@E@@@@@@AAE_NXZ 0047f860 f i GRPFactory.obj
 0001:0007e8f0       ?FlipHorizontal@?$GRPBUFFERBITMAPPIXELFORMAT@V?$GRPBUFFERPIXELFORMATALPHABLENDRGB@V?$BLENDERRGB@VGRPBUFFERCOLORRGBA8@@UGRPBUFFERCOLORORDER_BGR@@@@V?$GRPBUFFERMINMEM@E@@@@@@UAE_NXZ 0047f8f0 f i GRPFactory.obj
 0001:0007ea60       ?FlipHorizontal@?$GRPBUFFERBITMAPPIXELFORMAT@V?$GRPBUFFERPIXELFORMATALPHABLENDRGB@V?$BLENDERRGB@VGRPBUFFERCOLORRGBA8@@UGRPBUFFERCOLORORDER_RGB@@@@V?$GRPBUFFERMINMEM@E@@@@@@UAE_NXZ 0047fa60 f i GRPFactory.obj
 0001:0007ebd0       ?FlipHorizontal@?$GRPBUFFERBITMAPPIXELFORMAT@V?$GRPBUFFERPIXELFORMATALPHABLENDRGBA@V?$BLENDERRGBA@VGRPBUFFERCOLORRGBA8@@UGRPBUFFERCOLORORDER_BGRA@@@@V?$GRPBUFFERMINMEM@E@@I@@@@UAE_NXZ 0047fbd0 f i GRPFactory.obj
 0001:0007ed40       ?FlipHorizontal@?$GRPBUFFERBITMAPPIXELFORMAT@V?$GRPBUFFERPIXELFORMATALPHABLENDRGBA@V?$BLENDERRGBA@VGRPBUFFERCOLORRGBA8@@UGRPBUFFERCOLORORDER_RGBA@@@@V?$GRPBUFFERMINMEM@E@@I@@@@UAE_NXZ 0047fd40 f i GRPFactory.obj
 0001:0007eeb0       ?FlipHorizontal@?$GRPBUFFERBITMAPPIXELFORMAT@V?$GRPBUFFERPIXELFORMATALPHABLENDRGBPACKED@VBLENDERRGB555@@V?$GRPBUFFERMINMEM@E@@@@@@UAE_NXZ 0047feb0 f i GRPFactory.obj
 0001:0007f020       ?FlipHorizontal@?$GRPBUFFERBITMAPPIXELFORMAT@V?$GRPBUFFERPIXELFORMATALPHABLENDRGBPACKED@VBLENDERRGB565@@V?$GRPBUFFERMINMEM@E@@@@@@UAE_NXZ 00480020 f i GRPFactory.obj
 0001:0007f190       ?FlipHorizontal@GRPBITMAP@@UAE_NXZ 00480190 f i GRPFactory.obj
 0001:0007f1a0       ?FlipVertical@?$GRPBUFFERBITMAPPIXELFORMAT@V?$GRPBUFFERPIXELFORMATALPHABLENDRGB@V?$BLENDERRGB@VGRPBUFFERCOLORRGBA8@@UGRPBUFFERCOLORORDER_BGR@@@@V?$GRPBUFFERMINMEM@E@@@@@@UAE_NXZ 004801a0 f i GRPFactory.obj
 0001:0007f310       ?FlipVertical@?$GRPBUFFERBITMAPPIXELFORMAT@V?$GRPBUFFERPIXELFORMATALPHABLENDRGB@V?$BLENDERRGB@VGRPBUFFERCOLORRGBA8@@UGRPBUFFERCOLORORDER_RGB@@@@V?$GRPBUFFERMINMEM@E@@@@@@UAE_NXZ 00480310 f i GRPFactory.obj
 0001:0007f480       ?FlipVertical@?$GRPBUFFERBITMAPPIXELFORMAT@V?$GRPBUFFERPIXELFORMATALPHABLENDRGBA@V?$BLENDERRGBA@VGRPBUFFERCOLORRGBA8@@UGRPBUFFERCOLORORDER_BGRA@@@@V?$GRPBUFFERMINMEM@E@@I@@@@UAE_NXZ 00480480 f i GRPFactory.obj
 0001:0007f5f0       ?FlipVertical@?$GRPBUFFERBITMAPPIXELFORMAT@V?$GRPBUFFERPIXELFORMATALPHABLENDRGBA@V?$BLENDERRGBA@VGRPBUFFERCOLORRGBA8@@UGRPBUFFERCOLORORDER_RGBA@@@@V?$GRPBUFFERMINMEM@E@@I@@@@UAE_NXZ 004805f0 f i GRPFactory.obj
 0001:0007f760       ?FlipVertical@?$GRPBUFFERBITMAPPIXELFORMAT@V?$GRPBUFFERPIXELFORMATALPHABLENDRGBPACKED@VBLENDERRGB555@@V?$GRPBUFFERMINMEM@E@@@@@@UAE_NXZ 00480760 f i GRPFactory.obj
 0001:0007f8d0       ?FlipVertical@?$GRPBUFFERBITMAPPIXELFORMAT@V?$GRPBUFFERPIXELFORMATALPHABLENDRGBPACKED@VBLENDERRGB565@@V?$GRPBUFFERMINMEM@E@@@@@@UAE_NXZ 004808d0 f i GRPFactory.obj
 0001:0007fa40       ?FlipVertical@GRPBITMAP@@UAE_NXZ 00480a40 f i GRPFactory.obj
 0001:0007fa50       ?Get@?$XAVLTREE@V?$XPAIR@W4GRPTEXTURE_FORMAT@@I@@U?$XLESS@V?$XPAIR@W4GRPTEXTURE_FORMAT@@I@@@@@@QAE?AV?$XPAIR@W4GRPTEXTURE_FORMAT@@I@@ABV2@@Z 00480a50 f i GRPFactory.obj
 0001:0007fbb0       ?Get@?$XBINARYMAP@W4GRPTEXTURE_FORMAT@@IU?$XLESS@V?$XPAIR@W4GRPTEXTURE_FORMAT@@I@@@@V?$XAVLTREE@V?$XPAIR@W4GRPTEXTURE_FORMAT@@I@@U?$XLESS@V?$XPAIR@W4GRPTEXTURE_FORMAT@@I@@@@@@@@QAEIW4GRPTEXTURE_FORMAT@@@Z 00480bb0 f i GRPFactory.obj
 0001:0007fbe0       ?GetBitsperPixel@GRPPROPERTIES@@QAEEXZ 00480be0 f i GRPFactory.obj
 0001:0007fc60       ?GetBytesperPixel@GRPPROPERTIES@@QAEEXZ 00480c60 f i GRPFactory.obj
 0001:0007fc80       ?GetColor@BLENDERRGB555@@SA?AVGRPBUFFERCOLORRGBA8@@G@Z 00480c80 f i GRPFactory.obj
 0001:0007fce0       ?GetColor@BLENDERRGB565@@SA?AVGRPBUFFERCOLORRGBA8@@G@Z 00480ce0 f i GRPFactory.obj
 0001:0007fd40       ?GetHeight@?$GRPBUFFERMINMEM@E@@QAEIXZ 00480d40 f i GRPFactory.obj
 0001:0007fd60       ?GetHeight@?$GRPBUFFERPIXELFORMATALPHABLENDRGB@V?$BLENDERRGB@VGRPBUFFERCOLORRGBA8@@UGRPBUFFERCOLORORDER_BGR@@@@V?$GRPBUFFERMINMEM@E@@@@QBEIXZ 00480d60 f i GRPFactory.obj
 0001:0007fd80       ?GetHeight@?$GRPBUFFERPIXELFORMATALPHABLENDRGB@V?$BLENDERRGB@VGRPBUFFERCOLORRGBA8@@UGRPBUFFERCOLORORDER_RGB@@@@V?$GRPBUFFERMINMEM@E@@@@QBEIXZ 00480d80 f i GRPFactory.obj
 0001:0007fda0       ?GetHeight@?$GRPBUFFERPIXELFORMATALPHABLENDRGBA@V?$BLENDERRGBA@VGRPBUFFERCOLORRGBA8@@UGRPBUFFERCOLORORDER_BGRA@@@@V?$GRPBUFFERMINMEM@E@@I@@QBEIXZ 00480da0 f i GRPFactory.obj
 0001:0007fdc0       ?GetHeight@?$GRPBUFFERPIXELFORMATALPHABLENDRGBA@V?$BLENDERRGBA@VGRPBUFFERCOLORRGBA8@@UGRPBUFFERCOLORORDER_RGBA@@@@V?$GRPBUFFERMINMEM@E@@I@@QBEIXZ 00480dc0 f i GRPFactory.obj
 0001:0007fde0       ?GetHeight@?$GRPBUFFERPIXELFORMATALPHABLENDRGBPACKED@VBLENDERRGB555@@V?$GRPBUFFERMINMEM@E@@@@QBEIXZ 00480de0 f i GRPFactory.obj
 0001:0007fe00       ?GetHeight@?$GRPBUFFERPIXELFORMATALPHABLENDRGBPACKED@VBLENDERRGB565@@V?$GRPBUFFERMINMEM@E@@@@QBEIXZ 00480e00 f i GRPFactory.obj
 0001:0007fe20       ?GetMode@GRPPROPERTIES@@QAE?AW4GRPPROPERTYMODE@@XZ 00480e20 f i GRPFactory.obj
 0001:0007fe40       ?GetNoColor@GRPBUFFERCOLORRGBA8@@SA?AV1@XZ 00480e40 f i GRPFactory.obj
 0001:0007fe70       ?GetPixel@?$GRPBUFFERBITMAPPIXELFORMAT@V?$GRPBUFFERPIXELFORMATALPHABLENDRGB@V?$BLENDERRGB@VGRPBUFFERCOLORRGBA8@@UGRPBUFFERCOLORORDER_BGR@@@@V?$GRPBUFFERMINMEM@E@@@@@@UAEPAVGRPBUFFERCOLOR@@HH@Z 00480e70 f i GRPFactory.obj
 0001:0007fec0       ?GetPixel@?$GRPBUFFERBITMAPPIXELFORMAT@V?$GRPBUFFERPIXELFORMATALPHABLENDRGB@V?$BLENDERRGB@VGRPBUFFERCOLORRGBA8@@UGRPBUFFERCOLORORDER_RGB@@@@V?$GRPBUFFERMINMEM@E@@@@@@UAEPAVGRPBUFFERCOLOR@@HH@Z 00480ec0 f i GRPFactory.obj
 0001:0007ff10       ?GetPixel@?$GRPBUFFERBITMAPPIXELFORMAT@V?$GRPBUFFERPIXELFORMATALPHABLENDRGBA@V?$BLENDERRGBA@VGRPBUFFERCOLORRGBA8@@UGRPBUFFERCOLORORDER_BGRA@@@@V?$GRPBUFFERMINMEM@E@@I@@@@UAEPAVGRPBUFFERCOLOR@@HH@Z 00480f10 f i GRPFactory.obj
 0001:0007ff60       ?GetPixel@?$GRPBUFFERBITMAPPIXELFORMAT@V?$GRPBUFFERPIXELFORMATALPHABLENDRGBA@V?$BLENDERRGBA@VGRPBUFFERCOLORRGBA8@@UGRPBUFFERCOLORORDER_RGBA@@@@V?$GRPBUFFERMINMEM@E@@I@@@@UAEPAVGRPBUFFERCOLOR@@HH@Z 00480f60 f i GRPFactory.obj
 0001:0007ffb0       ?GetPixel@?$GRPBUFFERBITMAPPIXELFORMAT@V?$GRPBUFFERPIXELFORMATALPHABLENDRGBPACKED@VBLENDERRGB555@@V?$GRPBUFFERMINMEM@E@@@@@@UAEPAVGRPBUFFERCOLOR@@HH@Z 00480fb0 f i GRPFactory.obj
 0001:00080000       ?GetPixel@?$GRPBUFFERBITMAPPIXELFORMAT@V?$GRPBUFFERPIXELFORMATALPHABLENDRGBPACKED@VBLENDERRGB565@@V?$GRPBUFFERMINMEM@E@@@@@@UAEPAVGRPBUFFERCOLOR@@HH@Z 00481000 f i GRPFactory.obj
 0001:00080050       ?GetPixel@?$GRPBUFFERPIXELFORMATALPHABLENDRGB@V?$BLENDERRGB@VGRPBUFFERCOLORRGBA8@@UGRPBUFFERCOLORORDER_BGR@@@@V?$GRPBUFFERMINMEM@E@@@@QBE?AVGRPBUFFERCOLORRGBA8@@HH@Z 00481050 f i GRPFactory.obj
 0001:000800d0       ?GetPixel@?$GRPBUFFERPIXELFORMATALPHABLENDRGB@V?$BLENDERRGB@VGRPBUFFERCOLORRGBA8@@UGRPBUFFERCOLORORDER_RGB@@@@V?$GRPBUFFERMINMEM@E@@@@QBE?AVGRPBUFFERCOLORRGBA8@@HH@Z 004810d0 f i GRPFactory.obj
 0001:00080150       ?GetPixel@?$GRPBUFFERPIXELFORMATALPHABLENDRGBA@V?$BLENDERRGBA@VGRPBUFFERCOLORRGBA8@@UGRPBUFFERCOLORORDER_BGRA@@@@V?$GRPBUFFERMINMEM@E@@I@@QBE?AVGRPBUFFERCOLORRGBA8@@HH@Z 00481150 f i GRPFactory.obj
 0001:00080200       ?GetPixel@?$GRPBUFFERPIXELFORMATALPHABLENDRGBA@V?$BLENDERRGBA@VGRPBUFFERCOLORRGBA8@@UGRPBUFFERCOLORORDER_RGBA@@@@V?$GRPBUFFERMINMEM@E@@I@@QBE?AVGRPBUFFERCOLORRGBA8@@HH@Z 00481200 f i GRPFactory.obj
 0001:000802b0       ?GetPixel@?$GRPBUFFERPIXELFORMATALPHABLENDRGBPACKED@VBLENDERRGB555@@V?$GRPBUFFERMINMEM@E@@@@QBE?AVGRPBUFFERCOLORRGBA8@@HH@Z 004812b0 f i GRPFactory.obj
 0001:00080300       ?GetPixel@?$GRPBUFFERPIXELFORMATALPHABLENDRGBPACKED@VBLENDERRGB565@@V?$GRPBUFFERMINMEM@E@@@@QBE?AVGRPBUFFERCOLORRGBA8@@HH@Z 00481300 f i GRPFactory.obj
 0001:00080350       ?GetPixel@?$GRPBUFFERRENDERERBASE@V?$GRPBUFFERPIXELFORMATALPHABLENDRGB@V?$BLENDERRGB@VGRPBUFFERCOLORRGBA8@@UGRPBUFFERCOLORORDER_BGR@@@@V?$GRPBUFFERMINMEM@E@@@@@@QBE?AVGRPBUFFERCOLORRGBA8@@HH@Z 00481350 f i GRPFactory.obj
 0001:00080450       ?GetPixel@?$GRPBUFFERRENDERERBASE@V?$GRPBUFFERPIXELFORMATALPHABLENDRGB@V?$BLENDERRGB@VGRPBUFFERCOLORRGBA8@@UGRPBUFFERCOLORORDER_RGB@@@@V?$GRPBUFFERMINMEM@E@@@@@@QBE?AVGRPBUFFERCOLORRGBA8@@HH@Z 00481450 f i GRPFactory.obj
 0001:00080550       ?GetPixel@?$GRPBUFFERRENDERERBASE@V?$GRPBUFFERPIXELFORMATALPHABLENDRGBA@V?$BLENDERRGBA@VGRPBUFFERCOLORRGBA8@@UGRPBUFFERCOLORORDER_BGRA@@@@V?$GRPBUFFERMINMEM@E@@I@@@@QBE?AVGRPBUFFERCOLORRGBA8@@HH@Z 00481550 f i GRPFactory.obj
 0001:00080650       ?GetPixel@?$GRPBUFFERRENDERERBASE@V?$GRPBUFFERPIXELFORMATALPHABLENDRGBA@V?$BLENDERRGBA@VGRPBUFFERCOLORRGBA8@@UGRPBUFFERCOLORORDER_RGBA@@@@V?$GRPBUFFERMINMEM@E@@I@@@@QBE?AVGRPBUFFERCOLORRGBA8@@HH@Z 00481650 f i GRPFactory.obj
 0001:00080750       ?GetPixel@?$GRPBUFFERRENDERERBASE@V?$GRPBUFFERPIXELFORMATALPHABLENDRGBPACKED@VBLENDERRGB555@@V?$GRPBUFFERMINMEM@E@@@@@@QBE?AVGRPBUFFERCOLORRGBA8@@HH@Z 00481750 f i GRPFactory.obj
 0001:00080850       ?GetPixel@?$GRPBUFFERRENDERERBASE@V?$GRPBUFFERPIXELFORMATALPHABLENDRGBPACKED@VBLENDERRGB565@@V?$GRPBUFFERMINMEM@E@@@@@@QBE?AVGRPBUFFERCOLORRGBA8@@HH@Z 00481850 f i GRPFactory.obj
 0001:00080950       ?GetSubBitmap@?$GRPBUFFERBITMAPPIXELFORMAT@V?$GRPBUFFERPIXELFORMATALPHABLENDRGB@V?$BLENDERRGB@VGRPBUFFERCOLORRGBA8@@UGRPBUFFERCOLORORDER_BGR@@@@V?$GRPBUFFERMINMEM@E@@@@@@UAEPAVGRPBITMAP@@AAV?$GRPRECTBASE@H@@@Z 00481950 f i GRPFactory.obj
 0001:00080aa0       ?GetSubBitmap@?$GRPBUFFERBITMAPPIXELFORMAT@V?$GRPBUFFERPIXELFORMATALPHABLENDRGB@V?$BLENDERRGB@VGRPBUFFERCOLORRGBA8@@UGRPBUFFERCOLORORDER_RGB@@@@V?$GRPBUFFERMINMEM@E@@@@@@UAEPAVGRPBITMAP@@AAV?$GRPRECTBASE@H@@@Z 00481aa0 f i GRPFactory.obj
 0001:00080bf0       ?GetSubBitmap@?$GRPBUFFERBITMAPPIXELFORMAT@V?$GRPBUFFERPIXELFORMATALPHABLENDRGBA@V?$BLENDERRGBA@VGRPBUFFERCOLORRGBA8@@UGRPBUFFERCOLORORDER_BGRA@@@@V?$GRPBUFFERMINMEM@E@@I@@@@UAEPAVGRPBITMAP@@AAV?$GRPRECTBASE@H@@@Z 00481bf0 f i GRPFactory.obj
 0001:00080d40       ?GetSubBitmap@?$GRPBUFFERBITMAPPIXELFORMAT@V?$GRPBUFFERPIXELFORMATALPHABLENDRGBA@V?$BLENDERRGBA@VGRPBUFFERCOLORRGBA8@@UGRPBUFFERCOLORORDER_RGBA@@@@V?$GRPBUFFERMINMEM@E@@I@@@@UAEPAVGRPBITMAP@@AAV?$GRPRECTBASE@H@@@Z 00481d40 f i GRPFactory.obj
 0001:00080e90       ?GetSubBitmap@?$GRPBUFFERBITMAPPIXELFORMAT@V?$GRPBUFFERPIXELFORMATALPHABLENDRGBPACKED@VBLENDERRGB555@@V?$GRPBUFFERMINMEM@E@@@@@@UAEPAVGRPBITMAP@@AAV?$GRPRECTBASE@H@@@Z 00481e90 f i GRPFactory.obj
 0001:00080fe0       ?GetSubBitmap@?$GRPBUFFERBITMAPPIXELFORMAT@V?$GRPBUFFERPIXELFORMATALPHABLENDRGBPACKED@VBLENDERRGB565@@V?$GRPBUFFERMINMEM@E@@@@@@UAEPAVGRPBITMAP@@AAV?$GRPRECTBASE@H@@@Z 00481fe0 f i GRPFactory.obj
 0001:00081130       ?GetSubBitmap@GRPBITMAP@@UAEPAV1@AAV?$GRPRECTBASE@H@@@Z 00482130 f i GRPFactory.obj
 0001:00081140       ?GetWidth@?$GRPBUFFERMINMEM@E@@QAEIXZ 00482140 f i GRPFactory.obj
 0001:00081160       ?GetWidth@?$GRPBUFFERPIXELFORMATALPHABLENDRGB@V?$BLENDERRGB@VGRPBUFFERCOLORRGBA8@@UGRPBUFFERCOLORORDER_BGR@@@@V?$GRPBUFFERMINMEM@E@@@@QBEIXZ 00482160 f i GRPFactory.obj
 0001:00081180       ?GetWidth@?$GRPBUFFERPIXELFORMATALPHABLENDRGB@V?$BLENDERRGB@VGRPBUFFERCOLORRGBA8@@UGRPBUFFERCOLORORDER_RGB@@@@V?$GRPBUFFERMINMEM@E@@@@QBEIXZ 00482180 f i GRPFactory.obj
 0001:000811a0       ?GetWidth@?$GRPBUFFERPIXELFORMATALPHABLENDRGBA@V?$BLENDERRGBA@VGRPBUFFERCOLORRGBA8@@UGRPBUFFERCOLORORDER_BGRA@@@@V?$GRPBUFFERMINMEM@E@@I@@QBEIXZ 004821a0 f i GRPFactory.obj
 0001:000811c0       ?GetWidth@?$GRPBUFFERPIXELFORMATALPHABLENDRGBA@V?$BLENDERRGBA@VGRPBUFFERCOLORRGBA8@@UGRPBUFFERCOLORORDER_RGBA@@@@V?$GRPBUFFERMINMEM@E@@I@@QBEIXZ 004821c0 f i GRPFactory.obj
 0001:000811e0       ?GetWidth@?$GRPBUFFERPIXELFORMATALPHABLENDRGBPACKED@VBLENDERRGB555@@V?$GRPBUFFERMINMEM@E@@@@QBEIXZ 004821e0 f i GRPFactory.obj
 0001:00081200       ?GetWidth@?$GRPBUFFERPIXELFORMATALPHABLENDRGBPACKED@VBLENDERRGB565@@V?$GRPBUFFERMINMEM@E@@@@QBEIXZ 00482200 f i GRPFactory.obj
 0001:00081220       ?IsBufferInverse@GRPPROPERTIES@@QAE_NXZ 00482220 f i GRPFactory.obj
 0001:00081240       ?IsInBox@?$GRPBUFFERRENDERERBASE@V?$GRPBUFFERPIXELFORMATALPHABLENDRGB@V?$BLENDERRGB@VGRPBUFFERCOLORRGBA8@@UGRPBUFFERCOLORORDER_BGR@@@@V?$GRPBUFFERMINMEM@E@@@@@@QBE_NHH@Z 00482240 f i GRPFactory.obj
 0001:00081290       ?IsInBox@?$GRPBUFFERRENDERERBASE@V?$GRPBUFFERPIXELFORMATALPHABLENDRGB@V?$BLENDERRGB@VGRPBUFFERCOLORRGBA8@@UGRPBUFFERCOLORORDER_RGB@@@@V?$GRPBUFFERMINMEM@E@@@@@@QBE_NHH@Z 00482290 f i GRPFactory.obj
 0001:000812e0       ?IsInBox@?$GRPBUFFERRENDERERBASE@V?$GRPBUFFERPIXELFORMATALPHABLENDRGBA@V?$BLENDERRGBA@VGRPBUFFERCOLORRGBA8@@UGRPBUFFERCOLORORDER_BGRA@@@@V?$GRPBUFFERMINMEM@E@@I@@@@QBE_NHH@Z 004822e0 f i GRPFactory.obj
 0001:00081330       ?IsInBox@?$GRPBUFFERRENDERERBASE@V?$GRPBUFFERPIXELFORMATALPHABLENDRGBA@V?$BLENDERRGBA@VGRPBUFFERCOLORRGBA8@@UGRPBUFFERCOLORORDER_RGBA@@@@V?$GRPBUFFERMINMEM@E@@I@@@@QBE_NHH@Z 00482330 f i GRPFactory.obj
 0001:00081380       ?IsInBox@?$GRPBUFFERRENDERERBASE@V?$GRPBUFFERPIXELFORMATALPHABLENDRGBPACKED@VBLENDERRGB555@@V?$GRPBUFFERMINMEM@E@@@@@@QBE_NHH@Z 00482380 f i GRPFactory.obj
 0001:000813d0       ?IsInBox@?$GRPBUFFERRENDERERBASE@V?$GRPBUFFERPIXELFORMATALPHABLENDRGBPACKED@VBLENDERRGB565@@V?$GRPBUFFERMINMEM@E@@@@@@QBE_NHH@Z 004823d0 f i GRPFactory.obj
 0001:00081420       ?PutBlendPixel@?$BLENDERRGB@VGRPBUFFERCOLORRGBA8@@UGRPBUFFERCOLORORDER_BGR@@@@SAXPAEIIIII@Z 00482420 f i GRPFactory.obj
 0001:000814e0       ?PutBlendPixel@?$BLENDERRGB@VGRPBUFFERCOLORRGBA8@@UGRPBUFFERCOLORORDER_RGB@@@@SAXPAEIIIII@Z 004824e0 f i GRPFactory.obj
 0001:000815a0       ?PutBlendPixel@?$BLENDERRGBA@VGRPBUFFERCOLORRGBA8@@UGRPBUFFERCOLORORDER_BGRA@@@@SAXPAEIIIII@Z 004825a0 f i GRPFactory.obj
 0001:00081680       ?PutBlendPixel@?$BLENDERRGBA@VGRPBUFFERCOLORRGBA8@@UGRPBUFFERCOLORORDER_RGBA@@@@SAXPAEIIIII@Z 00482680 f i GRPFactory.obj
 0001:00081760       ?PutBlendPixel@?$GRPBUFFERBITMAPPIXELFORMAT@V?$GRPBUFFERPIXELFORMATALPHABLENDRGB@V?$BLENDERRGB@VGRPBUFFERCOLORRGBA8@@UGRPBUFFERCOLORORDER_BGR@@@@V?$GRPBUFFERMINMEM@E@@@@@@UAEXHHPBVGRPBUFFERCOLOR@@H@Z 00482760 f i GRPFactory.obj
 0001:00081790       ?PutBlendPixel@?$GRPBUFFERBITMAPPIXELFORMAT@V?$GRPBUFFERPIXELFORMATALPHABLENDRGB@V?$BLENDERRGB@VGRPBUFFERCOLORRGBA8@@UGRPBUFFERCOLORORDER_RGB@@@@V?$GRPBUFFERMINMEM@E@@@@@@UAEXHHPBVGRPBUFFERCOLOR@@H@Z 00482790 f i GRPFactory.obj
 0001:000817c0       ?PutBlendPixel@?$GRPBUFFERBITMAPPIXELFORMAT@V?$GRPBUFFERPIXELFORMATALPHABLENDRGBA@V?$BLENDERRGBA@VGRPBUFFERCOLORRGBA8@@UGRPBUFFERCOLORORDER_BGRA@@@@V?$GRPBUFFERMINMEM@E@@I@@@@UAEXHHPBVGRPBUFFERCOLOR@@H@Z 004827c0 f i GRPFactory.obj
 0001:000817f0       ?PutBlendPixel@?$GRPBUFFERBITMAPPIXELFORMAT@V?$GRPBUFFERPIXELFORMATALPHABLENDRGBA@V?$BLENDERRGBA@VGRPBUFFERCOLORRGBA8@@UGRPBUFFERCOLORORDER_RGBA@@@@V?$GRPBUFFERMINMEM@E@@I@@@@UAEXHHPBVGRPBUFFERCOLOR@@H@Z 004827f0 f i GRPFactory.obj
 0001:00081820       ?PutBlendPixel@?$GRPBUFFERBITMAPPIXELFORMAT@V?$GRPBUFFERPIXELFORMATALPHABLENDRGBPACKED@VBLENDERRGB555@@V?$GRPBUFFERMINMEM@E@@@@@@UAEXHHPBVGRPBUFFERCOLOR@@H@Z 00482820 f i GRPFactory.obj
 0001:00081850       ?PutBlendPixel@?$GRPBUFFERBITMAPPIXELFORMAT@V?$GRPBUFFERPIXELFORMATALPHABLENDRGBPACKED@VBLENDERRGB565@@V?$GRPBUFFERMINMEM@E@@@@@@UAEXHHPBVGRPBUFFERCOLOR@@H@Z 00482850 f i GRPFactory.obj
 0001:00081880       ?PutBlendPixel@?$GRPBUFFERPIXELFORMATALPHABLENDRGB@V?$BLENDERRGB@VGRPBUFFERCOLORRGBA8@@UGRPBUFFERCOLORORDER_BGR@@@@V?$GRPBUFFERMINMEM@E@@@@QAEXHHABVGRPBUFFERCOLORRGBA8@@E@Z 00482880 f i GRPFactory.obj
 0001:000818c0       ?PutBlendPixel@?$GRPBUFFERPIXELFORMATALPHABLENDRGB@V?$BLENDERRGB@VGRPBUFFERCOLORRGBA8@@UGRPBUFFERCOLORORDER_RGB@@@@V?$GRPBUFFERMINMEM@E@@@@QAEXHHABVGRPBUFFERCOLORRGBA8@@E@Z 004828c0 f i GRPFactory.obj
 0001:00081900       ?PutBlendPixel@?$GRPBUFFERPIXELFORMATALPHABLENDRGBA@V?$BLENDERRGBA@VGRPBUFFERCOLORRGBA8@@UGRPBUFFERCOLORORDER_BGRA@@@@V?$GRPBUFFERMINMEM@E@@I@@QAEXHHABVGRPBUFFERCOLORRGBA8@@E@Z 00482900 f i GRPFactory.obj
 0001:00081960       ?PutBlendPixel@?$GRPBUFFERPIXELFORMATALPHABLENDRGBA@V?$BLENDERRGBA@VGRPBUFFERCOLORRGBA8@@UGRPBUFFERCOLORORDER_RGBA@@@@V?$GRPBUFFERMINMEM@E@@I@@QAEXHHABVGRPBUFFERCOLORRGBA8@@E@Z 00482960 f i GRPFactory.obj
 0001:000819c0       ?PutBlendPixel@?$GRPBUFFERPIXELFORMATALPHABLENDRGBPACKED@VBLENDERRGB555@@V?$GRPBUFFERMINMEM@E@@@@QAEXHHABVGRPBUFFERCOLORRGBA8@@E@Z 004829c0 f i GRPFactory.obj
 0001:00081a00       ?PutBlendPixel@?$GRPBUFFERPIXELFORMATALPHABLENDRGBPACKED@VBLENDERRGB565@@V?$GRPBUFFERMINMEM@E@@@@QAEXHHABVGRPBUFFERCOLORRGBA8@@E@Z 00482a00 f i GRPFactory.obj
 0001:00081a40       ?PutBlendPixel@?$GRPBUFFERRENDERERBASE@V?$GRPBUFFERPIXELFORMATALPHABLENDRGB@V?$BLENDERRGB@VGRPBUFFERCOLORRGBA8@@UGRPBUFFERCOLORORDER_BGR@@@@V?$GRPBUFFERMINMEM@E@@@@@@QAEXHHABVGRPBUFFERCOLORRGBA8@@E@Z 00482a40 f i GRPFactory.obj
 0001:00081a80       ?PutBlendPixel@?$GRPBUFFERRENDERERBASE@V?$GRPBUFFERPIXELFORMATALPHABLENDRGB@V?$BLENDERRGB@VGRPBUFFERCOLORRGBA8@@UGRPBUFFERCOLORORDER_RGB@@@@V?$GRPBUFFERMINMEM@E@@@@@@QAEXHHABVGRPBUFFERCOLORRGBA8@@E@Z 00482a80 f i GRPFactory.obj
 0001:00081ac0       ?PutBlendPixel@?$GRPBUFFERRENDERERBASE@V?$GRPBUFFERPIXELFORMATALPHABLENDRGBA@V?$BLENDERRGBA@VGRPBUFFERCOLORRGBA8@@UGRPBUFFERCOLORORDER_BGRA@@@@V?$GRPBUFFERMINMEM@E@@I@@@@QAEXHHABVGRPBUFFERCOLORRGBA8@@E@Z 00482ac0 f i GRPFactory.obj
 0001:00081b00       ?PutBlendPixel@?$GRPBUFFERRENDERERBASE@V?$GRPBUFFERPIXELFORMATALPHABLENDRGBA@V?$BLENDERRGBA@VGRPBUFFERCOLORRGBA8@@UGRPBUFFERCOLORORDER_RGBA@@@@V?$GRPBUFFERMINMEM@E@@I@@@@QAEXHHABVGRPBUFFERCOLORRGBA8@@E@Z 00482b00 f i GRPFactory.obj
 0001:00081b40       ?PutBlendPixel@?$GRPBUFFERRENDERERBASE@V?$GRPBUFFERPIXELFORMATALPHABLENDRGBPACKED@VBLENDERRGB555@@V?$GRPBUFFERMINMEM@E@@@@@@QAEXHHABVGRPBUFFERCOLORRGBA8@@E@Z 00482b40 f i GRPFactory.obj
 0001:00081b80       ?PutBlendPixel@?$GRPBUFFERRENDERERBASE@V?$GRPBUFFERPIXELFORMATALPHABLENDRGBPACKED@VBLENDERRGB565@@V?$GRPBUFFERMINMEM@E@@@@@@QAEXHHABVGRPBUFFERCOLORRGBA8@@E@Z 00482b80 f i GRPFactory.obj
 0001:00081bc0       ?PutBlendPixel@BLENDERRGB555@@SAXPAGIIIII@Z 00482bc0 f i GRPFactory.obj
 0001:00081c60       ?PutBlendPixel@BLENDERRGB565@@SAXPAGIIIII@Z 00482c60 f i GRPFactory.obj
 0001:00081d00       ?PutOrBlendPixel@?$GRPBUFFERPIXELFORMATALPHABLENDRGB@V?$BLENDERRGB@VGRPBUFFERCOLORRGBA8@@UGRPBUFFERCOLORORDER_BGR@@@@V?$GRPBUFFERMINMEM@E@@@@AAEXPAEABVGRPBUFFERCOLORRGBA8@@I@Z 00482d00 f i GRPFactory.obj
 0001:00081db0       ?PutOrBlendPixel@?$GRPBUFFERPIXELFORMATALPHABLENDRGB@V?$BLENDERRGB@VGRPBUFFERCOLORRGBA8@@UGRPBUFFERCOLORORDER_RGB@@@@V?$GRPBUFFERMINMEM@E@@@@AAEXPAEABVGRPBUFFERCOLORRGBA8@@I@Z 00482db0 f i GRPFactory.obj
 0001:00081e60       ?PutOrBlendPixel@?$GRPBUFFERPIXELFORMATALPHABLENDRGBPACKED@VBLENDERRGB555@@V?$GRPBUFFERMINMEM@E@@@@AAEXPAGABVGRPBUFFERCOLORRGBA8@@I@Z 00482e60 f i GRPFactory.obj
 0001:00081ef0       ?PutOrBlendPixel@?$GRPBUFFERPIXELFORMATALPHABLENDRGBPACKED@VBLENDERRGB565@@V?$GRPBUFFERMINMEM@E@@@@AAEXPAGABVGRPBUFFERCOLORRGBA8@@I@Z 00482ef0 f i GRPFactory.obj
 0001:00081f80       ?PutOrBlendPixel@?$PUTORBLENDRGBAWRAPPER@V?$BLENDERRGBA@VGRPBUFFERCOLORRGBA8@@UGRPBUFFERCOLORORDER_BGRA@@@@@@SAXPAEIIII@Z 00482f80 f i GRPFactory.obj
 0001:00082000       ?PutOrBlendPixel@?$PUTORBLENDRGBAWRAPPER@V?$BLENDERRGBA@VGRPBUFFERCOLORRGBA8@@UGRPBUFFERCOLORORDER_BGRA@@@@@@SAXPAEIIIII@Z 00483000 f i GRPFactory.obj
 0001:000820c0       ?PutOrBlendPixel@?$PUTORBLENDRGBAWRAPPER@V?$BLENDERRGBA@VGRPBUFFERCOLORRGBA8@@UGRPBUFFERCOLORORDER_RGBA@@@@@@SAXPAEIIII@Z 004830c0 f i GRPFactory.obj
 0001:00082140       ?PutOrBlendPixel@?$PUTORBLENDRGBAWRAPPER@V?$BLENDERRGBA@VGRPBUFFERCOLORRGBA8@@UGRPBUFFERCOLORORDER_RGBA@@@@@@SAXPAEIIIII@Z 00483140 f i GRPFactory.obj
 0001:00082200       ?PutPixel@?$GRPBUFFERBITMAPPIXELFORMAT@V?$GRPBUFFERPIXELFORMATALPHABLENDRGB@V?$BLENDERRGB@VGRPBUFFERCOLORRGBA8@@UGRPBUFFERCOLORORDER_BGR@@@@V?$GRPBUFFERMINMEM@E@@@@@@UAEXHHPBVGRPBUFFERCOLOR@@@Z 00483200 f i GRPFactory.obj
 0001:00082230       ?PutPixel@?$GRPBUFFERBITMAPPIXELFORMAT@V?$GRPBUFFERPIXELFORMATALPHABLENDRGB@V?$BLENDERRGB@VGRPBUFFERCOLORRGBA8@@UGRPBUFFERCOLORORDER_RGB@@@@V?$GRPBUFFERMINMEM@E@@@@@@UAEXHHPBVGRPBUFFERCOLOR@@@Z 00483230 f i GRPFactory.obj
 0001:00082260       ?PutPixel@?$GRPBUFFERBITMAPPIXELFORMAT@V?$GRPBUFFERPIXELFORMATALPHABLENDRGBA@V?$BLENDERRGBA@VGRPBUFFERCOLORRGBA8@@UGRPBUFFERCOLORORDER_BGRA@@@@V?$GRPBUFFERMINMEM@E@@I@@@@UAEXHHPBVGRPBUFFERCOLOR@@@Z 00483260 f i GRPFactory.obj
 0001:00082290       ?PutPixel@?$GRPBUFFERBITMAPPIXELFORMAT@V?$GRPBUFFERPIXELFORMATALPHABLENDRGBA@V?$BLENDERRGBA@VGRPBUFFERCOLORRGBA8@@UGRPBUFFERCOLORORDER_RGBA@@@@V?$GRPBUFFERMINMEM@E@@I@@@@UAEXHHPBVGRPBUFFERCOLOR@@@Z 00483290 f i GRPFactory.obj
 0001:000822c0       ?PutPixel@?$GRPBUFFERBITMAPPIXELFORMAT@V?$GRPBUFFERPIXELFORMATALPHABLENDRGBPACKED@VBLENDERRGB555@@V?$GRPBUFFERMINMEM@E@@@@@@UAEXHHPBVGRPBUFFERCOLOR@@@Z 004832c0 f i GRPFactory.obj
 0001:000822f0       ?PutPixel@?$GRPBUFFERBITMAPPIXELFORMAT@V?$GRPBUFFERPIXELFORMATALPHABLENDRGBPACKED@VBLENDERRGB565@@V?$GRPBUFFERMINMEM@E@@@@@@UAEXHHPBVGRPBUFFERCOLOR@@@Z 004832f0 f i GRPFactory.obj
 0001:00082320       ?PutPixel@?$GRPBUFFERPIXELFORMATALPHABLENDRGB@V?$BLENDERRGB@VGRPBUFFERCOLORRGBA8@@UGRPBUFFERCOLORORDER_BGR@@@@V?$GRPBUFFERMINMEM@E@@@@QAEXHHABVGRPBUFFERCOLORRGBA8@@@Z 00483320 f i GRPFactory.obj
 0001:00082390       ?PutPixel@?$GRPBUFFERPIXELFORMATALPHABLENDRGB@V?$BLENDERRGB@VGRPBUFFERCOLORRGBA8@@UGRPBUFFERCOLORORDER_RGB@@@@V?$GRPBUFFERMINMEM@E@@@@QAEXHHABVGRPBUFFERCOLORRGBA8@@@Z 00483390 f i GRPFactory.obj
 0001:00082400       ?PutPixel@?$GRPBUFFERPIXELFORMATALPHABLENDRGBA@V?$BLENDERRGBA@VGRPBUFFERCOLORRGBA8@@UGRPBUFFERCOLORORDER_BGRA@@@@V?$GRPBUFFERMINMEM@E@@I@@QAEXHHABVGRPBUFFERCOLORRGBA8@@@Z 00483400 f i GRPFactory.obj
 0001:00082480       ?PutPixel@?$GRPBUFFERPIXELFORMATALPHABLENDRGBA@V?$BLENDERRGBA@VGRPBUFFERCOLORRGBA8@@UGRPBUFFERCOLORORDER_RGBA@@@@V?$GRPBUFFERMINMEM@E@@I@@QAEXHHABVGRPBUFFERCOLORRGBA8@@@Z 00483480 f i GRPFactory.obj
 0001:00082500       ?PutPixel@?$GRPBUFFERPIXELFORMATALPHABLENDRGBPACKED@VBLENDERRGB555@@V?$GRPBUFFERMINMEM@E@@@@QAEXHHABVGRPBUFFERCOLORRGBA8@@@Z 00483500 f i GRPFactory.obj
 0001:00082550       ?PutPixel@?$GRPBUFFERPIXELFORMATALPHABLENDRGBPACKED@VBLENDERRGB565@@V?$GRPBUFFERMINMEM@E@@@@QAEXHHABVGRPBUFFERCOLORRGBA8@@@Z 00483550 f i GRPFactory.obj
 0001:000825a0       ?PutPixel@?$GRPBUFFERRENDERERBASE@V?$GRPBUFFERPIXELFORMATALPHABLENDRGB@V?$BLENDERRGB@VGRPBUFFERCOLORRGBA8@@UGRPBUFFERCOLORORDER_BGR@@@@V?$GRPBUFFERMINMEM@E@@@@@@QAEXHHABVGRPBUFFERCOLORRGBA8@@@Z 004835a0 f i GRPFactory.obj
 0001:000825e0       ?PutPixel@?$GRPBUFFERRENDERERBASE@V?$GRPBUFFERPIXELFORMATALPHABLENDRGB@V?$BLENDERRGB@VGRPBUFFERCOLORRGBA8@@UGRPBUFFERCOLORORDER_RGB@@@@V?$GRPBUFFERMINMEM@E@@@@@@QAEXHHABVGRPBUFFERCOLORRGBA8@@@Z 004835e0 f i GRPFactory.obj
 0001:00082620       ?PutPixel@?$GRPBUFFERRENDERERBASE@V?$GRPBUFFERPIXELFORMATALPHABLENDRGBA@V?$BLENDERRGBA@VGRPBUFFERCOLORRGBA8@@UGRPBUFFERCOLORORDER_BGRA@@@@V?$GRPBUFFERMINMEM@E@@I@@@@QAEXHHABVGRPBUFFERCOLORRGBA8@@@Z 00483620 f i GRPFactory.obj
 0001:00082660       ?PutPixel@?$GRPBUFFERRENDERERBASE@V?$GRPBUFFERPIXELFORMATALPHABLENDRGBA@V?$BLENDERRGBA@VGRPBUFFERCOLORRGBA8@@UGRPBUFFERCOLORORDER_RGBA@@@@V?$GRPBUFFERMINMEM@E@@I@@@@QAEXHHABVGRPBUFFERCOLORRGBA8@@@Z 00483660 f i GRPFactory.obj
 0001:000826a0       ?PutPixel@?$GRPBUFFERRENDERERBASE@V?$GRPBUFFERPIXELFORMATALPHABLENDRGBPACKED@VBLENDERRGB555@@V?$GRPBUFFERMINMEM@E@@@@@@QAEXHHABVGRPBUFFERCOLORRGBA8@@@Z 004836a0 f i GRPFactory.obj
 0001:000826e0       ?PutPixel@?$GRPBUFFERRENDERERBASE@V?$GRPBUFFERPIXELFORMATALPHABLENDRGBPACKED@VBLENDERRGB565@@V?$GRPBUFFERMINMEM@E@@@@@@QAEXHHABVGRPBUFFERCOLORRGBA8@@@Z 004836e0 f i GRPFactory.obj
 0001:00082720       ?PutPixel@BLENDERRGB555@@SAGIII@Z 00483720 f i GRPFactory.obj
 0001:00082750       ?PutPixel@BLENDERRGB565@@SAGIII@Z 00483750 f i GRPFactory.obj
 0001:00082780       ?Rotate@?$GRPBUFFERBITMAPPIXELFORMAT@V?$GRPBUFFERPIXELFORMATALPHABLENDRGB@V?$BLENDERRGB@VGRPBUFFERCOLORRGBA8@@UGRPBUFFERCOLORORDER_BGR@@@@V?$GRPBUFFERMINMEM@E@@@@@@UAE_NM@Z 00483780 f i GRPFactory.obj
 0001:00082ba0       ?Rotate@?$GRPBUFFERBITMAPPIXELFORMAT@V?$GRPBUFFERPIXELFORMATALPHABLENDRGB@V?$BLENDERRGB@VGRPBUFFERCOLORRGBA8@@UGRPBUFFERCOLORORDER_RGB@@@@V?$GRPBUFFERMINMEM@E@@@@@@UAE_NM@Z 00483ba0 f i GRPFactory.obj
 0001:00082fc0       ?Rotate@?$GRPBUFFERBITMAPPIXELFORMAT@V?$GRPBUFFERPIXELFORMATALPHABLENDRGBA@V?$BLENDERRGBA@VGRPBUFFERCOLORRGBA8@@UGRPBUFFERCOLORORDER_BGRA@@@@V?$GRPBUFFERMINMEM@E@@I@@@@UAE_NM@Z 00483fc0 f i GRPFactory.obj
 0001:000833e0       ?Rotate@?$GRPBUFFERBITMAPPIXELFORMAT@V?$GRPBUFFERPIXELFORMATALPHABLENDRGBA@V?$BLENDERRGBA@VGRPBUFFERCOLORRGBA8@@UGRPBUFFERCOLORORDER_RGBA@@@@V?$GRPBUFFERMINMEM@E@@I@@@@UAE_NM@Z 004843e0 f i GRPFactory.obj
 0001:00083800       ?Rotate@?$GRPBUFFERBITMAPPIXELFORMAT@V?$GRPBUFFERPIXELFORMATALPHABLENDRGBPACKED@VBLENDERRGB555@@V?$GRPBUFFERMINMEM@E@@@@@@UAE_NM@Z 00484800 f i GRPFactory.obj
 0001:00083c20       ?Rotate@?$GRPBUFFERBITMAPPIXELFORMAT@V?$GRPBUFFERPIXELFORMATALPHABLENDRGBPACKED@VBLENDERRGB565@@V?$GRPBUFFERMINMEM@E@@@@@@UAE_NM@Z 00484c20 f i GRPFactory.obj
 0001:00084040       ?Rotate@GRPBITMAP@@UAE_NM@Z 00485040 f i GRPFactory.obj
 0001:00084050       ?Row@?$GRPBUFFERMINMEM@E@@QAEPAEI@Z 00485050 f i GRPFactory.obj
 0001:00084070       ?Row@?$GRPBUFFERMINMEM@E@@QAEPAEIII@Z 00485070 f i GRPFactory.obj
 0001:00084090       ?Scale@?$GRPBUFFERBITMAPPIXELFORMAT@V?$GRPBUFFERPIXELFORMATALPHABLENDRGB@V?$BLENDERRGB@VGRPBUFFERCOLORRGBA8@@UGRPBUFFERCOLORORDER_BGR@@@@V?$GRPBUFFERMINMEM@E@@@@@@UAE_NHH@Z 00485090 f i GRPFactory.obj
 0001:000842a0       ?Scale@?$GRPBUFFERBITMAPPIXELFORMAT@V?$GRPBUFFERPIXELFORMATALPHABLENDRGB@V?$BLENDERRGB@VGRPBUFFERCOLORRGBA8@@UGRPBUFFERCOLORORDER_RGB@@@@V?$GRPBUFFERMINMEM@E@@@@@@UAE_NHH@Z 004852a0 f i GRPFactory.obj
 0001:000844b0       ?Scale@?$GRPBUFFERBITMAPPIXELFORMAT@V?$GRPBUFFERPIXELFORMATALPHABLENDRGBA@V?$BLENDERRGBA@VGRPBUFFERCOLORRGBA8@@UGRPBUFFERCOLORORDER_BGRA@@@@V?$GRPBUFFERMINMEM@E@@I@@@@UAE_NHH@Z 004854b0 f i GRPFactory.obj
 0001:000846c0       ?Scale@?$GRPBUFFERBITMAPPIXELFORMAT@V?$GRPBUFFERPIXELFORMATALPHABLENDRGBA@V?$BLENDERRGBA@VGRPBUFFERCOLORRGBA8@@UGRPBUFFERCOLORORDER_RGBA@@@@V?$GRPBUFFERMINMEM@E@@I@@@@UAE_NHH@Z 004856c0 f i GRPFactory.obj
 0001:000848d0       ?Scale@?$GRPBUFFERBITMAPPIXELFORMAT@V?$GRPBUFFERPIXELFORMATALPHABLENDRGBPACKED@VBLENDERRGB555@@V?$GRPBUFFERMINMEM@E@@@@@@UAE_NHH@Z 004858d0 f i GRPFactory.obj
 0001:00084ae0       ?Scale@?$GRPBUFFERBITMAPPIXELFORMAT@V?$GRPBUFFERPIXELFORMATALPHABLENDRGBPACKED@VBLENDERRGB565@@V?$GRPBUFFERMINMEM@E@@@@@@UAE_NHH@Z 00485ae0 f i GRPFactory.obj
 0001:00084cf0       ?Scale@GRPBITMAP@@UAE_NHH@Z 00485cf0 f i GRPFactory.obj
 0001:00084d00       ?Set@?$GRPBUFFERMINMEM@E@@QAE_NPAEIIH@Z 00485d00 f i GRPFactory.obj
 0001:00084d70       ?Set@?$GRPRECTBASE@H@@QAEXHHHH@Z 00485d70 f i GRPFactory.obj
 0001:00084db0       ??0GRPFILE3D@@QAE@XZ       00485db0 f   GRPFile3D.obj
 0001:00084e50       ??1GRPFILE3D@@UAE@XZ       00485e50 f   GRPFile3D.obj
 0001:00084f10       ?SetTask@GRPFILE3D@@UAEXPAVXLOADERTASK@@@Z 00485f10 f   GRPFile3D.obj
 0001:00084f30       ?SetVerboseLevel@GRPFILE3D@@UAEXH@Z 00485f30 f   GRPFile3D.obj
 0001:00084f50       ?SetLoadFlags@GRPFILE3D@@UAEXI@Z 00485f50 f   GRPFile3D.obj
 0001:00084f70       ?SetFilename@GRPFILE3D@@UAEXPA_W@Z 00485f70 f   GRPFile3D.obj
 0001:00084f90       ?SetFile@GRPFILE3D@@UAEXPA_W@Z 00485f90 f   GRPFile3D.obj
 0001:00084fb0       ?SetNextStackID@GRPFILE3D@@UAEXI@Z 00485fb0 f   GRPFile3D.obj
 0001:00084fd0       ?Load@GRPFILE3D@@UAEPAVGRPOBJECT@@PA_W@Z 00485fd0 f   GRPFile3D.obj
 0001:000853e0       ?SetObject@GRPFILE3D@@UAEXPAVGRPOBJECT@@@Z 004863e0 f   GRPFile3D.obj
 0001:00085400       ?SetScene@GRPFILE3D@@UAEXPAVGRPSCENE@@@Z 00486400 f   GRPFile3D.obj
 0001:00085420       ??0?$XMAP@IPAVLAYER@GRPFILE3DXML@@@@QAE@XZ 00486420 f i GRPFile3D.obj
 0001:000854a0       ??0?$XMAP@IPAVMEDIA@GRPFILE3DXML@@@@QAE@XZ 004864a0 f i GRPFile3D.obj
 0001:00085520       ??0?$XMAP@IPAVOVERLAY@GRPFILE3DXML@@@@QAE@XZ 00486520 f i GRPFile3D.obj
 0001:000855a0       ??0?$XMAP@PAVXSTRING@@I@@QAE@XZ 004865a0 f i GRPFile3D.obj
 0001:00085620       ??0?$XMAP@PAVXSTRING@@PAVCOMMAND@GRPFILE3DXML@@@@QAE@XZ 00486620 f i GRPFile3D.obj
 0001:000856a0       ??0?$XMAP@PAVXSTRING@@PAVFONT@GRPFILE3DXML@@@@QAE@XZ 004866a0 f i GRPFile3D.obj
 0001:00085720       ??0?$XMAP@PAVXSTRING@@PAVLANGUAGE@GRPFILE3DXML@@@@QAE@XZ 00486720 f i GRPFile3D.obj
 0001:000857a0       ??0?$XMAP@PAVXSTRING@@PAVLIGHT@GRPFILE3DXML@@@@QAE@XZ 004867a0 f i GRPFile3D.obj
 0001:00085820       ??0?$XMAP@PAVXSTRING@@PAVTEXTBOX@GRPFILE3DXML@@@@QAE@XZ 00486820 f i GRPFile3D.obj
 0001:000858a0       ??0?$XMAP@_KPAVGRPANIMATIONCURVE@@@@QAE@XZ 004868a0 f i GRPFile3D.obj
 0001:00085920       ??0?$XMAP@_KPAVGRPANIMATIONLAYER@@@@QAE@XZ 00486920 f i GRPFile3D.obj
 0001:000859a0       ??0?$XMAP@_KPAVGRPANIMATIONNODE@@@@QAE@XZ 004869a0 f i GRPFile3D.obj
 0001:00085a20       ??0?$XMAP@_KPAVGRPANIMATIONSTACK@@@@QAE@XZ 00486a20 f i GRPFile3D.obj
 0001:00085aa0       ??0?$XMAP@_KPAVGRPCAMERA@@@@QAE@XZ 00486aa0 f i GRPFile3D.obj
 0001:00085b20       ??0?$XMAP@_KPAVGRPDEFORMER@@@@QAE@XZ 00486b20 f i GRPFile3D.obj
 0001:00085ba0       ??0?$XMAP@_KPAVGRPELEMENT@@@@QAE@XZ 00486ba0 f i GRPFile3D.obj
 0001:00085c20       ??0?$XMAP@_KPAVGRPLIGHT@@@@QAE@XZ 00486c20 f i GRPFile3D.obj
 0001:00085ca0       ??0?$XMAP@_KPAVGRPMATERIAL@@@@QAE@XZ 00486ca0 f i GRPFile3D.obj
 0001:00085d20       ??0?$XMAP@_KPAVGRPNODE@@@@QAE@XZ 00486d20 f i GRPFile3D.obj
 0001:00085da0       ??0?$XMAP@_KPAVGRPSKIN@@@@QAE@XZ 00486da0 f i GRPFile3D.obj
 0001:00085e20       ??0?$XMAP@_KPAVGRPSKINCLUSTER@@@@QAE@XZ 00486e20 f i GRPFile3D.obj
 0001:00085ea0       ??0?$XMAP@_KPAVGRPSKINLIMB@@@@QAE@XZ 00486ea0 f i GRPFile3D.obj
 0001:00085f20       ??0?$XMAP@_KPAVGRPSKINPOSE@@@@QAE@XZ 00486f20 f i GRPFile3D.obj
 0001:00085fa0       ??0?$XMAP@_KPAVGRPSUBDEFORMER@@@@QAE@XZ 00486fa0 f i GRPFile3D.obj
 0001:00086020       ??0?$XMAP@_KPAVGRPSUBDEFORMERSHAPE@@@@QAE@XZ 00487020 f i GRPFile3D.obj
 0001:000860a0       ??0?$XMAP@_KPAVGRPTEXTURE@@@@QAE@XZ 004870a0 f i GRPFile3D.obj
 0001:00086120       ??0?$XMAP@_KPAVXSTRING@@@@QAE@XZ 00487120 f i GRPFile3D.obj
 0001:000861a0       ??0?$XMAP@_K_K@@QAE@XZ     004871a0 f i GRPFile3D.obj
 0001:00086220       ??0?$XVECTOR@PAVCOMMAND@GRPFILE3DXML@@@@QAE@XZ 00487220 f i GRPFile3D.obj
 0001:00086240       ??0?$XVECTOR@PAVFBXData@@@@QAE@XZ 00487240 f i GRPFile3D.obj
 0001:00086260       ??0?$XVECTOR@PAVFBXNode@@@@QAE@XZ 00487260 f i GRPFile3D.obj
 0001:00086280       ??0?$XVECTOR@PAVFONT@GRPFILE3DXML@@@@QAE@XZ 00487280 f i GRPFile3D.obj
 0001:000862a0       ??0?$XVECTOR@PAVGRPCAMERA@@@@QAE@XZ 004872a0 f i GRPFile3D.obj
 0001:000862c0       ??0?$XVECTOR@PAVGRPLIGHT@@@@QAE@XZ 004872c0 f i GRPFile3D.obj
 0001:000862e0       ??0?$XVECTOR@PAVGRPMESH@@@@QAE@XZ 004872e0 f i GRPFile3D.obj
 0001:00086300       ??0?$XVECTOR@PAVGRPNODE@@@@QAE@XZ 00487300 f i GRPFile3D.obj
 0001:00086320       ??0?$XVECTOR@PAVGRPSKIN@@@@QAE@XZ 00487320 f i GRPFile3D.obj
 0001:00086340       ??0?$XVECTOR@PAVGRPSKINCLUSTER@@@@QAE@XZ 00487340 f i GRPFile3D.obj
 0001:00086360       ??0?$XVECTOR@PAVGRPSKINLIMB@@@@QAE@XZ 00487360 f i GRPFile3D.obj
 0001:00086380       ??0?$XVECTOR@PAVGRPSKINPOSE@@@@QAE@XZ 00487380 f i GRPFile3D.obj
 0001:000863a0       ??0?$XVECTOR@PAVGRPSUBDEFORMER@@@@QAE@XZ 004873a0 f i GRPFile3D.obj
 0001:000863c0       ??0?$XVECTOR@PAVGRPSUBDEFORMERSHAPE@@@@QAE@XZ 004873c0 f i GRPFile3D.obj
 0001:000863e0       ??0?$XVECTOR@PAVGRPTEXTURE@@@@QAE@XZ 004873e0 f i GRPFile3D.obj
 0001:00086400       ??0?$XVECTOR@PAVLANGUAGE@GRPFILE3DXML@@@@QAE@XZ 00487400 f i GRPFile3D.obj
 0001:00086420       ??0?$XVECTOR@PAVLAYER@GRPFILE3DXML@@@@QAE@XZ 00487420 f i GRPFile3D.obj
 0001:00086440       ??0?$XVECTOR@PAVLIGHT@GRPFILE3DXML@@@@QAE@XZ 00487440 f i GRPFile3D.obj
 0001:00086460       ??0?$XVECTOR@PAVMEDIA@GRPFILE3DXML@@@@QAE@XZ 00487460 f i GRPFile3D.obj
 0001:00086480       ??0?$XVECTOR@PAVOVERLAY@GRPFILE3DXML@@@@QAE@XZ 00487480 f i GRPFile3D.obj
 0001:000864a0       ??0?$XVECTOR@PAVSOUND@GRPFILE3DXML@@@@QAE@XZ 004874a0 f i GRPFile3D.obj
 0001:000864c0       ??0?$XVECTOR@PAVTEXTBOX@GRPFILE3DXML@@@@QAE@XZ 004874c0 f i GRPFile3D.obj
 0001:000864e0       ??0?$XVECTOR@_K@@QAE@XZ    004874e0 f i GRPFile3D.obj
 0001:00086500       ??0GRPFILE3DFBX@@QAE@XZ    00487500 f i GRPFile3D.obj
 0001:000868b0       ??0GRPFILE3DOBJ@@QAE@XZ    004878b0 f i GRPFile3D.obj
 0001:000868d0       ??0GRPFILE3DXML@@QAE@XZ    004878d0 f i GRPFile3D.obj
 0001:00086a30       ??0XFILEXML2@@QAE@XZ       00487a30 f i GRPFile3D.obj
 0001:00086a50       ??1?$XMAP@IPAVLAYER@GRPFILE3DXML@@@@UAE@XZ 00487a50 f i GRPFile3D.obj
 0001:00086a80       ??1?$XMAP@IPAVMEDIA@GRPFILE3DXML@@@@UAE@XZ 00487a80 f i GRPFile3D.obj
 0001:00086ab0       ??1?$XMAP@IPAVOVERLAY@GRPFILE3DXML@@@@UAE@XZ 00487ab0 f i GRPFile3D.obj
 0001:00086ae0       ??1?$XMAP@PAVXSTRING@@I@@UAE@XZ 00487ae0 f i GRPFile3D.obj
 0001:00086b10       ??1?$XMAP@PAVXSTRING@@PAVCOMMAND@GRPFILE3DXML@@@@UAE@XZ 00487b10 f i GRPFile3D.obj
 0001:00086b40       ??1?$XMAP@PAVXSTRING@@PAVFONT@GRPFILE3DXML@@@@UAE@XZ 00487b40 f i GRPFile3D.obj
 0001:00086b70       ??1?$XMAP@PAVXSTRING@@PAVLANGUAGE@GRPFILE3DXML@@@@UAE@XZ 00487b70 f i GRPFile3D.obj
 0001:00086ba0       ??1?$XMAP@PAVXSTRING@@PAVLIGHT@GRPFILE3DXML@@@@UAE@XZ 00487ba0 f i GRPFile3D.obj
 0001:00086bd0       ??1?$XMAP@PAVXSTRING@@PAVTEXTBOX@GRPFILE3DXML@@@@UAE@XZ 00487bd0 f i GRPFile3D.obj
 0001:00086c00       ??1?$XMAP@_KPAVGRPANIMATIONCURVE@@@@UAE@XZ 00487c00 f i GRPFile3D.obj
 0001:00086c30       ??1?$XMAP@_KPAVGRPANIMATIONLAYER@@@@UAE@XZ 00487c30 f i GRPFile3D.obj
 0001:00086c60       ??1?$XMAP@_KPAVGRPANIMATIONNODE@@@@UAE@XZ 00487c60 f i GRPFile3D.obj
 0001:00086c90       ??1?$XMAP@_KPAVGRPANIMATIONSTACK@@@@UAE@XZ 00487c90 f i GRPFile3D.obj
 0001:00086cc0       ??1?$XMAP@_KPAVGRPCAMERA@@@@UAE@XZ 00487cc0 f i GRPFile3D.obj
 0001:00086cf0       ??1?$XMAP@_KPAVGRPDEFORMER@@@@UAE@XZ 00487cf0 f i GRPFile3D.obj
 0001:00086d20       ??1?$XMAP@_KPAVGRPELEMENT@@@@UAE@XZ 00487d20 f i GRPFile3D.obj
 0001:00086d50       ??1?$XMAP@_KPAVGRPLIGHT@@@@UAE@XZ 00487d50 f i GRPFile3D.obj
 0001:00086d80       ??1?$XMAP@_KPAVGRPMATERIAL@@@@UAE@XZ 00487d80 f i GRPFile3D.obj
 0001:00086db0       ??1?$XMAP@_KPAVGRPNODE@@@@UAE@XZ 00487db0 f i GRPFile3D.obj
 0001:00086de0       ??1?$XMAP@_KPAVGRPSKIN@@@@UAE@XZ 00487de0 f i GRPFile3D.obj
 0001:00086e10       ??1?$XMAP@_KPAVGRPSKINCLUSTER@@@@UAE@XZ 00487e10 f i GRPFile3D.obj
 0001:00086e40       ??1?$XMAP@_KPAVGRPSKINLIMB@@@@UAE@XZ 00487e40 f i GRPFile3D.obj
 0001:00086e70       ??1?$XMAP@_KPAVGRPSKINPOSE@@@@UAE@XZ 00487e70 f i GRPFile3D.obj
 0001:00086ea0       ??1?$XMAP@_KPAVGRPSUBDEFORMER@@@@UAE@XZ 00487ea0 f i GRPFile3D.obj
 0001:00086ed0       ??1?$XMAP@_KPAVGRPSUBDEFORMERSHAPE@@@@UAE@XZ 00487ed0 f i GRPFile3D.obj
 0001:00086f00       ??1?$XMAP@_KPAVGRPTEXTURE@@@@UAE@XZ 00487f00 f i GRPFile3D.obj
 0001:00086f30       ??1?$XMAP@_KPAVXSTRING@@@@UAE@XZ 00487f30 f i GRPFile3D.obj
 0001:00086f60       ??1?$XMAP@_K_K@@UAE@XZ     00487f60 f i GRPFile3D.obj
 0001:00086f90       ??1?$XVECTOR@PAVCOMMAND@GRPFILE3DXML@@@@UAE@XZ 00487f90 f i GRPFile3D.obj
 0001:00086fe0       ??1?$XVECTOR@PAVFBXData@@@@UAE@XZ 00487fe0 f i GRPFile3D.obj
 0001:00087030       ??1?$XVECTOR@PAVFBXNode@@@@UAE@XZ 00488030 f i GRPFile3D.obj
 0001:00087080       ??1?$XVECTOR@PAVFONT@GRPFILE3DXML@@@@UAE@XZ 00488080 f i GRPFile3D.obj
 0001:000870d0       ??1?$XVECTOR@PAVGRPCAMERA@@@@UAE@XZ 004880d0 f i GRPFile3D.obj
 0001:00087120       ??1?$XVECTOR@PAVGRPLIGHT@@@@UAE@XZ 00488120 f i GRPFile3D.obj
 0001:00087170       ??1?$XVECTOR@PAVGRPMESH@@@@UAE@XZ 00488170 f i GRPFile3D.obj
 0001:000871c0       ??1?$XVECTOR@PAVGRPNODE@@@@UAE@XZ 004881c0 f i GRPFile3D.obj
 0001:00087210       ??1?$XVECTOR@PAVGRPSKIN@@@@UAE@XZ 00488210 f i GRPFile3D.obj
 0001:00087260       ??1?$XVECTOR@PAVGRPSKINCLUSTER@@@@UAE@XZ 00488260 f i GRPFile3D.obj
 0001:000872b0       ??1?$XVECTOR@PAVGRPSKINLIMB@@@@UAE@XZ 004882b0 f i GRPFile3D.obj
 0001:00087300       ??1?$XVECTOR@PAVGRPSKINPOSE@@@@UAE@XZ 00488300 f i GRPFile3D.obj
 0001:00087350       ??1?$XVECTOR@PAVGRPSUBDEFORMER@@@@UAE@XZ 00488350 f i GRPFile3D.obj
 0001:000873a0       ??1?$XVECTOR@PAVGRPSUBDEFORMERSHAPE@@@@UAE@XZ 004883a0 f i GRPFile3D.obj
 0001:000873f0       ??1?$XVECTOR@PAVGRPTEXTURE@@@@UAE@XZ 004883f0 f i GRPFile3D.obj
 0001:00087440       ??1?$XVECTOR@PAVLANGUAGE@GRPFILE3DXML@@@@UAE@XZ 00488440 f i GRPFile3D.obj
 0001:00087490       ??1?$XVECTOR@PAVLAYER@GRPFILE3DXML@@@@UAE@XZ 00488490 f i GRPFile3D.obj
 0001:000874e0       ??1?$XVECTOR@PAVLIGHT@GRPFILE3DXML@@@@UAE@XZ 004884e0 f i GRPFile3D.obj
 0001:00087530       ??1?$XVECTOR@PAVMEDIA@GRPFILE3DXML@@@@UAE@XZ 00488530 f i GRPFile3D.obj
 0001:00087580       ??1?$XVECTOR@PAVOVERLAY@GRPFILE3DXML@@@@UAE@XZ 00488580 f i GRPFile3D.obj
 0001:000875d0       ??1?$XVECTOR@PAVSOUND@GRPFILE3DXML@@@@UAE@XZ 004885d0 f i GRPFile3D.obj
 0001:00087620       ??1?$XVECTOR@PAVTEXTBOX@GRPFILE3DXML@@@@UAE@XZ 00488620 f i GRPFile3D.obj
 0001:00087670       ??1GRPFILE3DOBJ@@UAE@XZ    00488670 f i GRPFile3D.obj
 0001:00087690       ??1GRPFILE3DXML@@UAE@XZ    00488690 f i GRPFile3D.obj
 0001:00087770       ??1XFILEXML2@@UAE@XZ       00488770 f i GRPFile3D.obj
 0001:00087790       ??4XPATH@@QAEXPB_W@Z       00488790 f i GRPFile3D.obj
 0001:000877b0       ??_G?$XMAP@IPAVLAYER@GRPFILE3DXML@@@@UAEPAXI@Z 004887b0 f i GRPFile3D.obj
 0001:000877b0       ??_E?$XMAP@IPAVLAYER@GRPFILE3DXML@@@@UAEPAXI@Z 004887b0 f i GRPFile3D.obj
 0001:000877e0       ??_G?$XMAP@IPAVMEDIA@GRPFILE3DXML@@@@UAEPAXI@Z 004887e0 f i GRPFile3D.obj
 0001:000877e0       ??_E?$XMAP@IPAVMEDIA@GRPFILE3DXML@@@@UAEPAXI@Z 004887e0 f i GRPFile3D.obj
 0001:00087810       ??_E?$XMAP@IPAVOVERLAY@GRPFILE3DXML@@@@UAEPAXI@Z 00488810 f i GRPFile3D.obj
 0001:00087810       ??_G?$XMAP@IPAVOVERLAY@GRPFILE3DXML@@@@UAEPAXI@Z 00488810 f i GRPFile3D.obj
 0001:00087840       ??_G?$XMAP@PAVXSTRING@@I@@UAEPAXI@Z 00488840 f i GRPFile3D.obj
 0001:00087840       ??_E?$XMAP@PAVXSTRING@@I@@UAEPAXI@Z 00488840 f i GRPFile3D.obj
 0001:00087870       ??_E?$XMAP@PAVXSTRING@@PAVCOMMAND@GRPFILE3DXML@@@@UAEPAXI@Z 00488870 f i GRPFile3D.obj
 0001:00087870       ??_G?$XMAP@PAVXSTRING@@PAVCOMMAND@GRPFILE3DXML@@@@UAEPAXI@Z 00488870 f i GRPFile3D.obj
 0001:000878a0       ??_G?$XMAP@PAVXSTRING@@PAVFONT@GRPFILE3DXML@@@@UAEPAXI@Z 004888a0 f i GRPFile3D.obj
 0001:000878a0       ??_E?$XMAP@PAVXSTRING@@PAVFONT@GRPFILE3DXML@@@@UAEPAXI@Z 004888a0 f i GRPFile3D.obj
 0001:000878d0       ??_E?$XMAP@PAVXSTRING@@PAVLANGUAGE@GRPFILE3DXML@@@@UAEPAXI@Z 004888d0 f i GRPFile3D.obj
 0001:000878d0       ??_G?$XMAP@PAVXSTRING@@PAVLANGUAGE@GRPFILE3DXML@@@@UAEPAXI@Z 004888d0 f i GRPFile3D.obj
 0001:00087900       ??_G?$XMAP@PAVXSTRING@@PAVLIGHT@GRPFILE3DXML@@@@UAEPAXI@Z 00488900 f i GRPFile3D.obj
 0001:00087900       ??_E?$XMAP@PAVXSTRING@@PAVLIGHT@GRPFILE3DXML@@@@UAEPAXI@Z 00488900 f i GRPFile3D.obj
 0001:00087930       ??_G?$XMAP@PAVXSTRING@@PAVTEXTBOX@GRPFILE3DXML@@@@UAEPAXI@Z 00488930 f i GRPFile3D.obj
 0001:00087930       ??_E?$XMAP@PAVXSTRING@@PAVTEXTBOX@GRPFILE3DXML@@@@UAEPAXI@Z 00488930 f i GRPFile3D.obj
 0001:00087960       ??_G?$XMAP@_KPAVGRPANIMATIONCURVE@@@@UAEPAXI@Z 00488960 f i GRPFile3D.obj
 0001:00087960       ??_E?$XMAP@_KPAVGRPANIMATIONCURVE@@@@UAEPAXI@Z 00488960 f i GRPFile3D.obj
 0001:00087990       ??_G?$XMAP@_KPAVGRPANIMATIONLAYER@@@@UAEPAXI@Z 00488990 f i GRPFile3D.obj
 0001:00087990       ??_E?$XMAP@_KPAVGRPANIMATIONLAYER@@@@UAEPAXI@Z 00488990 f i GRPFile3D.obj
 0001:000879c0       ??_G?$XMAP@_KPAVGRPANIMATIONNODE@@@@UAEPAXI@Z 004889c0 f i GRPFile3D.obj
 0001:000879c0       ??_E?$XMAP@_KPAVGRPANIMATIONNODE@@@@UAEPAXI@Z 004889c0 f i GRPFile3D.obj
 0001:000879f0       ??_G?$XMAP@_KPAVGRPANIMATIONSTACK@@@@UAEPAXI@Z 004889f0 f i GRPFile3D.obj
 0001:000879f0       ??_E?$XMAP@_KPAVGRPANIMATIONSTACK@@@@UAEPAXI@Z 004889f0 f i GRPFile3D.obj
 0001:00087a20       ??_G?$XMAP@_KPAVGRPCAMERA@@@@UAEPAXI@Z 00488a20 f i GRPFile3D.obj
 0001:00087a20       ??_E?$XMAP@_KPAVGRPCAMERA@@@@UAEPAXI@Z 00488a20 f i GRPFile3D.obj
 0001:00087a50       ??_E?$XMAP@_KPAVGRPDEFORMER@@@@UAEPAXI@Z 00488a50 f i GRPFile3D.obj
 0001:00087a50       ??_G?$XMAP@_KPAVGRPDEFORMER@@@@UAEPAXI@Z 00488a50 f i GRPFile3D.obj
 0001:00087a80       ??_G?$XMAP@_KPAVGRPELEMENT@@@@UAEPAXI@Z 00488a80 f i GRPFile3D.obj
 0001:00087a80       ??_E?$XMAP@_KPAVGRPELEMENT@@@@UAEPAXI@Z 00488a80 f i GRPFile3D.obj
 0001:00087ab0       ??_G?$XMAP@_KPAVGRPLIGHT@@@@UAEPAXI@Z 00488ab0 f i GRPFile3D.obj
 0001:00087ab0       ??_E?$XMAP@_KPAVGRPLIGHT@@@@UAEPAXI@Z 00488ab0 f i GRPFile3D.obj
 0001:00087ae0       ??_G?$XMAP@_KPAVGRPMATERIAL@@@@UAEPAXI@Z 00488ae0 f i GRPFile3D.obj
 0001:00087ae0       ??_E?$XMAP@_KPAVGRPMATERIAL@@@@UAEPAXI@Z 00488ae0 f i GRPFile3D.obj
 0001:00087b10       ??_G?$XMAP@_KPAVGRPNODE@@@@UAEPAXI@Z 00488b10 f i GRPFile3D.obj
 0001:00087b10       ??_E?$XMAP@_KPAVGRPNODE@@@@UAEPAXI@Z 00488b10 f i GRPFile3D.obj
 0001:00087b40       ??_G?$XMAP@_KPAVGRPSKIN@@@@UAEPAXI@Z 00488b40 f i GRPFile3D.obj
 0001:00087b40       ??_E?$XMAP@_KPAVGRPSKIN@@@@UAEPAXI@Z 00488b40 f i GRPFile3D.obj
 0001:00087b70       ??_G?$XMAP@_KPAVGRPSKINCLUSTER@@@@UAEPAXI@Z 00488b70 f i GRPFile3D.obj
 0001:00087b70       ??_E?$XMAP@_KPAVGRPSKINCLUSTER@@@@UAEPAXI@Z 00488b70 f i GRPFile3D.obj
 0001:00087ba0       ??_E?$XMAP@_KPAVGRPSKINLIMB@@@@UAEPAXI@Z 00488ba0 f i GRPFile3D.obj
 0001:00087ba0       ??_G?$XMAP@_KPAVGRPSKINLIMB@@@@UAEPAXI@Z 00488ba0 f i GRPFile3D.obj
 0001:00087bd0       ??_G?$XMAP@_KPAVGRPSKINPOSE@@@@UAEPAXI@Z 00488bd0 f i GRPFile3D.obj
 0001:00087bd0       ??_E?$XMAP@_KPAVGRPSKINPOSE@@@@UAEPAXI@Z 00488bd0 f i GRPFile3D.obj
 0001:00087c00       ??_G?$XMAP@_KPAVGRPSUBDEFORMER@@@@UAEPAXI@Z 00488c00 f i GRPFile3D.obj
 0001:00087c00       ??_E?$XMAP@_KPAVGRPSUBDEFORMER@@@@UAEPAXI@Z 00488c00 f i GRPFile3D.obj
 0001:00087c30       ??_E?$XMAP@_KPAVGRPSUBDEFORMERSHAPE@@@@UAEPAXI@Z 00488c30 f i GRPFile3D.obj
 0001:00087c30       ??_G?$XMAP@_KPAVGRPSUBDEFORMERSHAPE@@@@UAEPAXI@Z 00488c30 f i GRPFile3D.obj
 0001:00087c60       ??_G?$XMAP@_KPAVGRPTEXTURE@@@@UAEPAXI@Z 00488c60 f i GRPFile3D.obj
 0001:00087c60       ??_E?$XMAP@_KPAVGRPTEXTURE@@@@UAEPAXI@Z 00488c60 f i GRPFile3D.obj
 0001:00087c90       ??_G?$XMAP@_KPAVXSTRING@@@@UAEPAXI@Z 00488c90 f i GRPFile3D.obj
 0001:00087c90       ??_E?$XMAP@_KPAVXSTRING@@@@UAEPAXI@Z 00488c90 f i GRPFile3D.obj
 0001:00087cc0       ??_E?$XMAP@_K_K@@UAEPAXI@Z 00488cc0 f i GRPFile3D.obj
 0001:00087cc0       ??_G?$XMAP@_K_K@@UAEPAXI@Z 00488cc0 f i GRPFile3D.obj
 0001:00087cf0       ??_G?$XVECTOR@PAVCOMMAND@GRPFILE3DXML@@@@UAEPAXI@Z 00488cf0 f i GRPFile3D.obj
 0001:00087cf0       ??_E?$XVECTOR@PAVCOMMAND@GRPFILE3DXML@@@@UAEPAXI@Z 00488cf0 f i GRPFile3D.obj
 0001:00087d20       ??_E?$XVECTOR@PAVFBXData@@@@UAEPAXI@Z 00488d20 f i GRPFile3D.obj
 0001:00087d20       ??_G?$XVECTOR@PAVFBXData@@@@UAEPAXI@Z 00488d20 f i GRPFile3D.obj
 0001:00087d50       ??_E?$XVECTOR@PAVFBXNode@@@@UAEPAXI@Z 00488d50 f i GRPFile3D.obj
 0001:00087d50       ??_G?$XVECTOR@PAVFBXNode@@@@UAEPAXI@Z 00488d50 f i GRPFile3D.obj
 0001:00087d80       ??_E?$XVECTOR@PAVFONT@GRPFILE3DXML@@@@UAEPAXI@Z 00488d80 f i GRPFile3D.obj
 0001:00087d80       ??_G?$XVECTOR@PAVFONT@GRPFILE3DXML@@@@UAEPAXI@Z 00488d80 f i GRPFile3D.obj
 0001:00087db0       ??_E?$XVECTOR@PAVGRPCAMERA@@@@UAEPAXI@Z 00488db0 f i GRPFile3D.obj
 0001:00087db0       ??_G?$XVECTOR@PAVGRPCAMERA@@@@UAEPAXI@Z 00488db0 f i GRPFile3D.obj
 0001:00087de0       ??_G?$XVECTOR@PAVGRPLIGHT@@@@UAEPAXI@Z 00488de0 f i GRPFile3D.obj
 0001:00087de0       ??_E?$XVECTOR@PAVGRPLIGHT@@@@UAEPAXI@Z 00488de0 f i GRPFile3D.obj
 0001:00087e10       ??_E?$XVECTOR@PAVGRPMESH@@@@UAEPAXI@Z 00488e10 f i GRPFile3D.obj
 0001:00087e10       ??_G?$XVECTOR@PAVGRPMESH@@@@UAEPAXI@Z 00488e10 f i GRPFile3D.obj
 0001:00087e40       ??_E?$XVECTOR@PAVGRPNODE@@@@UAEPAXI@Z 00488e40 f i GRPFile3D.obj
 0001:00087e40       ??_G?$XVECTOR@PAVGRPNODE@@@@UAEPAXI@Z 00488e40 f i GRPFile3D.obj
 0001:00087e70       ??_G?$XVECTOR@PAVGRPSKIN@@@@UAEPAXI@Z 00488e70 f i GRPFile3D.obj
 0001:00087e70       ??_E?$XVECTOR@PAVGRPSKIN@@@@UAEPAXI@Z 00488e70 f i GRPFile3D.obj
 0001:00087ea0       ??_E?$XVECTOR@PAVGRPSKINCLUSTER@@@@UAEPAXI@Z 00488ea0 f i GRPFile3D.obj
 0001:00087ea0       ??_G?$XVECTOR@PAVGRPSKINCLUSTER@@@@UAEPAXI@Z 00488ea0 f i GRPFile3D.obj
 0001:00087ed0       ??_G?$XVECTOR@PAVGRPSKINLIMB@@@@UAEPAXI@Z 00488ed0 f i GRPFile3D.obj
 0001:00087ed0       ??_E?$XVECTOR@PAVGRPSKINLIMB@@@@UAEPAXI@Z 00488ed0 f i GRPFile3D.obj
 0001:00087f00       ??_G?$XVECTOR@PAVGRPSKINPOSE@@@@UAEPAXI@Z 00488f00 f i GRPFile3D.obj
 0001:00087f00       ??_E?$XVECTOR@PAVGRPSKINPOSE@@@@UAEPAXI@Z 00488f00 f i GRPFile3D.obj
 0001:00087f30       ??_G?$XVECTOR@PAVGRPSUBDEFORMER@@@@UAEPAXI@Z 00488f30 f i GRPFile3D.obj
 0001:00087f30       ??_E?$XVECTOR@PAVGRPSUBDEFORMER@@@@UAEPAXI@Z 00488f30 f i GRPFile3D.obj
 0001:00087f60       ??_E?$XVECTOR@PAVGRPSUBDEFORMERSHAPE@@@@UAEPAXI@Z 00488f60 f i GRPFile3D.obj
 0001:00087f60       ??_G?$XVECTOR@PAVGRPSUBDEFORMERSHAPE@@@@UAEPAXI@Z 00488f60 f i GRPFile3D.obj
 0001:00087f90       ??_G?$XVECTOR@PAVGRPTEXTURE@@@@UAEPAXI@Z 00488f90 f i GRPFile3D.obj
 0001:00087f90       ??_E?$XVECTOR@PAVGRPTEXTURE@@@@UAEPAXI@Z 00488f90 f i GRPFile3D.obj
 0001:00087fc0       ??_E?$XVECTOR@PAVLANGUAGE@GRPFILE3DXML@@@@UAEPAXI@Z 00488fc0 f i GRPFile3D.obj
 0001:00087fc0       ??_G?$XVECTOR@PAVLANGUAGE@GRPFILE3DXML@@@@UAEPAXI@Z 00488fc0 f i GRPFile3D.obj
 0001:00087ff0       ??_G?$XVECTOR@PAVLAYER@GRPFILE3DXML@@@@UAEPAXI@Z 00488ff0 f i GRPFile3D.obj
 0001:00087ff0       ??_E?$XVECTOR@PAVLAYER@GRPFILE3DXML@@@@UAEPAXI@Z 00488ff0 f i GRPFile3D.obj
 0001:00088020       ??_G?$XVECTOR@PAVLIGHT@GRPFILE3DXML@@@@UAEPAXI@Z 00489020 f i GRPFile3D.obj
 0001:00088020       ??_E?$XVECTOR@PAVLIGHT@GRPFILE3DXML@@@@UAEPAXI@Z 00489020 f i GRPFile3D.obj
 0001:00088050       ??_G?$XVECTOR@PAVMEDIA@GRPFILE3DXML@@@@UAEPAXI@Z 00489050 f i GRPFile3D.obj
 0001:00088050       ??_E?$XVECTOR@PAVMEDIA@GRPFILE3DXML@@@@UAEPAXI@Z 00489050 f i GRPFile3D.obj
 0001:00088080       ??_E?$XVECTOR@PAVOVERLAY@GRPFILE3DXML@@@@UAEPAXI@Z 00489080 f i GRPFile3D.obj
 0001:00088080       ??_G?$XVECTOR@PAVOVERLAY@GRPFILE3DXML@@@@UAEPAXI@Z 00489080 f i GRPFile3D.obj
 0001:000880b0       ??_G?$XVECTOR@PAVSOUND@GRPFILE3DXML@@@@UAEPAXI@Z 004890b0 f i GRPFile3D.obj
 0001:000880b0       ??_E?$XVECTOR@PAVSOUND@GRPFILE3DXML@@@@UAEPAXI@Z 004890b0 f i GRPFile3D.obj
 0001:000880e0       ??_E?$XVECTOR@PAVTEXTBOX@GRPFILE3DXML@@@@UAEPAXI@Z 004890e0 f i GRPFile3D.obj
 0001:000880e0       ??_G?$XVECTOR@PAVTEXTBOX@GRPFILE3DXML@@@@UAEPAXI@Z 004890e0 f i GRPFile3D.obj
 0001:00088110       ??_GGRPFILE3D@@UAEPAXI@Z   00489110 f i GRPFile3D.obj
 0001:00088110       ??_EGRPFILE3D@@UAEPAXI@Z   00489110 f i GRPFile3D.obj
 0001:00088140       ??_EGRPFILE3DFBX@@UAEPAXI@Z 00489140 f i GRPFile3D.obj
 0001:00088140       ??_GGRPFILE3DFBX@@UAEPAXI@Z 00489140 f i GRPFile3D.obj
 0001:00088180       ??_EGRPFILE3DOBJ@@UAEPAXI@Z 00489180 f i GRPFile3D.obj
 0001:00088180       ??_GGRPFILE3DOBJ@@UAEPAXI@Z 00489180 f i GRPFile3D.obj
 0001:000881b0       ??_EGRPFILE3DXML@@UAEPAXI@Z 004891b0 f i GRPFile3D.obj
 0001:000881b0       ??_GGRPFILE3DXML@@UAEPAXI@Z 004891b0 f i GRPFile3D.obj
 0001:000881f0       ??_EXFILEXML2@@UAEPAXI@Z   004891f0 f i GRPFile3D.obj
 0001:000881f0       ??_GXFILEXML2@@UAEPAXI@Z   004891f0 f i GRPFile3D.obj
 0001:00088220       ?Abort@GRPFILE3D@@UAEXXZ   00489220 f i GRPFile3D.obj
 0001:00088230       ?Clean@?$XVECTOR@PAVCOMMAND@GRPFILE3DXML@@@@AAEXXZ 00489230 f i GRPFile3D.obj
 0001:00088270       ?Clean@?$XVECTOR@PAVFBXData@@@@AAEXXZ 00489270 f i GRPFile3D.obj
 0001:000882b0       ?Clean@?$XVECTOR@PAVFBXNode@@@@AAEXXZ 004892b0 f i GRPFile3D.obj
 0001:000882f0       ?Clean@?$XVECTOR@PAVFONT@GRPFILE3DXML@@@@AAEXXZ 004892f0 f i GRPFile3D.obj
 0001:00088330       ?Clean@?$XVECTOR@PAVGRPCAMERA@@@@AAEXXZ 00489330 f i GRPFile3D.obj
 0001:00088370       ?Clean@?$XVECTOR@PAVGRPLIGHT@@@@AAEXXZ 00489370 f i GRPFile3D.obj
 0001:000883b0       ?Clean@?$XVECTOR@PAVGRPMESH@@@@AAEXXZ 004893b0 f i GRPFile3D.obj
 0001:000883f0       ?Clean@?$XVECTOR@PAVGRPNODE@@@@AAEXXZ 004893f0 f i GRPFile3D.obj
 0001:00088430       ?Clean@?$XVECTOR@PAVGRPSKIN@@@@AAEXXZ 00489430 f i GRPFile3D.obj
 0001:00088470       ?Clean@?$XVECTOR@PAVGRPSKINCLUSTER@@@@AAEXXZ 00489470 f i GRPFile3D.obj
 0001:000884b0       ?Clean@?$XVECTOR@PAVGRPSKINLIMB@@@@AAEXXZ 004894b0 f i GRPFile3D.obj
 0001:000884f0       ?Clean@?$XVECTOR@PAVGRPSKINPOSE@@@@AAEXXZ 004894f0 f i GRPFile3D.obj
 0001:00088530       ?Clean@?$XVECTOR@PAVGRPSUBDEFORMER@@@@AAEXXZ 00489530 f i GRPFile3D.obj
 0001:00088570       ?Clean@?$XVECTOR@PAVGRPSUBDEFORMERSHAPE@@@@AAEXXZ 00489570 f i GRPFile3D.obj
 0001:000885b0       ?Clean@?$XVECTOR@PAVGRPTEXTURE@@@@AAEXXZ 004895b0 f i GRPFile3D.obj
 0001:000885f0       ?Clean@?$XVECTOR@PAVLANGUAGE@GRPFILE3DXML@@@@AAEXXZ 004895f0 f i GRPFile3D.obj
 0001:00088630       ?Clean@?$XVECTOR@PAVLAYER@GRPFILE3DXML@@@@AAEXXZ 00489630 f i GRPFile3D.obj
 0001:00088670       ?Clean@?$XVECTOR@PAVLIGHT@GRPFILE3DXML@@@@AAEXXZ 00489670 f i GRPFile3D.obj
 0001:000886b0       ?Clean@?$XVECTOR@PAVMEDIA@GRPFILE3DXML@@@@AAEXXZ 004896b0 f i GRPFile3D.obj
 0001:000886f0       ?Clean@?$XVECTOR@PAVOVERLAY@GRPFILE3DXML@@@@AAEXXZ 004896f0 f i GRPFile3D.obj
 0001:00088730       ?Clean@?$XVECTOR@PAVSOUND@GRPFILE3DXML@@@@AAEXXZ 00489730 f i GRPFile3D.obj
 0001:00088770       ?Clean@?$XVECTOR@PAVTEXTBOX@GRPFILE3DXML@@@@AAEXXZ 00489770 f i GRPFile3D.obj
 0001:000887b0       ?Clean@GRPFILE3D@@AAEXXZ   004897b0 f i GRPFile3D.obj
 0001:00088810       ?Clean@GRPFILE3DFBX@@AAEXXZ 00489810 f i GRPFile3D.obj
 0001:00088ae0       ?DeleteAll@?$XMAP@_K_K@@QAE_NXZ 00489ae0 f i GRPFile3D.obj
 0001:00088b10       ?DeleteAll@?$XVECTOR@PAVCOMMAND@GRPFILE3DXML@@@@QAE_NXZ 00489b10 f i GRPFile3D.obj
 0001:00088b60       ?DeleteAll@?$XVECTOR@PAVFBXData@@@@QAE_NXZ 00489b60 f i GRPFile3D.obj
 0001:00088bb0       ?DeleteAll@?$XVECTOR@PAVFBXNode@@@@QAE_NXZ 00489bb0 f i GRPFile3D.obj
 0001:00088c00       ?DeleteAll@?$XVECTOR@PAVFONT@GRPFILE3DXML@@@@QAE_NXZ 00489c00 f i GRPFile3D.obj
 0001:00088c50       ?DeleteAll@?$XVECTOR@PAVGRPCAMERA@@@@QAE_NXZ 00489c50 f i GRPFile3D.obj
 0001:00088ca0       ?DeleteAll@?$XVECTOR@PAVGRPLIGHT@@@@QAE_NXZ 00489ca0 f i GRPFile3D.obj
 0001:00088cf0       ?DeleteAll@?$XVECTOR@PAVGRPMESH@@@@QAE_NXZ 00489cf0 f i GRPFile3D.obj
 0001:00088d40       ?DeleteAll@?$XVECTOR@PAVGRPNODE@@@@QAE_NXZ 00489d40 f i GRPFile3D.obj
 0001:00088d90       ?DeleteAll@?$XVECTOR@PAVGRPSKIN@@@@QAE_NXZ 00489d90 f i GRPFile3D.obj
 0001:00088de0       ?DeleteAll@?$XVECTOR@PAVGRPSKINCLUSTER@@@@QAE_NXZ 00489de0 f i GRPFile3D.obj
 0001:00088e30       ?DeleteAll@?$XVECTOR@PAVGRPSKINLIMB@@@@QAE_NXZ 00489e30 f i GRPFile3D.obj
 0001:00088e80       ?DeleteAll@?$XVECTOR@PAVGRPSKINPOSE@@@@QAE_NXZ 00489e80 f i GRPFile3D.obj
 0001:00088ed0       ?DeleteAll@?$XVECTOR@PAVGRPSUBDEFORMER@@@@QAE_NXZ 00489ed0 f i GRPFile3D.obj
 0001:00088f20       ?DeleteAll@?$XVECTOR@PAVGRPSUBDEFORMERSHAPE@@@@QAE_NXZ 00489f20 f i GRPFile3D.obj
 0001:00088f70       ?DeleteAll@?$XVECTOR@PAVGRPTEXTURE@@@@QAE_NXZ 00489f70 f i GRPFile3D.obj
 0001:00088fc0       ?DeleteAll@?$XVECTOR@PAVLANGUAGE@GRPFILE3DXML@@@@QAE_NXZ 00489fc0 f i GRPFile3D.obj
 0001:00089010       ?DeleteAll@?$XVECTOR@PAVLAYER@GRPFILE3DXML@@@@QAE_NXZ 0048a010 f i GRPFile3D.obj
 0001:00089060       ?DeleteAll@?$XVECTOR@PAVLIGHT@GRPFILE3DXML@@@@QAE_NXZ 0048a060 f i GRPFile3D.obj
 0001:000890b0       ?DeleteAll@?$XVECTOR@PAVMEDIA@GRPFILE3DXML@@@@QAE_NXZ 0048a0b0 f i GRPFile3D.obj
 0001:00089100       ?DeleteAll@?$XVECTOR@PAVOVERLAY@GRPFILE3DXML@@@@QAE_NXZ 0048a100 f i GRPFile3D.obj
 0001:00089150       ?DeleteAll@?$XVECTOR@PAVSOUND@GRPFILE3DXML@@@@QAE_NXZ 0048a150 f i GRPFile3D.obj
 0001:000891a0       ?DeleteAll@?$XVECTOR@PAVTEXTBOX@GRPFILE3DXML@@@@QAE_NXZ 0048a1a0 f i GRPFile3D.obj
 0001:000891f0       ?GetFilename@GRPFILE3D@@UAEPAVXSTRING@@XZ 0048a1f0 f i GRPFile3D.obj
 0001:00089210       ?Init@GRPFILE3D@@UAEXXZ    0048a210 f i GRPFile3D.obj
 0001:00089220       ?Save@GRPFILE3D@@UAE_NPA_W@Z 0048a220 f i GRPFile3D.obj
 0001:00089230       ?SetIsMulti@?$XMAP@IPAVLAYER@GRPFILE3DXML@@@@QAEX_N@Z 0048a230 f i GRPFile3D.obj
 0001:00089260       ?SetIsMulti@?$XMAP@IPAVMEDIA@GRPFILE3DXML@@@@QAEX_N@Z 0048a260 f i GRPFile3D.obj
 0001:00089290       ?SetIsMulti@?$XMAP@IPAVOVERLAY@GRPFILE3DXML@@@@QAEX_N@Z 0048a290 f i GRPFile3D.obj
 0001:000892c0       ?SetIsMulti@?$XMAP@PAVXSTRING@@I@@QAEX_N@Z 0048a2c0 f i GRPFile3D.obj
 0001:000892f0       ?SetIsMulti@?$XMAP@PAVXSTRING@@PAVCOMMAND@GRPFILE3DXML@@@@QAEX_N@Z 0048a2f0 f i GRPFile3D.obj
 0001:00089320       ?SetIsMulti@?$XMAP@PAVXSTRING@@PAVFONT@GRPFILE3DXML@@@@QAEX_N@Z 0048a320 f i GRPFile3D.obj
 0001:00089350       ?SetIsMulti@?$XMAP@PAVXSTRING@@PAVLANGUAGE@GRPFILE3DXML@@@@QAEX_N@Z 0048a350 f i GRPFile3D.obj
 0001:00089380       ?SetIsMulti@?$XMAP@PAVXSTRING@@PAVLIGHT@GRPFILE3DXML@@@@QAEX_N@Z 0048a380 f i GRPFile3D.obj
 0001:000893b0       ?SetIsMulti@?$XMAP@PAVXSTRING@@PAVTEXTBOX@GRPFILE3DXML@@@@QAEX_N@Z 0048a3b0 f i GRPFile3D.obj
 0001:000893e0       ?SetIsMulti@?$XMAP@_KPAVGRPANIMATIONCURVE@@@@QAEX_N@Z 0048a3e0 f i GRPFile3D.obj
 0001:00089410       ?SetIsMulti@?$XMAP@_KPAVGRPANIMATIONLAYER@@@@QAEX_N@Z 0048a410 f i GRPFile3D.obj
 0001:00089440       ?SetIsMulti@?$XMAP@_KPAVGRPANIMATIONNODE@@@@QAEX_N@Z 0048a440 f i GRPFile3D.obj
 0001:00089470       ?SetIsMulti@?$XMAP@_KPAVGRPANIMATIONSTACK@@@@QAEX_N@Z 0048a470 f i GRPFile3D.obj
 0001:000894a0       ?SetIsMulti@?$XMAP@_KPAVGRPCAMERA@@@@QAEX_N@Z 0048a4a0 f i GRPFile3D.obj
 0001:000894d0       ?SetIsMulti@?$XMAP@_KPAVGRPDEFORMER@@@@QAEX_N@Z 0048a4d0 f i GRPFile3D.obj
 0001:00089500       ?SetIsMulti@?$XMAP@_KPAVGRPELEMENT@@@@QAEX_N@Z 0048a500 f i GRPFile3D.obj
 0001:00089530       ?SetIsMulti@?$XMAP@_KPAVGRPLIGHT@@@@QAEX_N@Z 0048a530 f i GRPFile3D.obj
 0001:00089560       ?SetIsMulti@?$XMAP@_KPAVGRPMATERIAL@@@@QAEX_N@Z 0048a560 f i GRPFile3D.obj
 0001:00089590       ?SetIsMulti@?$XMAP@_KPAVGRPNODE@@@@QAEX_N@Z 0048a590 f i GRPFile3D.obj
 0001:000895c0       ?SetIsMulti@?$XMAP@_KPAVGRPSKIN@@@@QAEX_N@Z 0048a5c0 f i GRPFile3D.obj
 0001:000895f0       ?SetIsMulti@?$XMAP@_KPAVGRPSKINCLUSTER@@@@QAEX_N@Z 0048a5f0 f i GRPFile3D.obj
 0001:00089620       ?SetIsMulti@?$XMAP@_KPAVGRPSKINLIMB@@@@QAEX_N@Z 0048a620 f i GRPFile3D.obj
 0001:00089650       ?SetIsMulti@?$XMAP@_KPAVGRPSKINPOSE@@@@QAEX_N@Z 0048a650 f i GRPFile3D.obj
 0001:00089680       ?SetIsMulti@?$XMAP@_KPAVGRPSUBDEFORMER@@@@QAEX_N@Z 0048a680 f i GRPFile3D.obj
 0001:000896b0       ?SetIsMulti@?$XMAP@_KPAVGRPSUBDEFORMERSHAPE@@@@QAEX_N@Z 0048a6b0 f i GRPFile3D.obj
 0001:000896e0       ?SetIsMulti@?$XMAP@_KPAVGRPTEXTURE@@@@QAEX_N@Z 0048a6e0 f i GRPFile3D.obj
 0001:00089710       ?SetIsMulti@?$XMAP@_KPAVXSTRING@@@@QAEX_N@Z 0048a710 f i GRPFile3D.obj
 0001:00089740       ?SetIsMulti@?$XMAP@_K_K@@QAEX_N@Z 0048a740 f i GRPFile3D.obj
 0001:00089770       ?SetIsMulti@?$XVECTOR@PAVCOMMAND@GRPFILE3DXML@@@@QAEX_N@Z 0048a770 f i GRPFile3D.obj
 0001:00089790       ?SetIsMulti@?$XVECTOR@PAVFBXData@@@@QAEX_N@Z 0048a790 f i GRPFile3D.obj
 0001:000897b0       ?SetIsMulti@?$XVECTOR@PAVFONT@GRPFILE3DXML@@@@QAEX_N@Z 0048a7b0 f i GRPFile3D.obj
 0001:000897d0       ?SetIsMulti@?$XVECTOR@PAVGRPANIMATIONLAYER@@@@QAEX_N@Z 0048a7d0 f i GRPFile3D.obj
 0001:000897f0       ?SetIsMulti@?$XVECTOR@PAVGRPCAMERA@@@@QAEX_N@Z 0048a7f0 f i GRPFile3D.obj
 0001:00089810       ?SetIsMulti@?$XVECTOR@PAVGRPDEFORMER@@@@QAEX_N@Z 0048a810 f i GRPFile3D.obj
 0001:00089830       ?SetIsMulti@?$XVECTOR@PAVGRPELEMENT@@@@QAEX_N@Z 0048a830 f i GRPFile3D.obj
 0001:00089850       ?SetIsMulti@?$XVECTOR@PAVGRPLIGHT@@@@QAEX_N@Z 0048a850 f i GRPFile3D.obj
 0001:00089870       ?SetIsMulti@?$XVECTOR@PAVGRPNODE@@@@QAEX_N@Z 0048a870 f i GRPFile3D.obj
 0001:00089890       ?SetIsMulti@?$XVECTOR@PAVGRPSKIN@@@@QAEX_N@Z 0048a890 f i GRPFile3D.obj
 0001:000898b0       ?SetIsMulti@?$XVECTOR@PAVGRPSKINCLUSTER@@@@QAEX_N@Z 0048a8b0 f i GRPFile3D.obj
 0001:000898d0       ?SetIsMulti@?$XVECTOR@PAVGRPSKINLIMB@@@@QAEX_N@Z 0048a8d0 f i GRPFile3D.obj
 0001:000898f0       ?SetIsMulti@?$XVECTOR@PAVGRPSKINPOSE@@@@QAEX_N@Z 0048a8f0 f i GRPFile3D.obj
 0001:00089910       ?SetIsMulti@?$XVECTOR@PAVGRPSUBDEFORMER@@@@QAEX_N@Z 0048a910 f i GRPFile3D.obj
 0001:00089930       ?SetIsMulti@?$XVECTOR@PAVGRPSUBDEFORMERSHAPE@@@@QAEX_N@Z 0048a930 f i GRPFile3D.obj
 0001:00089950       ?SetIsMulti@?$XVECTOR@PAVGRPTEXTURE@@@@QAEX_N@Z 0048a950 f i GRPFile3D.obj
 0001:00089970       ?SetIsMulti@?$XVECTOR@PAVLANGUAGE@GRPFILE3DXML@@@@QAEX_N@Z 0048a970 f i GRPFile3D.obj
 0001:00089990       ?SetIsMulti@?$XVECTOR@PAVLAYER@GRPFILE3DXML@@@@QAEX_N@Z 0048a990 f i GRPFile3D.obj
 0001:000899b0       ?SetIsMulti@?$XVECTOR@PAVLIGHT@GRPFILE3DXML@@@@QAEX_N@Z 0048a9b0 f i GRPFile3D.obj
 0001:000899d0       ?SetIsMulti@?$XVECTOR@PAVMEDIA@GRPFILE3DXML@@@@QAEX_N@Z 0048a9d0 f i GRPFile3D.obj
 0001:000899f0       ?SetIsMulti@?$XVECTOR@PAVOVERLAY@GRPFILE3DXML@@@@QAEX_N@Z 0048a9f0 f i GRPFile3D.obj
 0001:00089a10       ?SetIsMulti@?$XVECTOR@PAVTEXTBOX@GRPFILE3DXML@@@@QAEX_N@Z 0048aa10 f i GRPFile3D.obj
 0001:00089a30       ?SetIsMulti@?$XVECTOR@_K@@QAEX_N@Z 0048aa30 f i GRPFile3D.obj
 0001:00089a50       ?SetObject@GRPFILE3DFBX@@MAEXPAVGRPOBJECT@@@Z 0048aa50 f i GRPFile3D.obj
 0001:00089a70       ?UpdateTask@GRPFILE3D@@UAEXXZ 0048aa70 f i GRPFile3D.obj
 0001:00089a80       ??0FBXData@@QAE@XZ         0048aa80 f   GRPFile3DFBX.obj
 0001:00089b30       ??1FBXData@@QAE@XZ         0048ab30 f   GRPFile3DFBX.obj
 0001:00089bb0       ?SetArrayValues@FBXData@@QAEXPAV?$XVECTOR@N@@@Z 0048abb0 f   GRPFile3DFBX.obj
 0001:00089bd0       ?SetArrayIndex@FBXData@@QAEXPAV?$XVECTOR@_J@@@Z 0048abd0 f   GRPFile3DFBX.obj
 0001:00089bf0       ?Delete@FBXData@@QAEXXZ    0048abf0 f   GRPFile3DFBX.obj
 0001:00089cb0       ??0FBXNode@@QAE@XZ         0048acb0 f   GRPFile3DFBX.obj
 0001:00089ce0       ??1FBXNode@@QAE@XZ         0048ace0 f   GRPFile3DFBX.obj
 0001:00089d20       ?Show@FBXNode@@QAEXI@Z     0048ad20 f   GRPFile3DFBX.obj
 0001:0008a0a0       ??BFBXNode@@QAEIXZ         0048b0a0 f   GRPFile3DFBX.obj
 0001:0008a0c0       ??BFBXNode@@QAEMXZ         0048b0c0 f   GRPFile3DFBX.obj
 0001:0008a0e0       ??BFBXNode@@QAE?AVGRPVECTOR@@XZ 0048b0e0 f   GRPFile3DFBX.obj
 0001:0008a170       ??BFBXNode@@QAE?AVGRPPOINT@@XZ 0048b170 f   GRPFile3DFBX.obj
 0001:0008a200       ??BFBXNode@@QAE?AVGRPMATRIX@@XZ 0048b200 f   GRPFile3DFBX.obj
 0001:0008a320       ??BFBXNode@@QAE?AVGRPCOLOR@@XZ 0048b320 f   GRPFile3DFBX.obj
 0001:0008a3f0       ??1GRPFILE3DFBX@@UAE@XZ    0048b3f0 f   GRPFile3DFBX.obj
 0001:0008a9d0       ?Load@GRPFILE3DFBX@@UAEPAVGRPOBJECT@@PA_W@Z 0048b9d0 f   GRPFile3DFBX.obj
 0001:0008b130       ?SetupIgnoredNodes@GRPFILE3DFBX@@IAEXXZ 0048c130 f   GRPFile3DFBX.obj
 0001:0008b4b0       ?IsIgnoredNode@GRPFILE3DFBX@@IAE_NAAVXSTRING@@@Z 0048c4b0 f   GRPFile3DFBX.obj
 0001:0008b580       ?LoadHeaderData@GRPFILE3DFBX@@IAE_NXZ 0048c580 f   GRPFile3DFBX.obj
 0001:0008b6e0       ?LoadNameData@GRPFILE3DFBX@@IAE_NXZ 0048c6e0 f   GRPFile3DFBX.obj
 0001:0008b7d0       ?LoadConnectionsAndProperties@GRPFILE3DFBX@@IAE_NXZ 0048c7d0 f   GRPFile3DFBX.obj
 0001:0008b990       ?IsType@GRPFILE3DFBX@@IAE?AW4GRPFILE3DFBX_CONNECTION_TYPE@@_K@Z 0048c990 f   GRPFile3DFBX.obj
 0001:0008b9f0       ?FindNode@GRPFILE3DFBX@@IAE_NPAVFBXNode@@PAVFBXNodeComparator@@PAPAV2@@Z 0048c9f0 f   GRPFile3DFBX.obj
 0001:0008ba90       ?FindNode@GRPFILE3DFBX@@IAE_NPA_WHPAPAVFBXNode@@_N@Z 0048ca90 f   GRPFile3DFBX.obj
 0001:0008bad0       ?FindNode@GRPFILE3DFBX@@IAE_NPA_WHPAVFBXNode@@PAPAV2@_N@Z 0048cad0 f   GRPFile3DFBX.obj
 0001:0008bbf0       ?FindChildNode@GRPFILE3DFBX@@IAE_NPA_WHPAVFBXNode@@PAPAV2@_N@Z 0048cbf0 f   GRPFile3DFBX.obj
 0001:0008bd20       ?ConsumeBlock@GRPFILE3DFBX@@MAEXXZ 0048cd20 f   GRPFile3DFBX.obj
 0001:0008bdc0       ?ReadNode@GRPFILE3DFBX@@IAE_NPAVFBXNode@@@Z 0048cdc0 f   GRPFile3DFBX.obj
 0001:0008d0c0       ?SkipArray@GRPFILE3DFBX@@IAEXXZ 0048e0c0 f   GRPFile3DFBX.obj
 0001:0008d180       ?ReadArrayDouble@GRPFILE3DFBX@@IAEPAV?$XVECTOR@N@@I@Z 0048e180 f   GRPFile3DFBX.obj
 0001:0008d360       ?ReadArrayIndex@GRPFILE3DFBX@@IAEPAV?$XVECTOR@_J@@I@Z 0048e360 f   GRPFile3DFBX.obj
 0001:0008d550       ?LoadGlobalSettings@GRPFILE3DFBX@@IAE_NXZ 0048e550 f   GRPFile3DFBX.obj
 0001:0008d870       ?LoadDictionary@GRPFILE3DFBX@@IAEPAVGRPOBJECT@@XZ 0048e870 f   GRPFile3DFBX.obj
 0001:00090860       ?LoadObjects@GRPFILE3DFBX@@IAE_NXZ 00491860 f   GRPFile3DFBX.obj
 0001:00091ec0       ?LoadModelNode@GRPFILE3DFBX@@IAE_N_KPAVFBXNode@@@Z 00492ec0 f   GRPFile3DFBX.obj
 0001:00092050       ?LoadModelNode@GRPFILE3DFBX@@IAE_N_KPAVFBXNode@@PAVGRPNODE@@@Z 00493050 f   GRPFile3DFBX.obj
 0001:00093590       ?LoadGeometryNode@GRPFILE3DFBX@@IAE_N_KPAVFBXNode@@@Z 00494590 f   GRPFile3DFBX.obj
 0001:00096100       ?LoadMorpherShapeNode@GRPFILE3DFBX@@IAE_N_KPAVFBXNode@@@Z 00497100 f   GRPFile3DFBX.obj
 0001:00096460       ?LoadMaterialNode@GRPFILE3DFBX@@IAE_N_KPAVFBXNode@@@Z 00497460 f   GRPFile3DFBX.obj
 0001:000969f0       ?LoadTextureNode@GRPFILE3DFBX@@IAE_N_KPAVFBXNode@@@Z 004979f0 f   GRPFile3DFBX.obj
 0001:00096e00       ?LoadNodeAttribute@GRPFILE3DFBX@@IAE_N_KPAVFBXNode@@@Z 00497e00 f   GRPFile3DFBX.obj
 0001:00096fc0       ?LoadNodeAttributeCamera@GRPFILE3DFBX@@IAE_N_KPAVFBXNode@@@Z 00497fc0 f   GRPFile3DFBX.obj
 0001:00097730       ?LoadNodeAttributeLight@GRPFILE3DFBX@@IAE_N_KPAVFBXNode@@@Z 00498730 f   GRPFile3DFBX.obj
 0001:00097d00       ?LoadAnimationStackNode@GRPFILE3DFBX@@IAE_N_KPAVFBXNode@@@Z 00498d00 f   GRPFile3DFBX.obj
 0001:00097f10       ?LoadAnimationLayerNode@GRPFILE3DFBX@@IAE_N_KPAVFBXNode@@@Z 00498f10 f   GRPFile3DFBX.obj
 0001:00098030       ?LoadAnimationNode@GRPFILE3DFBX@@IAE_N_KPAVFBXNode@@@Z 00499030 f   GRPFile3DFBX.obj
 0001:000985e0       ?LoadAnimationCurve@GRPFILE3DFBX@@IAE_N_KPAVFBXNode@@@Z 004995e0 f   GRPFile3DFBX.obj
 0001:00098a30       ?LoadDeformer@GRPFILE3DFBX@@IAE_N_KPAVFBXNode@@@Z 00499a30 f   GRPFile3DFBX.obj
 0001:00098b60       ?LoadSubdeformer@GRPFILE3DFBX@@IAE_N_KPAVFBXNode@@@Z 00499b60 f   GRPFile3DFBX.obj
 0001:00098c90       ?LoadNodeAttributeLimb@GRPFILE3DFBX@@IAE_N_KPAVFBXNode@@@Z 00499c90 f   GRPFile3DFBX.obj
 0001:00098de0       ?LoadSkinDeformer@GRPFILE3DFBX@@IAE_N_KPAVFBXNode@@@Z 00499de0 f   GRPFile3DFBX.obj
 0001:00098f30       ?LoadSkinPose@GRPFILE3DFBX@@IAE_N_KPAVFBXNode@@@Z 00499f30 f   GRPFile3DFBX.obj
 0001:000992a0       ?LoadSkinCluster@GRPFILE3DFBX@@IAE_N_KPAVFBXNode@@@Z 0049a2a0 f   GRPFile3DFBX.obj
 0001:00099680       ?DeleteTree@GRPFILE3DFBX@@IAEXPAVFBXNode@@@Z 0049a680 f   GRPFile3DFBX.obj
 0001:00099790       ?IsConnected@GRPFILE3DFBX@@IAE_N_K@Z 0049a790 f   GRPFile3DFBX.obj
 0001:000997c0       ?Setup@GRPFILE3DFBX@@IAE_NPAVGRPOBJECT@@@Z 0049a7c0 f   GRPFile3DFBX.obj
 0001:00099bd0       ?Abort@GRPFILE3DFBX@@MAEXXZ 0049abd0 f   GRPFile3DFBX.obj
 0001:00099dd0       ?GetPropertyTypeByName@GRPFILE3DFBX@@IAE?AW4GRPANIMATIONCURVEAXIS@@PAVXSTRING@@@Z 0049add0 f   GRPFile3DFBX.obj
 0001:0009a040       ?CreateFBXNode@GRPFILE3DFBX@@IAEPAVFBXNode@@XZ 0049b040 f   GRPFile3DFBX.obj
 0001:0009a170       ?CreateFBXData@GRPFILE3DFBX@@IAEPAVFBXData@@XZ 0049b170 f   GRPFile3DFBX.obj
 0001:0009a2e0       ?UpdateTask@GRPFILE3DFBX@@MAEXXZ 0049b2e0 f   GRPFile3DFBX.obj
 0001:0009a4e0       ?naive@@YANPA_W@Z          0049b4e0 f   GRPFile3DFBX.obj
 0001:0009a650       ?atof@@YANPA_W@Z           0049b650 f   GRPFile3DFBX.obj
 0001:0009a8e0       ?convert@@YA_JPA_W@Z       0049b8e0 f   GRPFile3DFBX.obj
 0001:0009a9a0       ??$__vcrt_va_start_verify_argument_type@QB_W@@YAXXZ 0049b9a0 f i GRPFile3DFBX.obj
 0001:0009a9b0       ??0?$XVECTOR@H@@QAE@XZ     0049b9b0 f i GRPFile3DFBX.obj
 0001:0009a9d0       ??0?$XVECTOR@N@@QAE@XZ     0049b9d0 f i GRPFile3DFBX.obj
 0001:0009a9f0       ??0?$XVECTOR@PAUGRPVERTEX@@@@QAE@XZ 0049b9f0 f i GRPFile3DFBX.obj
 0001:0009aa10       ??0?$XVECTOR@PAVGRPBEZIERSPLINE@@@@QAE@XZ 0049ba10 f i GRPFile3DFBX.obj
 0001:0009aa30       ??0FFILETXT@@QAE@XZ        0049ba30 f i GRPFile3DFBX.obj
 0001:0009aa50       ??0GRPANIMATIONCURVE@@QAE@XZ 0049ba50 f i GRPFile3DFBX.obj
 0001:0009ab80       ??0GRPDEFORMER@@QAE@XZ     0049bb80 f i GRPFile3DFBX.obj
 0001:0009ac30       ??0GRPFACE@@QAE@XZ         0049bc30 f i GRPFile3DFBX.obj
 0001:0009ac60       ??0GRPLIGHT@@QAE@XZ        0049bc60 f i GRPFile3DFBX.obj
 0001:0009adc0       ??0GRPSKIN@@QAE@XZ         0049bdc0 f i GRPFile3DFBX.obj
 0001:0009aeb0       ??0GRPSKINCLUSTER@@QAE@XZ  0049beb0 f i GRPFile3DFBX.obj
 0001:0009afb0       ??0GRPSKINLIMB@@QAE@XZ     0049bfb0 f i GRPFile3DFBX.obj
 0001:0009b090       ??0GRPSKINPOSE@@QAE@XZ     0049c090 f i GRPFile3DFBX.obj
 0001:0009b150       ??0GRPSUBDEFORMERSHAPE@@QAE@XZ 0049c150 f i GRPFile3DFBX.obj
 0001:0009b1b0       ??1FFILETXT@@UAE@XZ        0049c1b0 f i GRPFile3DFBX.obj
 0001:0009b1d0       ??1GRPDEFORMER@@UAE@XZ     0049c1d0 f i GRPFile3DFBX.obj
 0001:0009b250       ??1GRPSKINCLUSTER@@UAE@XZ  0049c250 f i GRPFile3DFBX.obj
 0001:0009b320       ??1GRPSKINLIMB@@UAE@XZ     0049c320 f i GRPFile3DFBX.obj
 0001:0009b380       ??1GRPSKINPOSE@@UAE@XZ     0049c380 f i GRPFile3DFBX.obj
 0001:0009b3a0       ??YXPATH@@QAEXAAV0@@Z      0049c3a0 f i GRPFile3DFBX.obj
 0001:0009b3c0       ??_DGRPDEFORMER@@QAEXXZ    0049c3c0 f i GRPFile3DFBX.obj
 0001:0009b3f0       ??_DGRPLIGHT@@QAEXXZ       0049c3f0 f i GRPFile3DFBX.obj
 0001:0009b420       ??_DGRPSKIN@@QAEXXZ        0049c420 f i GRPFile3DFBX.obj
 0001:0009b450       ??_DGRPSKINCLUSTER@@QAEXXZ 0049c450 f i GRPFile3DFBX.obj
 0001:0009b480       ??_DGRPSKINLIMB@@QAEXXZ    0049c480 f i GRPFile3DFBX.obj
 0001:0009b4b0       ??_DGRPSKINPOSE@@QAEXXZ    0049c4b0 f i GRPFile3DFBX.obj
 0001:0009b4e0       ??_GFBXData@@QAEPAXI@Z     0049c4e0 f i GRPFile3DFBX.obj
 0001:0009b520       ??_GFBXNode@@QAEPAXI@Z     0049c520 f i GRPFile3DFBX.obj
 0001:0009b550       ??_EFFILETXT@@UAEPAXI@Z    0049c550 f i GRPFile3DFBX.obj
 0001:0009b550       ??_GFFILETXT@@UAEPAXI@Z    0049c550 f i GRPFile3DFBX.obj
 0001:0009b580       ??_EGRPDEFORMER@@UAEPAXI@Z 0049c580 f i GRPFile3DFBX.obj
 0001:0009b580       ??_GGRPDEFORMER@@UAEPAXI@Z 0049c580 f i GRPFile3DFBX.obj
 0001:0009b5c0       ??_EGRPLIGHT@@UAEPAXI@Z    0049c5c0 f i GRPFile3DFBX.obj
 0001:0009b5c0       ??_GGRPLIGHT@@UAEPAXI@Z    0049c5c0 f i GRPFile3DFBX.obj
 0001:0009b610       ??_GGRPSKIN@@UAEPAXI@Z     0049c610 f i GRPFile3DFBX.obj
 0001:0009b610       ??_EGRPSKIN@@UAEPAXI@Z     0049c610 f i GRPFile3DFBX.obj
 0001:0009b660       ??_GGRPSKINCLUSTER@@UAEPAXI@Z 0049c660 f i GRPFile3DFBX.obj
 0001:0009b660       ??_EGRPSKINCLUSTER@@UAEPAXI@Z 0049c660 f i GRPFile3DFBX.obj
 0001:0009b6b0       ??_GGRPSKINLIMB@@UAEPAXI@Z 0049c6b0 f i GRPFile3DFBX.obj
 0001:0009b6b0       ??_EGRPSKINLIMB@@UAEPAXI@Z 0049c6b0 f i GRPFile3DFBX.obj
 0001:0009b700       ??_EGRPSKINPOSE@@UAEPAXI@Z 0049c700 f i GRPFile3DFBX.obj
 0001:0009b700       ??_GGRPSKINPOSE@@UAEPAXI@Z 0049c700 f i GRPFile3DFBX.obj
 0001:0009b740       ?Add@?$XMAP@IM@@QAE_NIM@Z  0049c740 f i GRPFile3DFBX.obj
 0001:0009b7a0       ?Add@?$XMAP@IPAVGRPTEXTURE@@@@QAE_NIPAVGRPTEXTURE@@@Z 0049c7a0 f i GRPFile3DFBX.obj
 0001:0009b800       ?Add@?$XMAP@_KPAVGRPANIMATIONCURVE@@@@QAE_N_KPAVGRPANIMATIONCURVE@@@Z 0049c800 f i GRPFile3DFBX.obj
 0001:0009b860       ?Add@?$XMAP@_KPAVGRPANIMATIONLAYER@@@@QAE_N_KPAVGRPANIMATIONLAYER@@@Z 0049c860 f i GRPFile3DFBX.obj
 0001:0009b8c0       ?Add@?$XMAP@_KPAVGRPANIMATIONNODE@@@@QAE_N_KPAVGRPANIMATIONNODE@@@Z 0049c8c0 f i GRPFile3DFBX.obj
 0001:0009b920       ?Add@?$XMAP@_KPAVGRPANIMATIONSTACK@@@@QAE_N_KPAVGRPANIMATIONSTACK@@@Z 0049c920 f i GRPFile3DFBX.obj
 0001:0009b980       ?Add@?$XMAP@_KPAVGRPCAMERA@@@@QAE_N_KPAVGRPCAMERA@@@Z 0049c980 f i GRPFile3DFBX.obj
 0001:0009b9e0       ?Add@?$XMAP@_KPAVGRPDEFORMER@@@@QAE_N_KPAVGRPDEFORMER@@@Z 0049c9e0 f i GRPFile3DFBX.obj
 0001:0009ba40       ?Add@?$XMAP@_KPAVGRPELEMENT@@@@QAE_N_KPAVGRPELEMENT@@@Z 0049ca40 f i GRPFile3DFBX.obj
 0001:0009baa0       ?Add@?$XMAP@_KPAVGRPLIGHT@@@@QAE_N_KPAVGRPLIGHT@@@Z 0049caa0 f i GRPFile3DFBX.obj
 0001:0009bb00       ?Add@?$XMAP@_KPAVGRPMATERIAL@@@@QAE_N_KPAVGRPMATERIAL@@@Z 0049cb00 f i GRPFile3DFBX.obj
 0001:0009bb60       ?Add@?$XMAP@_KPAVGRPNODE@@@@QAE_N_KPAVGRPNODE@@@Z 0049cb60 f i GRPFile3DFBX.obj
 0001:0009bbc0       ?Add@?$XMAP@_KPAVGRPSKIN@@@@QAE_N_KPAVGRPSKIN@@@Z 0049cbc0 f i GRPFile3DFBX.obj
 0001:0009bc20       ?Add@?$XMAP@_KPAVGRPSKINCLUSTER@@@@QAE_N_KPAVGRPSKINCLUSTER@@@Z 0049cc20 f i GRPFile3DFBX.obj
 0001:0009bc80       ?Add@?$XMAP@_KPAVGRPSKINLIMB@@@@QAE_N_KPAVGRPSKINLIMB@@@Z 0049cc80 f i GRPFile3DFBX.obj
 0001:0009bce0       ?Add@?$XMAP@_KPAVGRPSKINPOSE@@@@QAE_N_KPAVGRPSKINPOSE@@@Z 0049cce0 f i GRPFile3DFBX.obj
 0001:0009bd40       ?Add@?$XMAP@_KPAVGRPSUBDEFORMER@@@@QAE_N_KPAVGRPSUBDEFORMER@@@Z 0049cd40 f i GRPFile3DFBX.obj
 0001:0009bda0       ?Add@?$XMAP@_KPAVGRPSUBDEFORMERSHAPE@@@@QAE_N_KPAVGRPSUBDEFORMERSHAPE@@@Z 0049cda0 f i GRPFile3DFBX.obj
 0001:0009be00       ?Add@?$XMAP@_KPAVGRPTEXTURE@@@@QAE_N_KPAVGRPTEXTURE@@@Z 0049ce00 f i GRPFile3DFBX.obj
 0001:0009be60       ?Add@?$XMAP@_KPAVXSTRING@@@@QAE_N_KPAVXSTRING@@@Z 0049ce60 f i GRPFile3DFBX.obj
 0001:0009bec0       ?Add@?$XMAP@_K_K@@QAE_N_K0@Z 0049cec0 f i GRPFile3DFBX.obj
 0001:0009bf30       ?Add@?$XVECTOR@M@@QAE_NM@Z 0049cf30 f i GRPFile3DFBX.obj
 0001:0009bfc0       ?Add@?$XVECTOR@N@@QAE_NN@Z 0049cfc0 f i GRPFile3DFBX.obj
 0001:0009c050       ?Add@?$XVECTOR@PAUGRPVERTEX@@@@QAE_NPAUGRPVERTEX@@@Z 0049d050 f i GRPFile3DFBX.obj
 0001:0009c0e0       ?Add@?$XVECTOR@PAVFBXData@@@@QAE_NPAVFBXData@@@Z 0049d0e0 f i GRPFile3DFBX.obj
 0001:0009c170       ?Add@?$XVECTOR@PAVFBXNode@@@@QAE_NPAVFBXNode@@@Z 0049d170 f i GRPFile3DFBX.obj
 0001:0009c200       ?Add@?$XVECTOR@PAVGRPCAMERA@@@@QAE_NPAVGRPCAMERA@@@Z 0049d200 f i GRPFile3DFBX.obj
 0001:0009c290       ?Add@?$XVECTOR@PAVGRPFACE@@@@QAE_NPAVGRPFACE@@@Z 0049d290 f i GRPFile3DFBX.obj
 0001:0009c320       ?Add@?$XVECTOR@PAVGRPLIGHT@@@@QAE_NPAVGRPLIGHT@@@Z 0049d320 f i GRPFile3DFBX.obj
 0001:0009c3b0       ?Add@?$XVECTOR@PAVGRPMESH@@@@QAE_NPAVGRPMESH@@@Z 0049d3b0 f i GRPFile3DFBX.obj
 0001:0009c440       ?Add@?$XVECTOR@PAVGRPNODE@@@@QAE_NPAVGRPNODE@@@Z 0049d440 f i GRPFile3DFBX.obj
 0001:0009c4d0       ?Add@?$XVECTOR@PAVGRPSKIN@@@@QAE_NPAVGRPSKIN@@@Z 0049d4d0 f i GRPFile3DFBX.obj
 0001:0009c560       ?Add@?$XVECTOR@PAVGRPSKINCLUSTER@@@@QAE_NPAVGRPSKINCLUSTER@@@Z 0049d560 f i GRPFile3DFBX.obj
 0001:0009c5f0       ?Add@?$XVECTOR@PAVGRPSKINLIMB@@@@QAE_NPAVGRPSKINLIMB@@@Z 0049d5f0 f i GRPFile3DFBX.obj
 0001:0009c680       ?Add@?$XVECTOR@PAVGRPSKINPOSE@@@@QAE_NPAVGRPSKINPOSE@@@Z 0049d680 f i GRPFile3DFBX.obj
 0001:0009c710       ?Add@?$XVECTOR@PAVGRPSUBDEFORMER@@@@QAE_NPAVGRPSUBDEFORMER@@@Z 0049d710 f i GRPFile3DFBX.obj
 0001:0009c7a0       ?Add@?$XVECTOR@PAVGRPSUBDEFORMERSHAPE@@@@QAE_NPAVGRPSUBDEFORMERSHAPE@@@Z 0049d7a0 f i GRPFile3DFBX.obj
 0001:0009c830       ?Add@?$XVECTOR@PAVGRPTEXTURE@@@@QAE_NPAVGRPTEXTURE@@@Z 0049d830 f i GRPFile3DFBX.obj
 0001:0009c8c0       ?Add@?$XVECTOR@_J@@QAE_N_J@Z 0049d8c0 f i GRPFile3DFBX.obj
 0001:0009c970       ?Add@?$XVECTOR@_K@@QAE_N_K@Z 0049d970 f i GRPFile3DFBX.obj
 0001:0009ca20       ?Add@GRPDEFORMER@@QAEXPAVGRPSUBDEFORMER@@@Z 0049da20 f i GRPFile3DFBX.obj
 0001:0009ca60       ?Add@GRPOBJECT@@QAE_NPAVGRPCAMERA@@@Z 0049da60 f i GRPFile3DFBX.obj
 0001:0009ca80       ?Add@GRPOBJECT@@QAE_NPAVGRPLIGHT@@@Z 0049da80 f i GRPFile3DFBX.obj
 0001:0009caa0       ?Add@GRPOBJECT@@QAE_NPAVGRPNODE@@@Z 0049daa0 f i GRPFile3DFBX.obj
 0001:0009cac0       ?AddCluster@GRPSKIN@@QAE_NPAVGRPSKINCLUSTER@@@Z 0049dac0 f i GRPFile3DFBX.obj
 0001:0009cae0       ?AddLayer@GRPMATERIAL@@QAEXIPAVGRPTEXTURE@@@Z 0049dae0 f i GRPFile3DFBX.obj
 0001:0009cb00       ?AddLimb@GRPSKINCLUSTER@@QAE_NPAVGRPSKINLIMB@@@Z 0049db00 f i GRPFile3DFBX.obj
 0001:0009cb20       ?AddPose@GRPSKIN@@QAE_NPAVGRPSKINPOSE@@@Z 0049db20 f i GRPFile3DFBX.obj
 0001:0009cb40       ?Clean@GRPANIMATIONCURVE@@AAEXXZ 0049db40 f i GRPFile3DFBX.obj
 0001:0009cc10       ?Clean@GRPDEFORMER@@AAEXXZ 0049dc10 f i GRPFile3DFBX.obj
 0001:0009cc30       ?Clean@GRPFACE@@AAEXXZ     0049dc30 f i GRPFile3DFBX.obj
 0001:0009cdf0       ?Clean@GRPLIGHT@@EAEXXZ    0049ddf0 f i GRPFile3DFBX.obj
 0001:0009d0b0       ?Clean@GRPNODE@@EAEXXZ     0049e0b0 f i GRPFile3DFBX.obj
 0001:0009d420       ?Delete@?$XMAP@_KPAVGRPANIMATIONCURVE@@@@QAE_N_K@Z 0049e420 f i GRPFile3DFBX.obj
 0001:0009d490       ?Delete@?$XMAP@_KPAVGRPANIMATIONNODE@@@@QAE_N_K@Z 0049e490 f i GRPFile3DFBX.obj
 0001:0009d500       ?Delete@?$XMAP@_KPAVGRPDEFORMER@@@@QAE_N_K@Z 0049e500 f i GRPFile3DFBX.obj
 0001:0009d570       ?Delete@?$XMAP@_KPAVGRPSUBDEFORMER@@@@QAE_N_K@Z 0049e570 f i GRPFile3DFBX.obj
 0001:0009d5e0       ?Delete@?$XMAP@_KPAVXSTRING@@@@QAE_N_K@Z 0049e5e0 f i GRPFile3DFBX.obj
 0001:0009d650       ?Delete@?$XVECTOR@PAVGRPANIMATIONCURVE@@@@QAE_NPAVGRPANIMATIONCURVE@@@Z 0049e650 f i GRPFile3DFBX.obj
 0001:0009d6c0       ?Delete@?$XVECTOR@PAVGRPDEFORMER@@@@QAE_NPAVGRPDEFORMER@@@Z 0049e6c0 f i GRPFile3DFBX.obj
 0001:0009d730       ?Delete@?$XVECTOR@PAVGRPSUBDEFORMER@@@@QAE_NPAVGRPSUBDEFORMER@@@Z 0049e730 f i GRPFile3DFBX.obj
 0001:0009d7a0       ?Delete@?$XVECTOR@_K@@QAE_N_K@Z 0049e7a0 f i GRPFile3DFBX.obj
 0001:0009d830       ?Delete@FBXNode@@QAEXXZ    0049e830 f i GRPFile3DFBX.obj
 0001:0009d880       ?DeleteAll@?$XMAP@_KPAVGRPANIMATIONCURVE@@@@QAE_NXZ 0049e880 f i GRPFile3DFBX.obj
 0001:0009d8b0       ?DeleteAll@?$XMAP@_KPAVGRPANIMATIONNODE@@@@QAE_NXZ 0049e8b0 f i GRPFile3DFBX.obj
 0001:0009d8e0       ?DeleteAll@?$XMAP@_KPAVGRPANIMATIONSTACK@@@@QAE_NXZ 0049e8e0 f i GRPFile3DFBX.obj
 0001:0009d910       ?DeleteAll@?$XMAP@_KPAVGRPCAMERA@@@@QAE_NXZ 0049e910 f i GRPFile3DFBX.obj
 0001:0009d940       ?DeleteAll@?$XMAP@_KPAVGRPDEFORMER@@@@QAE_NXZ 0049e940 f i GRPFile3DFBX.obj
 0001:0009d970       ?DeleteAll@?$XMAP@_KPAVGRPELEMENT@@@@QAE_NXZ 0049e970 f i GRPFile3DFBX.obj
 0001:0009d9a0       ?DeleteAll@?$XMAP@_KPAVGRPLIGHT@@@@QAE_NXZ 0049e9a0 f i GRPFile3DFBX.obj
 0001:0009d9d0       ?DeleteAll@?$XMAP@_KPAVGRPMATERIAL@@@@QAE_NXZ 0049e9d0 f i GRPFile3DFBX.obj
 0001:0009da00       ?DeleteAll@?$XMAP@_KPAVGRPNODE@@@@QAE_NXZ 0049ea00 f i GRPFile3DFBX.obj
 0001:0009da30       ?DeleteAll@?$XMAP@_KPAVGRPSKIN@@@@QAE_NXZ 0049ea30 f i GRPFile3DFBX.obj
 0001:0009da60       ?DeleteAll@?$XMAP@_KPAVGRPSKINCLUSTER@@@@QAE_NXZ 0049ea60 f i GRPFile3DFBX.obj
 0001:0009da90       ?DeleteAll@?$XMAP@_KPAVGRPSKINLIMB@@@@QAE_NXZ 0049ea90 f i GRPFile3DFBX.obj
 0001:0009dac0       ?DeleteAll@?$XMAP@_KPAVGRPSKINPOSE@@@@QAE_NXZ 0049eac0 f i GRPFile3DFBX.obj
 0001:0009daf0       ?DeleteAll@?$XMAP@_KPAVGRPSUBDEFORMER@@@@QAE_NXZ 0049eaf0 f i GRPFile3DFBX.obj
 0001:0009db20       ?DeleteAll@?$XMAP@_KPAVGRPSUBDEFORMERSHAPE@@@@QAE_NXZ 0049eb20 f i GRPFile3DFBX.obj
 0001:0009db50       ?DeleteAll@?$XMAP@_KPAVGRPTEXTURE@@@@QAE_NXZ 0049eb50 f i GRPFile3DFBX.obj
 0001:0009db80       ?DeleteAll@?$XMAP@_KPAVXSTRING@@@@QAE_NXZ 0049eb80 f i GRPFile3DFBX.obj
 0001:0009dbb0       ?DeleteAll@?$XVECTOR@W4GRPVERTEX_CHANNEL@@@@QAE_NXZ 0049ebb0 f i GRPFile3DFBX.obj
 0001:0009dc00       ?DeleteContents@?$XVECTOR@PAVFBXData@@@@QAE_NXZ 0049ec00 f i GRPFile3DFBX.obj
 0001:0009dca0       ?DeleteContents@?$XVECTOR@PAVFBXNode@@@@QAE_NXZ 0049eca0 f i GRPFile3DFBX.obj
 0001:0009dd40       ?DeleteContents@?$XVECTOR@PAVGRPCAMERA@@@@QAE_NXZ 0049ed40 f i GRPFile3DFBX.obj
 0001:0009de00       ?DeleteContents@?$XVECTOR@PAVGRPLIGHT@@@@QAE_NXZ 0049ee00 f i GRPFile3DFBX.obj
 0001:0009dec0       ?DeleteContents@?$XVECTOR@PAVGRPNODE@@@@QAE_NXZ 0049eec0 f i GRPFile3DFBX.obj
 0001:0009df80       ?DeleteContents@?$XVECTOR@PAVGRPSKINLIMB@@@@QAE_NXZ 0049ef80 f i GRPFile3DFBX.obj
 0001:0009e040       ?DeleteContents@?$XVECTOR@PAVGRPSUBDEFORMER@@@@QAE_NXZ 0049f040 f i GRPFile3DFBX.obj
 0001:0009e100       ?DeleteElementContents@?$XMAP@_KPAVGRPANIMATIONCURVE@@@@QAE_NXZ 0049f100 f i GRPFile3DFBX.obj
 0001:0009e120       ?DeleteElementContents@?$XMAP@_KPAVGRPANIMATIONLAYER@@@@QAE_NXZ 0049f120 f i GRPFile3DFBX.obj
 0001:0009e140       ?DeleteElementContents@?$XMAP@_KPAVGRPANIMATIONNODE@@@@QAE_NXZ 0049f140 f i GRPFile3DFBX.obj
 0001:0009e160       ?DeleteElementContents@?$XMAP@_KPAVGRPANIMATIONSTACK@@@@QAE_NXZ 0049f160 f i GRPFile3DFBX.obj
 0001:0009e180       ?DeleteElementContents@?$XMAP@_KPAVGRPCAMERA@@@@QAE_NXZ 0049f180 f i GRPFile3DFBX.obj
 0001:0009e1a0       ?DeleteElementContents@?$XMAP@_KPAVGRPELEMENT@@@@QAE_NXZ 0049f1a0 f i GRPFile3DFBX.obj
 0001:0009e1c0       ?DeleteElementContents@?$XMAP@_KPAVGRPLIGHT@@@@QAE_NXZ 0049f1c0 f i GRPFile3DFBX.obj
 0001:0009e1e0       ?DeleteElementContents@?$XMAP@_KPAVGRPNODE@@@@QAE_NXZ 0049f1e0 f i GRPFile3DFBX.obj
 0001:0009e200       ?DeleteElementContents@?$XMAP@_KPAVGRPSKINLIMB@@@@QAE_NXZ 0049f200 f i GRPFile3DFBX.obj
 0001:0009e220       ?DeleteElementContents@?$XMAP@_KPAVGRPSUBDEFORMER@@@@QAE_NXZ 0049f220 f i GRPFile3DFBX.obj
 0001:0009e240       ?Exist@XFILE@@QAE_NAAVXPATH@@@Z 0049f240 f i GRPFile3DFBX.obj
 0001:0009e270       ?FastGet@?$XVECTOR@PAUGRPVERTEX@@@@QAEPAUGRPVERTEX@@H@Z 0049f270 f i GRPFile3DFBX.obj
 0001:0009e290       ?FastGet@?$XVECTOR@PAVFBXNode@@@@QAEPAVFBXNode@@H@Z 0049f290 f i GRPFile3DFBX.obj
 0001:0009e2b0       ?FastGet@?$XVECTOR@PAVGRPCAMERA@@@@QAEPAVGRPCAMERA@@H@Z 0049f2b0 f i GRPFile3DFBX.obj
 0001:0009e2d0       ?FastGet@?$XVECTOR@PAVGRPLIGHT@@@@QAEPAVGRPLIGHT@@H@Z 0049f2d0 f i GRPFile3DFBX.obj
 0001:0009e2f0       ?FastGet@?$XVECTOR@PAVGRPNODE@@@@QAEPAVGRPNODE@@H@Z 0049f2f0 f i GRPFile3DFBX.obj
 0001:0009e310       ?FastGet@?$XVECTOR@PAVGRPSKIN@@@@QAEPAVGRPSKIN@@H@Z 0049f310 f i GRPFile3DFBX.obj
 0001:0009e330       ?FastGet@?$XVECTOR@PAVGRPSKINCLUSTER@@@@QAEPAVGRPSKINCLUSTER@@H@Z 0049f330 f i GRPFile3DFBX.obj
 0001:0009e350       ?FastGet@?$XVECTOR@PAVGRPSKINLIMB@@@@QAEPAVGRPSKINLIMB@@H@Z 0049f350 f i GRPFile3DFBX.obj
 0001:0009e370       ?FastGet@?$XVECTOR@PAVGRPSKINPOSE@@@@QAEPAVGRPSKINPOSE@@H@Z 0049f370 f i GRPFile3DFBX.obj
 0001:0009e390       ?FastGet@?$XVECTOR@PAVGRPSUBDEFORMER@@@@QAEPAVGRPSUBDEFORMER@@H@Z 0049f390 f i GRPFile3DFBX.obj
 0001:0009e3b0       ?FastGet@?$XVECTOR@PAVGRPSUBDEFORMERSHAPE@@@@QAEPAVGRPSUBDEFORMERSHAPE@@H@Z 0049f3b0 f i GRPFile3DFBX.obj
 0001:0009e3d0       ?FastGet@?$XVECTOR@PAVXSTRING@@@@QAEPAVXSTRING@@H@Z 0049f3d0 f i GRPFile3DFBX.obj
 0001:0009e3f0       ?Fast_ConvertToDWord@XSTRING@@QAEIH@Z 0049f3f0 f i GRPFile3DFBX.obj
 0001:0009e430       ?Fast_ConvertToFloat@XSTRING@@QAEMH@Z 0049f430 f i GRPFile3DFBX.obj
 0001:0009e470       ?Fast_ConvertToInt@XSTRING@@QAEHH@Z 0049f470 f i GRPFile3DFBX.obj
 0001:0009e4b0       ?Fast_ConvertToQWord@XSTRING@@QAE_KH@Z 0049f4b0 f i GRPFile3DFBX.obj
 0001:0009e4f0       ?Fast_ConvertToSQWord@XSTRING@@QAE_JH@Z 0049f4f0 f i GRPFile3DFBX.obj
 0001:0009e530       ?Find@?$XMAP@_KPAVGRPANIMATIONLAYER@@@@QAEH_K@Z 0049f530 f i GRPFile3DFBX.obj
 0001:0009e550       ?Find@?$XMAP@_KPAVGRPANIMATIONNODE@@@@QAEH_K@Z 0049f550 f i GRPFile3DFBX.obj
 0001:0009e570       ?Find@?$XMAP@_KPAVGRPANIMATIONSTACK@@@@QAEH_K@Z 0049f570 f i GRPFile3DFBX.obj
 0001:0009e590       ?Find@?$XMAP@_KPAVGRPCAMERA@@@@QAEH_K@Z 0049f590 f i GRPFile3DFBX.obj
 0001:0009e5b0       ?Find@?$XMAP@_KPAVGRPDEFORMER@@@@QAEH_K@Z 0049f5b0 f i GRPFile3DFBX.obj
 0001:0009e5d0       ?Find@?$XMAP@_KPAVGRPELEMENT@@@@QAEH_K@Z 0049f5d0 f i GRPFile3DFBX.obj
 0001:0009e5f0       ?Find@?$XMAP@_KPAVGRPLIGHT@@@@QAEH_K@Z 0049f5f0 f i GRPFile3DFBX.obj
 0001:0009e610       ?Find@?$XMAP@_KPAVGRPMATERIAL@@@@QAEH_K@Z 0049f610 f i GRPFile3DFBX.obj
 0001:0009e630       ?Find@?$XMAP@_KPAVGRPNODE@@@@QAEH_K@Z 0049f630 f i GRPFile3DFBX.obj
 0001:0009e650       ?Find@?$XMAP@_KPAVGRPSKIN@@@@QAEH_K@Z 0049f650 f i GRPFile3DFBX.obj
 0001:0009e670       ?Find@?$XMAP@_KPAVGRPSKINCLUSTER@@@@QAEH_K@Z 0049f670 f i GRPFile3DFBX.obj
 0001:0009e690       ?Find@?$XMAP@_KPAVGRPSKINLIMB@@@@QAEH_K@Z 0049f690 f i GRPFile3DFBX.obj
 0001:0009e6b0       ?Find@?$XMAP@_KPAVGRPSUBDEFORMER@@@@QAEH_K@Z 0049f6b0 f i GRPFile3DFBX.obj
 0001:0009e6d0       ?Find@?$XMAP@_KPAVGRPSUBDEFORMERSHAPE@@@@QAEH_K@Z 0049f6d0 f i GRPFile3DFBX.obj
 0001:0009e6f0       ?Find@?$XMAP@_KPAVGRPTEXTURE@@@@QAEH_K@Z 0049f6f0 f i GRPFile3DFBX.obj
 0001:0009e710       ?Find@?$XMAP@_KPAVXSTRING@@@@QAEH_K@Z 0049f710 f i GRPFile3DFBX.obj
 0001:0009e730       ?Find@?$XMAP@_K_K@@QAEH_K@Z 0049f730 f i GRPFile3DFBX.obj
 0001:0009e750       ?Find@?$XVECTOR@PAVGRPCAMERA@@@@QAEHPAVGRPCAMERA@@@Z 0049f750 f i GRPFile3DFBX.obj
 0001:0009e7b0       ?Find@?$XVECTOR@PAVGRPELEMENT@@@@QAEHPAVGRPELEMENT@@@Z 0049f7b0 f i GRPFile3DFBX.obj
 0001:0009e810       ?Find@?$XVECTOR@PAVGRPLIGHT@@@@QAEHPAVGRPLIGHT@@@Z 0049f810 f i GRPFile3DFBX.obj
 0001:0009e870       ?Find@?$XVECTOR@PAVGRPNODE@@@@QAEHPAVGRPNODE@@@Z 0049f870 f i GRPFile3DFBX.obj
 0001:0009e8d0       ?Find@?$XVECTOR@_K@@QAEH_K@Z 0049f8d0 f i GRPFile3DFBX.obj
 0001:0009e940       ?Get@?$XMAP@_KPAVGRPANIMATIONCURVE@@@@QAEPAVGRPANIMATIONCURVE@@_K@Z 0049f940 f i GRPFile3DFBX.obj
 0001:0009e990       ?Get@?$XMAP@_KPAVGRPANIMATIONLAYER@@@@QAEPAVGRPANIMATIONLAYER@@_K@Z 0049f990 f i GRPFile3DFBX.obj
 0001:0009e9e0       ?Get@?$XMAP@_KPAVGRPANIMATIONNODE@@@@QAEPAVGRPANIMATIONNODE@@_K@Z 0049f9e0 f i GRPFile3DFBX.obj
 0001:0009ea30       ?Get@?$XMAP@_KPAVGRPANIMATIONSTACK@@@@QAEPAVGRPANIMATIONSTACK@@_K@Z 0049fa30 f i GRPFile3DFBX.obj
 0001:0009ea80       ?Get@?$XMAP@_KPAVGRPCAMERA@@@@QAEPAVGRPCAMERA@@_K@Z 0049fa80 f i GRPFile3DFBX.obj
 0001:0009ead0       ?Get@?$XMAP@_KPAVGRPDEFORMER@@@@QAEPAVGRPDEFORMER@@_K@Z 0049fad0 f i GRPFile3DFBX.obj
 0001:0009eb20       ?Get@?$XMAP@_KPAVGRPELEMENT@@@@QAEPAVGRPELEMENT@@_K@Z 0049fb20 f i GRPFile3DFBX.obj
 0001:0009eb70       ?Get@?$XMAP@_KPAVGRPLIGHT@@@@QAEPAVGRPLIGHT@@_K@Z 0049fb70 f i GRPFile3DFBX.obj
 0001:0009ebc0       ?Get@?$XMAP@_KPAVGRPMATERIAL@@@@QAEPAVGRPMATERIAL@@_K@Z 0049fbc0 f i GRPFile3DFBX.obj
 0001:0009ec10       ?Get@?$XMAP@_KPAVGRPNODE@@@@QAEPAVGRPNODE@@_K@Z 0049fc10 f i GRPFile3DFBX.obj
 0001:0009ec60       ?Get@?$XMAP@_KPAVGRPSKIN@@@@QAEPAVGRPSKIN@@_K@Z 0049fc60 f i GRPFile3DFBX.obj
 0001:0009ecb0       ?Get@?$XMAP@_KPAVGRPSKINCLUSTER@@@@QAEPAVGRPSKINCLUSTER@@_K@Z 0049fcb0 f i GRPFile3DFBX.obj
 0001:0009ed00       ?Get@?$XMAP@_KPAVGRPSKINLIMB@@@@QAEPAVGRPSKINLIMB@@_K@Z 0049fd00 f i GRPFile3DFBX.obj
 0001:0009ed50       ?Get@?$XMAP@_KPAVGRPSUBDEFORMER@@@@QAEPAVGRPSUBDEFORMER@@_K@Z 0049fd50 f i GRPFile3DFBX.obj
 0001:0009eda0       ?Get@?$XMAP@_KPAVGRPSUBDEFORMERSHAPE@@@@QAEPAVGRPSUBDEFORMERSHAPE@@_K@Z 0049fda0 f i GRPFile3DFBX.obj
 0001:0009edf0       ?Get@?$XMAP@_KPAVGRPTEXTURE@@@@QAEPAVGRPTEXTURE@@_K@Z 0049fdf0 f i GRPFile3DFBX.obj
 0001:0009ee40       ?Get@?$XMAP@_KPAVXSTRING@@@@QAEPAVXSTRING@@_K@Z 0049fe40 f i GRPFile3DFBX.obj
 0001:0009ee90       ?Get@?$XMAP@_K_K@@QAE_K_K@Z 0049fe90 f i GRPFile3DFBX.obj
 0001:0009eee0       ?Get@?$XVECTOR@PAVFBXNode@@@@QAEPAVFBXNode@@H@Z 0049fee0 f i GRPFile3DFBX.obj
 0001:0009ef20       ?Get@?$XVECTOR@PAVGRPDEFORMER@@@@QAEPAVGRPDEFORMER@@H@Z 0049ff20 f i GRPFile3DFBX.obj
 0001:0009ef60       ?Get@?$XVECTOR@PAVGRPNODE@@@@QAEPAVGRPNODE@@H@Z 0049ff60 f i GRPFile3DFBX.obj
 0001:0009efa0       ?GetCameras@GRPOBJECT@@QAEPAV?$XVECTOR@PAVGRPCAMERA@@@@XZ 0049ffa0 f i GRPFile3DFBX.obj
 0001:0009efc0       ?GetDecayType@GRPLIGHT@@QAE?AW4GRPLIGHTDECAYTYPE@@XZ 0049ffc0 f i GRPFile3DFBX.obj
 0001:0009efe0       ?GetElement@?$XMAP@_KPAVGRPANIMATIONCURVE@@@@QAEPAVGRPANIMATIONCURVE@@H@Z 0049ffe0 f i GRPFile3DFBX.obj
 0001:0009f000       ?GetElement@?$XMAP@_KPAVGRPANIMATIONSTACK@@@@QAEPAVGRPANIMATIONSTACK@@H@Z 004a0000 f i GRPFile3DFBX.obj
 0001:0009f020       ?GetElement@?$XMAP@_KPAVGRPNODE@@@@QAEPAVGRPNODE@@H@Z 004a0020 f i GRPFile3DFBX.obj
 0001:0009f040       ?GetElement@?$XMAP@_KPAVGRPSUBDEFORMER@@@@QAEPAVGRPSUBDEFORMER@@H@Z 004a0040 f i GRPFile3DFBX.obj
 0001:0009f060       ?GetElement@?$XMAP@_KPAVXSTRING@@@@QAEPAVXSTRING@@H@Z 004a0060 f i GRPFile3DFBX.obj
 0001:0009f080       ?GetElement@?$XMAP@_K_K@@QAE_KH@Z 004a0080 f i GRPFile3DFBX.obj
 0001:0009f0a0       ?GetGeometricPosition@GRPNODE@@QAEPAVGRPVECTOR@@XZ 004a00a0 f i GRPFile3DFBX.obj
 0001:0009f0c0       ?GetGeometricRotation@GRPNODE@@QAEPAVGRPVECTOR@@XZ 004a00c0 f i GRPFile3DFBX.obj
 0001:0009f0e0       ?GetGeometricScale@GRPNODE@@QAEPAVGRPVECTOR@@XZ 004a00e0 f i GRPFile3DFBX.obj
 0001:0009f100       ?GetKey@?$XMAP@_K_K@@QAE_KH@Z 004a0100 f i GRPFile3DFBX.obj
 0001:0009f120       ?GetLights@GRPOBJECT@@QAEPAV?$XVECTOR@PAVGRPLIGHT@@@@XZ 004a0120 f i GRPFile3DFBX.obj
 0001:0009f140       ?GetNodes@GRPOBJECT@@QAEPAV?$XVECTOR@PAVGRPNODE@@@@XZ 004a0140 f i GRPFile3DFBX.obj
 0001:0009f160       ?GetResourceLocation@GRPMATERIALLIBRARY@@QAEPAVXPATH@@XZ 004a0160 f i GRPFile3DFBX.obj
 0001:0009f180       ?GetSize@?$XMAP@_KPAVGRPANIMATIONCURVE@@@@QAEIXZ 004a0180 f i GRPFile3DFBX.obj
 0001:0009f1a0       ?GetSize@?$XMAP@_KPAVGRPANIMATIONSTACK@@@@QAEIXZ 004a01a0 f i GRPFile3DFBX.obj
 0001:0009f1c0       ?GetSize@?$XMAP@_KPAVGRPNODE@@@@QAEIXZ 004a01c0 f i GRPFile3DFBX.obj
 0001:0009f1e0       ?GetSize@?$XMAP@_KPAVGRPSKINPOSE@@@@QAEIXZ 004a01e0 f i GRPFile3DFBX.obj
 0001:0009f200       ?GetSize@?$XMAP@_K_K@@QAEIXZ 004a0200 f i GRPFile3DFBX.obj
 0001:0009f220       ?GetSize@?$XVECTOR@PAVFBXNode@@@@QAEIXZ 004a0220 f i GRPFile3DFBX.obj
 0001:0009f240       ?GetSize@?$XVECTOR@PAVGRPCAMERA@@@@QAEIXZ 004a0240 f i GRPFile3DFBX.obj
 0001:0009f260       ?GetSize@?$XVECTOR@PAVGRPNODE@@@@QAEIXZ 004a0260 f i GRPFile3DFBX.obj
 0001:0009f280       ?GetSubdeformers@GRPDEFORMER@@QAEPAV?$XMAP@_KPAVGRPSUBDEFORMER@@@@XZ 004a0280 f i GRPFile3DFBX.obj
 0001:0009f2a0       ?GetSubjectType@GRPLIGHT@@UAEIXZ 004a02a0 f i GRPFile3DFBX.obj
 0001:0009f2b0       ?GetSubjectType@GRPNODE@@UAEIXZ 004a02b0 f i GRPFile3DFBX.obj
 0001:0009f2c0       ?GetType@GRPDEFORMER@@UAE?AW4GRPNAMED_TYPE@@XZ 004a02c0 f i GRPFile3DFBX.obj
 0001:0009f2d0       ?GetType@GRPSKIN@@UAE?AW4GRPNAMED_TYPE@@XZ 004a02d0 f i GRPFile3DFBX.obj
 0001:0009f2e0       ?GetType@GRPSKINCLUSTER@@UAE?AW4GRPNAMED_TYPE@@XZ 004a02e0 f i GRPFile3DFBX.obj
 0001:0009f2f0       ?GetType@GRPSKINLIMB@@UAE?AW4GRPNAMED_TYPE@@XZ 004a02f0 f i GRPFile3DFBX.obj
 0001:0009f300       ?GetType@GRPSKINPOSE@@UAE?AW4GRPNAMED_TYPE@@XZ 004a0300 f i GRPFile3DFBX.obj
 0001:0009f310       ?ReadAllFile@FFILETXT@@QAE_NXZ 004a0310 f i GRPFile3DFBX.obj
 0001:0009f540       ?ResizeAdd@?$XVECTOR@M@@AAE_NXZ 004a0540 f i GRPFile3DFBX.obj
 0001:0009f600       ?ResizeAdd@?$XVECTOR@N@@AAE_NXZ 004a0600 f i GRPFile3DFBX.obj
 0001:0009f6c0       ?ResizeAdd@?$XVECTOR@PAUGRPVERTEX@@@@AAE_NXZ 004a06c0 f i GRPFile3DFBX.obj
 0001:0009f780       ?ResizeAdd@?$XVECTOR@PAVFBXData@@@@AAE_NXZ 004a0780 f i GRPFile3DFBX.obj
 0001:0009f840       ?ResizeAdd@?$XVECTOR@PAVFBXNode@@@@AAE_NXZ 004a0840 f i GRPFile3DFBX.obj
 0001:0009f900       ?ResizeAdd@?$XVECTOR@PAVGRPCAMERA@@@@AAE_NXZ 004a0900 f i GRPFile3DFBX.obj
 0001:0009f9c0       ?ResizeAdd@?$XVECTOR@PAVGRPFACE@@@@AAE_NXZ 004a09c0 f i GRPFile3DFBX.obj
 0001:0009fa80       ?ResizeAdd@?$XVECTOR@PAVGRPLIGHT@@@@AAE_NXZ 004a0a80 f i GRPFile3DFBX.obj
 0001:0009fb40       ?ResizeAdd@?$XVECTOR@PAVGRPMESH@@@@AAE_NXZ 004a0b40 f i GRPFile3DFBX.obj
 0001:0009fc00       ?ResizeAdd@?$XVECTOR@PAVGRPNODE@@@@AAE_NXZ 004a0c00 f i GRPFile3DFBX.obj
 0001:0009fcc0       ?ResizeAdd@?$XVECTOR@PAVGRPSKIN@@@@AAE_NXZ 004a0cc0 f i GRPFile3DFBX.obj
 0001:0009fd80       ?ResizeAdd@?$XVECTOR@PAVGRPSKINCLUSTER@@@@AAE_NXZ 004a0d80 f i GRPFile3DFBX.obj
 0001:0009fe40       ?ResizeAdd@?$XVECTOR@PAVGRPSKINLIMB@@@@AAE_NXZ 004a0e40 f i GRPFile3DFBX.obj
 0001:0009ff00       ?ResizeAdd@?$XVECTOR@PAVGRPSKINPOSE@@@@AAE_NXZ 004a0f00 f i GRPFile3DFBX.obj
 0001:0009ffc0       ?ResizeAdd@?$XVECTOR@PAVGRPSUBDEFORMER@@@@AAE_NXZ 004a0fc0 f i GRPFile3DFBX.obj
 0001:000a0080       ?ResizeAdd@?$XVECTOR@PAVGRPSUBDEFORMERSHAPE@@@@AAE_NXZ 004a1080 f i GRPFile3DFBX.obj
 0001:000a0140       ?ResizeAdd@?$XVECTOR@PAVGRPTEXTURE@@@@AAE_NXZ 004a1140 f i GRPFile3DFBX.obj
 0001:000a0200       ?ResizeAdd@?$XVECTOR@_J@@AAE_NXZ 004a1200 f i GRPFile3DFBX.obj
 0001:000a02c0       ?ResizeAdd@?$XVECTOR@_K@@AAE_NXZ 004a12c0 f i GRPFile3DFBX.obj
 0001:000a0380       ?ResizeRemove@?$XVECTOR@PAVGRPANIMATIONCURVE@@@@AAE_NI@Z 004a1380 f i GRPFile3DFBX.obj
 0001:000a03f0       ?ResizeRemove@?$XVECTOR@PAVGRPDEFORMER@@@@AAE_NI@Z 004a13f0 f i GRPFile3DFBX.obj
 0001:000a0460       ?ResizeRemove@?$XVECTOR@PAVGRPSUBDEFORMER@@@@AAE_NI@Z 004a1460 f i GRPFile3DFBX.obj
 0001:000a04d0       ?ResizeRemove@?$XVECTOR@_K@@AAE_NI@Z 004a14d0 f i GRPFile3DFBX.obj
 0001:000a0540       ?Set@?$XMAP@_KPAVGRPMATERIAL@@@@QAE_N_KPAVGRPMATERIAL@@@Z 004a1540 f i GRPFile3DFBX.obj
 0001:000a0590       ?Set@?$XMAP@_KPAVXSTRING@@@@QAE_N_KPAVXSTRING@@@Z 004a1590 f i GRPFile3DFBX.obj
 0001:000a05e0       ?Set@?$XMAP@_K_K@@QAE_N_K0@Z 004a15e0 f i GRPFile3DFBX.obj
 0001:000a0630       ?Set@?$XVECTOR@PAVGRPMATERIAL@@@@QAE_NHPAVGRPMATERIAL@@@Z 004a1630 f i GRPFile3DFBX.obj
 0001:000a0670       ?Set@?$XVECTOR@PAVXSTRING@@@@QAE_NHPAVXSTRING@@@Z 004a1670 f i GRPFile3DFBX.obj
 0001:000a06b0       ?SetAddInLimit@?$XVECTOR@I@@QAEXH@Z 004a16b0 f i GRPFile3DFBX.obj
 0001:000a06e0       ?SetAddInLimit@?$XVECTOR@N@@QAEXH@Z 004a16e0 f i GRPFile3DFBX.obj
 0001:000a0710       ?SetAddInLimit@?$XVECTOR@PAVGRPFACE@@@@QAEXH@Z 004a1710 f i GRPFile3DFBX.obj
 0001:000a0740       ?SetAddInLimit@?$XVECTOR@PAVGRPPOINT@@@@QAEXH@Z 004a1740 f i GRPFile3DFBX.obj
 0001:000a0770       ?SetAddInLimit@?$XVECTOR@PAVXSTRING@@@@QAEXH@Z 004a1770 f i GRPFile3DFBX.obj
 0001:000a07a0       ?SetAddInLimit@?$XVECTOR@_J@@QAEXH@Z 004a17a0 f i GRPFile3DFBX.obj
 0001:000a07d0       ?SetAddInLimit@?$XVECTOR@_K@@QAEXH@Z 004a17d0 f i GRPFile3DFBX.obj
 0001:000a0800       ?SetAmbient@GRPMATERIALATTRIBUTES@@QAEXVGRPCOLOR@@@Z 004a1800 f i GRPFile3DFBX.obj
 0001:000a0880       ?SetBumpFactor@GRPMATERIALATTRIBUTES@@QAEXM@Z 004a1880 f i GRPFile3DFBX.obj
 0001:000a08b0       ?SetCurrentCamera@GRPOBJECT@@QAEXI@Z 004a18b0 f i GRPFile3DFBX.obj
 0001:000a08d0       ?SetDecayType@GRPLIGHT@@QAEXW4GRPLIGHTDECAYTYPE@@@Z 004a18d0 f i GRPFile3DFBX.obj
 0001:000a08f0       ?SetDiffuse@GRPLIGHT@@QAEXVGRPCOLOR@@@Z 004a18f0 f i GRPFile3DFBX.obj
 0001:000a0970       ?SetEmission@GRPMATERIALATTRIBUTES@@QAEXVGRPCOLOR@@@Z 004a1970 f i GRPFile3DFBX.obj
 0001:000a09f0       ?SetInnerSpot@GRPLIGHT@@QAEXM@Z 004a19f0 f i GRPFile3DFBX.obj
 0001:000a0a10       ?SetIntensity@GRPMATERIALATTRIBUTES@@QAEXM@Z 004a1a10 f i GRPFile3DFBX.obj
 0001:000a0a30       ?SetIsMulti@?$XVECTOR@N@@QAEX_N@Z 004a1a30 f i GRPFile3DFBX.obj
 0001:000a0a50       ?SetIsMulti@?$XVECTOR@_J@@QAEX_N@Z 004a1a50 f i GRPFile3DFBX.obj
 0001:000a0a70       ?SetLayertype@GRPTEXTURE@@QAEXW4GRPTEXTURELAYERTYPE@@@Z 004a1a70 f i GRPFile3DFBX.obj
 0001:000a0a90       ?SetMultiplier@GRPLIGHT@@QAEXM@Z 004a1a90 f i GRPFile3DFBX.obj
 0001:000a0ab0       ?SetOuterSpot@GRPLIGHT@@QAEXM@Z 004a1ab0 f i GRPFile3DFBX.obj
 0001:000a0ad0       ?SetScaleFactor@GRPLIGHT@@QAEXM@Z 004a1ad0 f i GRPFile3DFBX.obj
 0001:000a0af0       ?SetShadingModelName@GRPMATERIAL@@QAEXVXSTRING@@@Z 004a1af0 f i GRPFile3DFBX.obj
 0001:000a0b50       ?SetShape@GRPSUBDEFORMER@@QAEXPAVGRPSUBDEFORMERSHAPE@@@Z 004a1b50 f i GRPFile3DFBX.obj
 0001:000a0b70       ?SetShininess@GRPMATERIALATTRIBUTES@@QAEXM@Z 004a1b70 f i GRPFile3DFBX.obj
 0001:000a0ba0       ?SetSize@GRPSKINLIMB@@QAEXM@Z 004a1ba0 f i GRPFile3DFBX.obj
 0001:000a0bc0       ?SetSpecular@GRPMATERIALATTRIBUTES@@QAEXVGRPCOLOR@@@Z 004a1bc0 f i GRPFile3DFBX.obj
 0001:000a0c40       ?SetSpecularFactor@GRPMATERIALATTRIBUTES@@QAEXM@Z 004a1c40 f i GRPFile3DFBX.obj
 0001:000a0c70       ?SetStrength@GRPLIGHT@@QAEXM@Z 004a1c70 f i GRPFile3DFBX.obj
 0001:000a0c90       ?SetTarget@GRPDEFORMER@@QAEXPAVGRPELEMENT@@@Z 004a1c90 f i GRPFile3DFBX.obj
 0001:000a0cb0       ?SetType@GRPCAMERA@@QAEXW4GRPCAMERA_TYPE@@@Z 004a1cb0 f i GRPFile3DFBX.obj
 0001:000a0cd0       ?SetType@GRPLIGHT@@QAEXW4GRPLIGHTTYPE@@@Z 004a1cd0 f i GRPFile3DFBX.obj
 0001:000a0cf0       ?SetUpNode@GRPCAMERA@@QAEXPAVGRPNODE@@@Z 004a1cf0 f i GRPFile3DFBX.obj
 0001:000a0d10       ?SetUpVector@GRPCAMERA@@QAEXPAVGRPVECTOR@@@Z 004a1d10 f i GRPFile3DFBX.obj
 0001:000a0d70       ?SizeOfCharacter@XFILETXT@@QAEHW4XFILETXTFORMATCHAR@@@Z 004a1d70 f i GRPFile3DFBX.obj
 0001:000a0dc0       __vswscanf_s_l             004a1dc0 f i GRPFile3DFBX.obj
 0001:000a0df0       _swscanf_s                 004a1df0 f i GRPFile3DFBX.obj
 0001:000a0e30       ?Set@GGFSECTIONBLOCK@@QAEPAE_K@Z 004a1e30 f   GRPFile3DGGF.obj
 0001:000a0ed0       ?GetSize@GGFSECTIONBLOCK@@QAE_KXZ 004a1ed0 f   GRPFile3DGGF.obj
 0001:000a0f40       ?GetHeaderSize@GGFSECTIONBLOCK@@QAE_KXZ 004a1f40 f   GRPFile3DGGF.obj
 0001:000a0f60       ?SetType@GGFSECTIONBLOCK@@QAEXW4GGF_SECTION_TYPE@@@Z 004a1f60 f   GRPFile3DGGF.obj
 0001:000a0f80       ?Get@GGFSECTIONBLOCK@@QAEPAEXZ 004a1f80 f   GRPFile3DGGF.obj
 0001:000a0fa0       ?MergeBlocks@GGFSECTIONBLOCK@@QAE_NPAPAEPA_K@Z 004a1fa0 f   GRPFile3DGGF.obj
 0001:000a1060       ?CreateBlock@GGFROOT_BUILDER@@UAEPAVGGFSECTIONBLOCK@@PAVGRPFILE3DGGF@@PAX@Z 004a2060 f   GRPFile3DGGF.obj
 0001:000a1560       ?ReadBlock@GGFROOT_BUILDER@@UAE_NPAVGRPFILE3DGGF@@PAEPA_KPAX@Z 004a2560 f   GRPFile3DGGF.obj
 0001:000a19e0       ?CreateBlock@GGFHEADER_BUILDER@@UAEPAVGGFSECTIONBLOCK@@PAVGRPFILE3DGGF@@PAX@Z 004a29e0 f   GRPFile3DGGF.obj
 0001:000a1d60       ?ReadBlock@GGFHEADER_BUILDER@@UAE_NPAVGRPFILE3DGGF@@PAEPA_KPAX@Z 004a2d60 f   GRPFile3DGGF.obj
 0001:000a2060       ?CreateBlock@GGFFONT_BUILDER@@UAEPAVGGFSECTIONBLOCK@@PAVGRPFILE3DGGF@@PAX@Z 004a3060 f   GRPFile3DGGF.obj
 0001:000a26e0       ?ReadBlock@GGFFONT_BUILDER@@UAE_NPAVGRPFILE3DGGF@@PAEPA_KPAX@Z 004a36e0 f   GRPFile3DGGF.obj
 0001:000a2d40       ?CreateBlock@GGFPROPERTY_BUILDER@@UAEPAVGGFSECTIONBLOCK@@PAVGRPFILE3DGGF@@PAX@Z 004a3d40 f   GRPFile3DGGF.obj
 0001:000a3040       ?ReadBlock@GGFPROPERTY_BUILDER@@UAE_NPAVGRPFILE3DGGF@@PAEPA_KPAX@Z 004a4040 f   GRPFile3DGGF.obj
 0001:000a3300       ?CreateBlock@GGFDICTIONARY_BUILDER@@UAEPAVGGFSECTIONBLOCK@@PAVGRPFILE3DGGF@@PAX@Z 004a4300 f   GRPFile3DGGF.obj
 0001:000a3570       ?ReadBlock@GGFDICTIONARY_BUILDER@@UAE_NPAVGRPFILE3DGGF@@PAEPA_KPAX@Z 004a4570 f   GRPFile3DGGF.obj
 0001:000a3740       ?CreateBlock@GGFMEDIAFILE_BUILDER@@UAEPAVGGFSECTIONBLOCK@@PAVGRPFILE3DGGF@@PAX@Z 004a4740 f   GRPFile3DGGF.obj
 0001:000a37e0       ?ReadBlock@GGFMEDIAFILE_BUILDER@@UAE_NPAVGRPFILE3DGGF@@PAEPA_KPAX@Z 004a47e0 f   GRPFile3DGGF.obj
 0001:000a37f0       ?CreateBlock@GGFOBJECT_BUILDER@@UAEPAVGGFSECTIONBLOCK@@PAVGRPFILE3DGGF@@PAX@Z 004a47f0 f   GRPFile3DGGF.obj
 0001:000a3ec0       ?ReadBlock@GGFOBJECT_BUILDER@@UAE_NPAVGRPFILE3DGGF@@PAEPA_KPAX@Z 004a4ec0 f   GRPFile3DGGF.obj
 0001:000a4430       ?CreateBlock@GGFELEMENT_BUILDER@@UAEPAVGGFSECTIONBLOCK@@PAVGRPFILE3DGGF@@PAX@Z 004a5430 f   GRPFile3DGGF.obj
 0001:000a4e30       ?ReadBlock@GGFELEMENT_BUILDER@@UAE_NPAVGRPFILE3DGGF@@PAEPA_KPAX@Z 004a5e30 f   GRPFile3DGGF.obj
 0001:000a55a0       ?CreateBlock@GGFMESH_BUILDER@@UAEPAVGGFSECTIONBLOCK@@PAVGRPFILE3DGGF@@PAX@Z 004a65a0 f   GRPFile3DGGF.obj
 0001:000a5e60       ?ReadBlock@GGFMESH_BUILDER@@UAE_NPAVGRPFILE3DGGF@@PAEPA_KPAX@Z 004a6e60 f   GRPFile3DGGF.obj
 0001:000a6400       ?CreateBlock@GGFMESH_LAYER_BUILDER@@UAEPAVGGFSECTIONBLOCK@@PAVGRPFILE3DGGF@@PAX@Z 004a7400 f   GRPFile3DGGF.obj
 0001:000a6d20       ?ReadBlock@GGFMESH_LAYER_BUILDER@@UAE_NPAVGRPFILE3DGGF@@PAEPA_KPAX@Z 004a7d20 f   GRPFile3DGGF.obj
 0001:000a73a0       ?CreateBlock@GGFLOCATOR_BUILDER@@UAEPAVGGFSECTIONBLOCK@@PAVGRPFILE3DGGF@@PAX@Z 004a83a0 f   GRPFile3DGGF.obj
 0001:000a80e0       ?ReadBlock@GGFLOCATOR_BUILDER@@UAE_NPAVGRPFILE3DGGF@@PAEPA_KPAX@Z 004a90e0 f   GRPFile3DGGF.obj
 0001:000a8ab0       ?CreateBlock@GGFCAMERA_BUILDER@@UAEPAVGGFSECTIONBLOCK@@PAVGRPFILE3DGGF@@PAX@Z 004a9ab0 f   GRPFile3DGGF.obj
 0001:000a94b0       ?ReadBlock@GGFCAMERA_BUILDER@@UAE_NPAVGRPFILE3DGGF@@PAEPA_KPAX@Z 004aa4b0 f   GRPFile3DGGF.obj
 0001:000a9ea0       ?CreateBlock@GGFLIGHT_BUILDER@@UAEPAVGGFSECTIONBLOCK@@PAVGRPFILE3DGGF@@PAX@Z 004aaea0 f   GRPFile3DGGF.obj
 0001:000aa7b0       ?ReadBlock@GGFLIGHT_BUILDER@@UAE_NPAVGRPFILE3DGGF@@PAEPA_KPAX@Z 004ab7b0 f   GRPFile3DGGF.obj
 0001:000ab010       ?CreateBlock@GGFDEFORMER_BUILDER@@UAEPAVGGFSECTIONBLOCK@@PAVGRPFILE3DGGF@@PAX@Z 004ac010 f   GRPFile3DGGF.obj
 0001:000ab2b0       ?ReadBlock@GGFDEFORMER_BUILDER@@UAE_NPAVGRPFILE3DGGF@@PAEPA_KPAX@Z 004ac2b0 f   GRPFile3DGGF.obj
 0001:000ab540       ?CreateBlock@GGFSUBDEFORMER_BUILDER@@UAEPAVGGFSECTIONBLOCK@@PAVGRPFILE3DGGF@@PAX@Z 004ac540 f   GRPFile3DGGF.obj
 0001:000ab730       ?ReadBlock@GGFSUBDEFORMER_BUILDER@@UAE_NPAVGRPFILE3DGGF@@PAEPA_KPAX@Z 004ac730 f   GRPFile3DGGF.obj
 0001:000ab920       ?CreateBlock@GGFSKIN_BUILDER@@UAEPAVGGFSECTIONBLOCK@@PAVGRPFILE3DGGF@@PAX@Z 004ac920 f   GRPFile3DGGF.obj
 0001:000abc80       ?ReadBlock@GGFSKIN_BUILDER@@UAE_NPAVGRPFILE3DGGF@@PAEPA_KPAX@Z 004acc80 f   GRPFile3DGGF.obj
 0001:000abf80       ?CreateBlock@GGFSKINCLUSTER_BUILDER@@UAEPAVGGFSECTIONBLOCK@@PAVGRPFILE3DGGF@@PAX@Z 004acf80 f   GRPFile3DGGF.obj
 0001:000ac4c0       ?ReadBlock@GGFSKINCLUSTER_BUILDER@@UAE_NPAVGRPFILE3DGGF@@PAEPA_KPAX@Z 004ad4c0 f   GRPFile3DGGF.obj
 0001:000ac8b0       ?CreateBlock@GGFSKINPOSE_BUILDER@@UAEPAVGGFSECTIONBLOCK@@PAVGRPFILE3DGGF@@PAX@Z 004ad8b0 f   GRPFile3DGGF.obj
 0001:000acc30       ?ReadBlock@GGFSKINPOSE_BUILDER@@UAE_NPAVGRPFILE3DGGF@@PAEPA_KPAX@Z 004adc30 f   GRPFile3DGGF.obj
 0001:000acee0       ?CreateBlock@GGFANIMATION_BUILDER@@UAEPAVGGFSECTIONBLOCK@@PAVGRPFILE3DGGF@@PAX@Z 004adee0 f   GRPFile3DGGF.obj
 0001:000ad2f0       ?ReadBlock@GGFANIMATION_BUILDER@@UAE_NPAVGRPFILE3DGGF@@PAEPA_KPAX@Z 004ae2f0 f   GRPFile3DGGF.obj
 0001:000ad640       ?CreateBlock@GGFANIMATION_STACK_BUILDER@@UAEPAVGGFSECTIONBLOCK@@PAVGRPFILE3DGGF@@PAX@Z 004ae640 f   GRPFile3DGGF.obj
 0001:000add30       ?ReadBlock@GGFANIMATION_STACK_BUILDER@@UAE_NPAVGRPFILE3DGGF@@PAEPA_KPAX@Z 004aed30 f   GRPFile3DGGF.obj
 0001:000ae3c0       ?CreateBlock@GGFANIMATION_LAYER_BUILDER@@UAEPAVGGFSECTIONBLOCK@@PAVGRPFILE3DGGF@@PAX@Z 004af3c0 f   GRPFile3DGGF.obj
 0001:000ae880       ?ReadBlock@GGFANIMATION_LAYER_BUILDER@@UAE_NPAVGRPFILE3DGGF@@PAEPA_KPAX@Z 004af880 f   GRPFile3DGGF.obj
 0001:000aece0       ?CreateBlock@GGFANIMATION_EVENT_BUILDER@@UAEPAVGGFSECTIONBLOCK@@PAVGRPFILE3DGGF@@PAX@Z 004afce0 f   GRPFile3DGGF.obj
 0001:000af070       ?ReadBlock@GGFANIMATION_EVENT_BUILDER@@UAE_NPAVGRPFILE3DGGF@@PAEPA_KPAX@Z 004b0070 f   GRPFile3DGGF.obj
 0001:000af470       ?CreateBlock@GGFANIMATION_NODE_BUILDER@@UAEPAVGGFSECTIONBLOCK@@PAVGRPFILE3DGGF@@PAX@Z 004b0470 f   GRPFile3DGGF.obj
 0001:000af990       ?ReadBlock@GGFANIMATION_NODE_BUILDER@@UAE_NPAVGRPFILE3DGGF@@PAEPA_KPAX@Z 004b0990 f   GRPFile3DGGF.obj
 0001:000afd20       ?CreateBlock@GGFANIMATION_CURVE_BUILDER@@UAEPAVGGFSECTIONBLOCK@@PAVGRPFILE3DGGF@@PAX@Z 004b0d20 f   GRPFile3DGGF.obj
 0001:000b0370       ?ReadBlock@GGFANIMATION_CURVE_BUILDER@@UAE_NPAVGRPFILE3DGGF@@PAEPA_KPAX@Z 004b1370 f   GRPFile3DGGF.obj
 0001:000b0990       ?CreateBlock@GGFLOGIC_BUILDER@@UAEPAVGGFSECTIONBLOCK@@PAVGRPFILE3DGGF@@PAX@Z 004b1990 f   GRPFile3DGGF.obj
 0001:000b0c30       ?ReadBlock@GGFLOGIC_BUILDER@@UAE_NPAVGRPFILE3DGGF@@PAEPA_KPAX@Z 004b1c30 f   GRPFile3DGGF.obj
 0001:000b0f00       ?CreateBlock@GGFLOGIC_CONTROLLER_BUILDER@@UAEPAVGGFSECTIONBLOCK@@PAVGRPFILE3DGGF@@PAX@Z 004b1f00 f   GRPFile3DGGF.obj
 0001:000b1670       ?ReadBlock@GGFLOGIC_CONTROLLER_BUILDER@@UAE_NPAVGRPFILE3DGGF@@PAEPA_KPAX@Z 004b2670 f   GRPFile3DGGF.obj
 0001:000b1d60       ?CreateBlock@GGFLOGIC_STATE_BUILDER@@UAEPAVGGFSECTIONBLOCK@@PAVGRPFILE3DGGF@@PAX@Z 004b2d60 f   GRPFile3DGGF.obj
 0001:000b2130       ?ReadBlock@GGFLOGIC_STATE_BUILDER@@UAE_NPAVGRPFILE3DGGF@@PAEPA_KPAX@Z 004b3130 f   GRPFile3DGGF.obj
 0001:000b24c0       ?CreateBlock@GGFLOGIC_ANIMATION_BUILDER@@UAEPAVGGFSECTIONBLOCK@@PAVGRPFILE3DGGF@@PAX@Z 004b34c0 f   GRPFile3DGGF.obj
 0001:000b2920       ?ReadBlock@GGFLOGIC_ANIMATION_BUILDER@@UAE_NPAVGRPFILE3DGGF@@PAEPA_KPAX@Z 004b3920 f   GRPFile3DGGF.obj
 0001:000b2d10       ?CreateBlock@GGFLOGIC_OVERLAY_BUILDER@@UAEPAVGGFSECTIONBLOCK@@PAVGRPFILE3DGGF@@PAX@Z 004b3d10 f   GRPFile3DGGF.obj
 0001:000b3310       ?ReadBlock@GGFLOGIC_OVERLAY_BUILDER@@UAE_NPAVGRPFILE3DGGF@@PAEPA_KPAX@Z 004b4310 f   GRPFile3DGGF.obj
 0001:000b3890       ?CreateBlock@GGFMATERIAL_BUILDER@@UAEPAVGGFSECTIONBLOCK@@PAVGRPFILE3DGGF@@PAX@Z 004b4890 f   GRPFile3DGGF.obj
 0001:000b4120       ?ReadBlock@GGFMATERIAL_BUILDER@@UAE_NPAVGRPFILE3DGGF@@PAEPA_KPAX@Z 004b5120 f   GRPFile3DGGF.obj
 0001:000b48f0       ?CreateBlock@GGFTEXTURE_BUILDER@@UAEPAVGGFSECTIONBLOCK@@PAVGRPFILE3DGGF@@PAX@Z 004b58f0 f   GRPFile3DGGF.obj
 0001:000b4c40       ?ReadBlock@GGFTEXTURE_BUILDER@@UAE_NPAVGRPFILE3DGGF@@PAEPA_KPAX@Z 004b5c40 f   GRPFile3DGGF.obj
 0001:000b5030       ?CreateBlock@GGFSHADER_BUILDER@@UAEPAVGGFSECTIONBLOCK@@PAVGRPFILE3DGGF@@PAX@Z 004b6030 f   GRPFile3DGGF.obj
 0001:000b5200       ?ReadBlock@GGFSHADER_BUILDER@@UAE_NPAVGRPFILE3DGGF@@PAEPA_KPAX@Z 004b6200 f   GRPFile3DGGF.obj
 0001:000b53f0       ?CreateBlock@GGFSOUNDS_BUILDER@@UAEPAVGGFSECTIONBLOCK@@PAVGRPFILE3DGGF@@PAX@Z 004b63f0 f   GRPFile3DGGF.obj
 0001:000b5400       ?ReadBlock@GGFSOUNDS_BUILDER@@UAE_NPAVGRPFILE3DGGF@@PAEPA_KPAX@Z 004b6400 f   GRPFile3DGGF.obj
 0001:000b5410       ?CreateBlock@GGFDATA_BUILDER@@UAEPAVGGFSECTIONBLOCK@@PAVGRPFILE3DGGF@@PAX@Z 004b6410 f   GRPFile3DGGF.obj
 0001:000b5700       ?ReadBlock@GGFDATA_BUILDER@@UAE_NPAVGRPFILE3DGGF@@PAEPA_KPAX@Z 004b6700 f   GRPFile3DGGF.obj
 0001:000b59d0       ??0GRPFILE3DGGF@@QAE@XZ    004b69d0 f   GRPFile3DGGF.obj
 0001:000b5c70       ??1GRPFILE3DGGF@@UAE@XZ    004b6c70 f   GRPFile3DGGF.obj
 0001:000b5ec0       ?Load@GRPFILE3DGGF@@UAEPAVGRPOBJECT@@PA_W@Z 004b6ec0 f   GRPFile3DGGF.obj
 0001:000b62e0       ?Save@GRPFILE3DGGF@@UAE_NPA_W@Z 004b72e0 f   GRPFile3DGGF.obj
 0001:000b65b0       ?SetScene@GRPFILE3DGGF@@UAEXPAVGRPSCENE@@@Z 004b75b0 f   GRPFile3DGGF.obj
 0001:000b65d0       ?GetScene@GRPFILE3DGGF@@QAEPAVGRPSCENE@@XZ 004b75d0 f   GRPFile3DGGF.obj
 0001:000b65f0       ?Init@GRPFILE3DGGF@@UAEXXZ 004b75f0 f   GRPFile3DGGF.obj
 0001:000b6730       ?Setup@GRPFILE3DGGF@@QAE_NXZ 004b7730 f   GRPFile3DGGF.obj
 0001:000b82e0       ?Output@GRPFILE3DGGF@@QAAXIPA_WZZ 004b92e0 f   GRPFile3DGGF.obj
 0001:000b83b0       ?WriteString@GRPFILE3DGGF@@QAE_NPAVXSTRING@@PAVGGFSECTIONBLOCK@@PA_K@Z 004b93b0 f   GRPFile3DGGF.obj
 0001:000b8490       ?ReadString@GRPFILE3DGGF@@QAE_NPAVXSTRING@@PAEPA_K2@Z 004b9490 f   GRPFile3DGGF.obj
 0001:000b85d0       ?InitSectionBuilders@GRPFILE3DGGF@@IAE_NXZ 004b95d0 f   GRPFile3DGGF.obj
 0001:000b8860       ?CreateSectionBuilder@GRPFILE3DGGF@@IAEPAVGGFSECTIONBUILDER@@W4GGF_SECTION_TYPE@@II@Z 004b9860 f   GRPFile3DGGF.obj
 0001:000b98d0       ?Clear@GRPFILE3DGGF@@AAEXXZ 004ba8d0 f   GRPFile3DGGF.obj
 0001:000b9a60       ??$__vcrt_va_start_verify_argument_type@PA_W@@YAXXZ 004baa60 f i GRPFile3DGGF.obj
 0001:000b9a70       ??0?$XMAP@II@@QAE@XZ       004baa70 f i GRPFile3DGGF.obj
 0001:000b9af0       ??0?$XMAP@W4GGF_SECTION_TYPE@@I@@QAE@XZ 004baaf0 f i GRPFile3DGGF.obj
 0001:000b9b70       ??0?$XMAP@W4GGF_SECTION_TYPE@@PAVGGFSECTIONBUILDER@@@@QAE@XZ 004bab70 f i GRPFile3DGGF.obj
 0001:000b9bf0       ??0?$XMAP@_JW4GGF_SECTION_TYPE@@@@QAE@XZ 004babf0 f i GRPFile3DGGF.obj
 0001:000b9c70       ??0?$XMAP@_J_J@@QAE@XZ     004bac70 f i GRPFile3DGGF.obj
 0001:000b9cf0       ??0?$XVECTOR@PAVGGFPROPERTY@@@@QAE@XZ 004bacf0 f i GRPFile3DGGF.obj
 0001:000b9d10       ??0?$XVECTOR@PAVGGFSECTIONBLOCK@@@@QAE@XZ 004bad10 f i GRPFile3DGGF.obj
 0001:000b9d30       ??0?$XVECTOR@PAVGGFSECTIONBUILDER@@@@QAE@XZ 004bad30 f i GRPFile3DGGF.obj
 0001:000b9d50       ??0?$XVECTOR@PAVGRPANIMATIONCONTROL@@@@QAE@XZ 004bad50 f i GRPFile3DGGF.obj
 0001:000b9d70       ??0?$XVECTOR@PAVGRPOBJECT@@@@QAE@XZ 004bad70 f i GRPFile3DGGF.obj
 0001:000b9d90       ??0?$XVECTOR@PAVGRPSHADERPROGRAM@@@@QAE@XZ 004bad90 f i GRPFile3DGGF.obj
 0001:000b9db0       ??0?$XVECTOR@PAVGRPUSERDATACONTAINER@@@@QAE@XZ 004badb0 f i GRPFile3DGGF.obj
 0001:000b9dd0       ??0?$XVECTOR@W4GGF_SECTION_TYPE@@@@QAE@XZ 004badd0 f i GRPFile3DGGF.obj
 0001:000b9df0       ??0ANIMATION@AI@@QAE@IIH@Z 004badf0 f i GRPFile3DGGF.obj
 0001:000b9ea0       ??0COMMAND@AI@@QAE@XZ      004baea0 f i GRPFile3DGGF.obj
 0001:000b9f10       ??0GGFANIMATION_BUILDER@@QAE@XZ 004baf10 f i GRPFile3DGGF.obj
 0001:000b9f30       ??0GGFANIMATION_CURVE_BUILDER@@QAE@XZ 004baf30 f i GRPFile3DGGF.obj
 0001:000b9f50       ??0GGFANIMATION_EVENT_BUILDER@@QAE@XZ 004baf50 f i GRPFile3DGGF.obj
 0001:000b9f70       ??0GGFANIMATION_LAYER_BUILDER@@QAE@XZ 004baf70 f i GRPFile3DGGF.obj
 0001:000b9f90       ??0GGFANIMATION_NODE_BUILDER@@QAE@XZ 004baf90 f i GRPFile3DGGF.obj
 0001:000b9fb0       ??0GGFANIMATION_STACK_BUILDER@@QAE@XZ 004bafb0 f i GRPFile3DGGF.obj
 0001:000b9fd0       ??0GGFCAMERA_BUILDER@@QAE@XZ 004bafd0 f i GRPFile3DGGF.obj
 0001:000b9ff0       ??0GGFDATA_BUILDER@@QAE@XZ 004baff0 f i GRPFile3DGGF.obj
 0001:000ba010       ??0GGFDEFORMER_BUILDER@@QAE@XZ 004bb010 f i GRPFile3DGGF.obj
 0001:000ba030       ??0GGFDICTIONARY_BUILDER@@QAE@XZ 004bb030 f i GRPFile3DGGF.obj
 0001:000ba050       ??0GGFELEMENT_BUILDER@@QAE@XZ 004bb050 f i GRPFile3DGGF.obj
 0001:000ba070       ??0GGFFONT_BUILDER@@QAE@XZ 004bb070 f i GRPFile3DGGF.obj
 0001:000ba090       ??0GGFHEADER_BUILDER@@QAE@XZ 004bb090 f i GRPFile3DGGF.obj
 0001:000ba0b0       ??0GGFLIGHT_BUILDER@@QAE@XZ 004bb0b0 f i GRPFile3DGGF.obj
 0001:000ba0d0       ??0GGFLOCATOR_BUILDER@@QAE@XZ 004bb0d0 f i GRPFile3DGGF.obj
 0001:000ba0f0       ??0GGFLOGIC_ANIMATION_BUILDER@@QAE@XZ 004bb0f0 f i GRPFile3DGGF.obj
 0001:000ba110       ??0GGFLOGIC_BUILDER@@QAE@XZ 004bb110 f i GRPFile3DGGF.obj
 0001:000ba130       ??0GGFLOGIC_CONTROLLER_BUILDER@@QAE@XZ 004bb130 f i GRPFile3DGGF.obj
 0001:000ba150       ??0GGFLOGIC_OVERLAY_BUILDER@@QAE@XZ 004bb150 f i GRPFile3DGGF.obj
 0001:000ba170       ??0GGFLOGIC_STATE_BUILDER@@QAE@XZ 004bb170 f i GRPFile3DGGF.obj
 0001:000ba190       ??0GGFMATERIAL_BUILDER@@QAE@XZ 004bb190 f i GRPFile3DGGF.obj
 0001:000ba1b0       ??0GGFMESH_BUILDER@@QAE@XZ 004bb1b0 f i GRPFile3DGGF.obj
 0001:000ba1d0       ??0GGFMESH_LAYER_BUILDER@@QAE@XZ 004bb1d0 f i GRPFile3DGGF.obj
 0001:000ba1f0       ??0GGFOBJECT_BUILDER@@QAE@XZ 004bb1f0 f i GRPFile3DGGF.obj
 0001:000ba210       ??0GGFPROPERTY@@QAE@XZ     004bb210 f i GRPFile3DGGF.obj
 0001:000ba220       ??0GGFPROPERTY_BUILDER@@QAE@XZ 004bb220 f i GRPFile3DGGF.obj
 0001:000ba240       ??0GGFROOT_BUILDER@@QAE@XZ 004bb240 f i GRPFile3DGGF.obj
 0001:000ba260       ??0GGFSECTIONBLOCK@@QAE@XZ 004bb260 f i GRPFile3DGGF.obj
 0001:000ba2c0       ??0GGFSECTIONBUILDER@@QAE@XZ 004bb2c0 f i GRPFile3DGGF.obj
 0001:000ba310       ??0GGFSHADER_BUILDER@@QAE@XZ 004bb310 f i GRPFile3DGGF.obj
 0001:000ba330       ??0GGFSKINCLUSTER_BUILDER@@QAE@XZ 004bb330 f i GRPFile3DGGF.obj
 0001:000ba350       ??0GGFSKINPOSE_BUILDER@@QAE@XZ 004bb350 f i GRPFile3DGGF.obj
 0001:000ba370       ??0GGFSKIN_BUILDER@@QAE@XZ 004bb370 f i GRPFile3DGGF.obj
 0001:000ba390       ??0GGFSUBDEFORMER_BUILDER@@QAE@XZ 004bb390 f i GRPFile3DGGF.obj
 0001:000ba3b0       ??0GGFTEXTURE_BUILDER@@QAE@XZ 004bb3b0 f i GRPFile3DGGF.obj
 0001:000ba3d0       ??0GRPANIMATIONSTACKMILESTONE@@QAE@XZ 004bb3d0 f i GRPFile3DGGF.obj
 0001:000ba480       ??0OVERLAY@AI@@QAE@XZ      004bb480 f i GRPFile3DGGF.obj
 0001:000ba560       ??1?$XMAP@W4GGF_SECTION_TYPE@@I@@UAE@XZ 004bb560 f i GRPFile3DGGF.obj
 0001:000ba590       ??1?$XMAP@W4GGF_SECTION_TYPE@@PAVGGFSECTIONBUILDER@@@@UAE@XZ 004bb590 f i GRPFile3DGGF.obj
 0001:000ba5c0       ??1?$XMAP@_JW4GGF_SECTION_TYPE@@@@UAE@XZ 004bb5c0 f i GRPFile3DGGF.obj
 0001:000ba5f0       ??1?$XMAP@_J_J@@UAE@XZ     004bb5f0 f i GRPFile3DGGF.obj
 0001:000ba620       ??1?$XVECTOR@PAVGGFPROPERTY@@@@UAE@XZ 004bb620 f i GRPFile3DGGF.obj
 0001:000ba670       ??1?$XVECTOR@PAVGGFSECTIONBLOCK@@@@UAE@XZ 004bb670 f i GRPFile3DGGF.obj
 0001:000ba6c0       ??1?$XVECTOR@PAVGGFSECTIONBUILDER@@@@UAE@XZ 004bb6c0 f i GRPFile3DGGF.obj
 0001:000ba710       ??1?$XVECTOR@PAVGRPANIMATIONCONTROL@@@@UAE@XZ 004bb710 f i GRPFile3DGGF.obj
 0001:000ba760       ??1?$XVECTOR@PAVGRPOBJECT@@@@UAE@XZ 004bb760 f i GRPFile3DGGF.obj
 0001:000ba7b0       ??1?$XVECTOR@PAVGRPSHADERPROGRAM@@@@UAE@XZ 004bb7b0 f i GRPFile3DGGF.obj
 0001:000ba800       ??1?$XVECTOR@PAVGRPUSERDATACONTAINER@@@@UAE@XZ 004bb800 f i GRPFile3DGGF.obj
 0001:000ba850       ??1?$XVECTOR@W4GGF_SECTION_TYPE@@@@UAE@XZ 004bb850 f i GRPFile3DGGF.obj
 0001:000ba8a0       ??1GGFSECTIONBLOCK@@QAE@XZ 004bb8a0 f i GRPFile3DGGF.obj
 0001:000ba940       ??1GRPANIMATIONSTACKMILESTONE@@UAE@XZ 004bb940 f i GRPFile3DGGF.obj
 0001:000ba960       ??1OVERLAY@AI@@UAE@XZ      004bb960 f i GRPFile3DGGF.obj
 0001:000baa00       ??_DGRPANIMATIONSTACKMILESTONE@@QAEXXZ 004bba00 f i GRPFile3DGGF.obj
 0001:000baa30       ??_DOVERLAY@AI@@QAEXXZ     004bba30 f i GRPFile3DGGF.obj
 0001:000baa60       ??_E?$XMAP@W4GGF_SECTION_TYPE@@I@@UAEPAXI@Z 004bba60 f i GRPFile3DGGF.obj
 0001:000baa60       ??_G?$XMAP@W4GGF_SECTION_TYPE@@I@@UAEPAXI@Z 004bba60 f i GRPFile3DGGF.obj
 0001:000baa90       ??_E?$XMAP@W4GGF_SECTION_TYPE@@PAVGGFSECTIONBUILDER@@@@UAEPAXI@Z 004bba90 f i GRPFile3DGGF.obj
 0001:000baa90       ??_G?$XMAP@W4GGF_SECTION_TYPE@@PAVGGFSECTIONBUILDER@@@@UAEPAXI@Z 004bba90 f i GRPFile3DGGF.obj
 0001:000baac0       ??_E?$XMAP@_JW4GGF_SECTION_TYPE@@@@UAEPAXI@Z 004bbac0 f i GRPFile3DGGF.obj
 0001:000baac0       ??_G?$XMAP@_JW4GGF_SECTION_TYPE@@@@UAEPAXI@Z 004bbac0 f i GRPFile3DGGF.obj
 0001:000baaf0       ??_E?$XMAP@_J_J@@UAEPAXI@Z 004bbaf0 f i GRPFile3DGGF.obj
 0001:000baaf0       ??_G?$XMAP@_J_J@@UAEPAXI@Z 004bbaf0 f i GRPFile3DGGF.obj
 0001:000bab20       ??_E?$XVECTOR@PAVGGFPROPERTY@@@@UAEPAXI@Z 004bbb20 f i GRPFile3DGGF.obj
 0001:000bab20       ??_G?$XVECTOR@PAVGGFPROPERTY@@@@UAEPAXI@Z 004bbb20 f i GRPFile3DGGF.obj
 0001:000bab50       ??_E?$XVECTOR@PAVGGFSECTIONBLOCK@@@@UAEPAXI@Z 004bbb50 f i GRPFile3DGGF.obj
 0001:000bab50       ??_G?$XVECTOR@PAVGGFSECTIONBLOCK@@@@UAEPAXI@Z 004bbb50 f i GRPFile3DGGF.obj
 0001:000bab80       ??_E?$XVECTOR@PAVGGFSECTIONBUILDER@@@@UAEPAXI@Z 004bbb80 f i GRPFile3DGGF.obj
 0001:000bab80       ??_G?$XVECTOR@PAVGGFSECTIONBUILDER@@@@UAEPAXI@Z 004bbb80 f i GRPFile3DGGF.obj
 0001:000babb0       ??_G?$XVECTOR@PAVGRPANIMATIONCONTROL@@@@UAEPAXI@Z 004bbbb0 f i GRPFile3DGGF.obj
 0001:000babb0       ??_E?$XVECTOR@PAVGRPANIMATIONCONTROL@@@@UAEPAXI@Z 004bbbb0 f i GRPFile3DGGF.obj
 0001:000babe0       ??_G?$XVECTOR@PAVGRPOBJECT@@@@UAEPAXI@Z 004bbbe0 f i GRPFile3DGGF.obj
 0001:000babe0       ??_E?$XVECTOR@PAVGRPOBJECT@@@@UAEPAXI@Z 004bbbe0 f i GRPFile3DGGF.obj
 0001:000bac10       ??_E?$XVECTOR@PAVGRPSHADERPROGRAM@@@@UAEPAXI@Z 004bbc10 f i GRPFile3DGGF.obj
 0001:000bac10       ??_G?$XVECTOR@PAVGRPSHADERPROGRAM@@@@UAEPAXI@Z 004bbc10 f i GRPFile3DGGF.obj
 0001:000bac40       ??_E?$XVECTOR@PAVGRPUSERDATACONTAINER@@@@UAEPAXI@Z 004bbc40 f i GRPFile3DGGF.obj
 0001:000bac40       ??_G?$XVECTOR@PAVGRPUSERDATACONTAINER@@@@UAEPAXI@Z 004bbc40 f i GRPFile3DGGF.obj
 0001:000bac70       ??_E?$XVECTOR@W4GGF_SECTION_TYPE@@@@UAEPAXI@Z 004bbc70 f i GRPFile3DGGF.obj
 0001:000bac70       ??_G?$XVECTOR@W4GGF_SECTION_TYPE@@@@UAEPAXI@Z 004bbc70 f i GRPFile3DGGF.obj
 0001:000baca0       ??_GGGFSECTIONBLOCK@@QAEPAXI@Z 004bbca0 f i GRPFile3DGGF.obj
 0001:000bacd0       ??_GGRPANIMATIONCONTROL@@QAEPAXI@Z 004bbcd0 f i GRPFile3DGGF.obj
 0001:000bad10       ??_EGRPANIMATIONSTACKMILESTONE@@UAEPAXI@Z 004bbd10 f i GRPFile3DGGF.obj
 0001:000bad10       ??_GGRPANIMATIONSTACKMILESTONE@@UAEPAXI@Z 004bbd10 f i GRPFile3DGGF.obj
 0001:000bad60       ??_EGRPFILE3DGGF@@UAEPAXI@Z 004bbd60 f i GRPFile3DGGF.obj
 0001:000bad60       ??_GGRPFILE3DGGF@@UAEPAXI@Z 004bbd60 f i GRPFile3DGGF.obj
 0001:000bada0       ??_GOVERLAY@AI@@UAEPAXI@Z  004bbda0 f i GRPFile3DGGF.obj
 0001:000bada0       ??_EOVERLAY@AI@@UAEPAXI@Z  004bbda0 f i GRPFile3DGGF.obj
 0001:000badf0       ?Add@?$XMAP@II@@QAE_NII@Z  004bbdf0 f i GRPFile3DGGF.obj
 0001:000bae50       ?Add@?$XMAP@IPAVCOMMAND@AI@@@@QAE_NIPAVCOMMAND@AI@@@Z 004bbe50 f i GRPFile3DGGF.obj
 0001:000baeb0       ?Add@?$XMAP@W4GGF_SECTION_TYPE@@PAVGGFSECTIONBUILDER@@@@QAE_NW4GGF_SECTION_TYPE@@PAVGGFSECTIONBUILDER@@@Z 004bbeb0 f i GRPFile3DGGF.obj
 0001:000baf10       ?Add@?$XMAP@_JW4GGF_SECTION_TYPE@@@@QAE_N_JW4GGF_SECTION_TYPE@@@Z 004bbf10 f i GRPFile3DGGF.obj
 0001:000baf70       ?Add@?$XVECTOR@PAVCOMMAND@AI@@@@QAE_NPAVCOMMAND@AI@@@Z 004bbf70 f i GRPFile3DGGF.obj
 0001:000bb000       ?Add@?$XVECTOR@PAVGGFPROPERTY@@@@QAE_NPAVGGFPROPERTY@@@Z 004bc000 f i GRPFile3DGGF.obj
 0001:000bb090       ?Add@?$XVECTOR@PAVGGFSECTIONBLOCK@@@@QAE_NPAVGGFSECTIONBLOCK@@@Z 004bc090 f i GRPFile3DGGF.obj
 0001:000bb120       ?Add@?$XVECTOR@PAVGGFSECTIONBUILDER@@@@QAE_NPAVGGFSECTIONBUILDER@@@Z 004bc120 f i GRPFile3DGGF.obj
 0001:000bb1b0       ?Add@?$XVECTOR@PAVGRPANIMATIONCONTROL@@@@QAE_NPAVGRPANIMATIONCONTROL@@@Z 004bc1b0 f i GRPFile3DGGF.obj
 0001:000bb240       ?Add@?$XVECTOR@PAVGRPSHADERPROGRAM@@@@QAE_NPAVGRPSHADERPROGRAM@@@Z 004bc240 f i GRPFile3DGGF.obj
 0001:000bb2d0       ?Add@?$XVECTOR@PAVGRPUSERDATACONTAINER@@@@QAE_NPAVGRPUSERDATACONTAINER@@@Z 004bc2d0 f i GRPFile3DGGF.obj
 0001:000bb360       ?Add@?$XVECTOR@W4GGF_SECTION_TYPE@@@@QAE_NW4GGF_SECTION_TYPE@@@Z 004bc360 f i GRPFile3DGGF.obj
 0001:000bb3f0       ?Add@GRPOBJECT@@QAE_NPAVGRPELEMENT@@@Z 004bc3f0 f i GRPFile3DGGF.obj
 0001:000bb410       ?Attach@ANIMATION@AI@@QAE_NPAV12@@Z 004bc410 f i GRPFile3DGGF.obj
 0001:000bb430       ?ChangeToDefaultState@CONTROLLER@AI@@QAEXXZ 004bc430 f i GRPFile3DGGF.obj
 0001:000bb450       ?Clean@?$XVECTOR@PAVGGFPROPERTY@@@@AAEXXZ 004bc450 f i GRPFile3DGGF.obj
 0001:000bb490       ?Clean@?$XVECTOR@PAVGGFSECTIONBLOCK@@@@AAEXXZ 004bc490 f i GRPFile3DGGF.obj
 0001:000bb4d0       ?Clean@?$XVECTOR@PAVGGFSECTIONBUILDER@@@@AAEXXZ 004bc4d0 f i GRPFile3DGGF.obj
 0001:000bb510       ?Clean@?$XVECTOR@PAVGRPANIMATIONCONTROL@@@@AAEXXZ 004bc510 f i GRPFile3DGGF.obj
 0001:000bb550       ?Clean@?$XVECTOR@PAVGRPOBJECT@@@@AAEXXZ 004bc550 f i GRPFile3DGGF.obj
 0001:000bb590       ?Clean@?$XVECTOR@PAVGRPSHADERPROGRAM@@@@AAEXXZ 004bc590 f i GRPFile3DGGF.obj
 0001:000bb5d0       ?Clean@?$XVECTOR@PAVGRPUSERDATACONTAINER@@@@AAEXXZ 004bc5d0 f i GRPFile3DGGF.obj
 0001:000bb610       ?Clean@?$XVECTOR@W4GGF_SECTION_TYPE@@@@AAEXXZ 004bc610 f i GRPFile3DGGF.obj
 0001:000bb650       ?Clean@GRPANIMATIONSTACKMILESTONE@@EAEXXZ 004bc650 f i GRPFile3DGGF.obj
 0001:000bb720       ?Clean@GRPFILE3DGGF@@AAEXXZ 004bc720 f i GRPFile3DGGF.obj
 0001:000bb890       ?Clean@OVERLAY@AI@@EAEXXZ  004bc890 f i GRPFile3DGGF.obj
 0001:000bb8d0       ?Delete@?$XVECTOR@PAVGRPNODE@@@@QAE_NPAVGRPNODE@@@Z 004bc8d0 f i GRPFile3DGGF.obj
 0001:000bb940       ?Delete@?$XVECTOR@W4GGF_SECTION_TYPE@@@@QAE_NW4GGF_SECTION_TYPE@@@Z 004bc940 f i GRPFile3DGGF.obj
 0001:000bb9b0       ?Delete@?$XVECTOR@_J@@QAE_N_J@Z 004bc9b0 f i GRPFile3DGGF.obj
 0001:000bba40       ?DeleteAll@?$XMAP@W4GGF_SECTION_TYPE@@PAVGGFSECTIONBUILDER@@@@QAE_NXZ 004bca40 f i GRPFile3DGGF.obj
 0001:000bba70       ?DeleteAll@?$XVECTOR@PAVGGFPROPERTY@@@@QAE_NXZ 004bca70 f i GRPFile3DGGF.obj
 0001:000bbac0       ?DeleteAll@?$XVECTOR@PAVGGFSECTIONBLOCK@@@@QAE_NXZ 004bcac0 f i GRPFile3DGGF.obj
 0001:000bbb10       ?DeleteAll@?$XVECTOR@PAVGGFSECTIONBUILDER@@@@QAE_NXZ 004bcb10 f i GRPFile3DGGF.obj
 0001:000bbb60       ?DeleteAll@?$XVECTOR@PAVGRPANIMATIONCONTROL@@@@QAE_NXZ 004bcb60 f i GRPFile3DGGF.obj
 0001:000bbbb0       ?DeleteAll@?$XVECTOR@PAVGRPSHADERPROGRAM@@@@QAE_NXZ 004bcbb0 f i GRPFile3DGGF.obj
 0001:000bbc00       ?DeleteAll@?$XVECTOR@PAVGRPUSERDATACONTAINER@@@@QAE_NXZ 004bcc00 f i GRPFile3DGGF.obj
 0001:000bbc50       ?DeleteAll@?$XVECTOR@W4GGF_SECTION_TYPE@@@@QAE_NXZ 004bcc50 f i GRPFile3DGGF.obj
 0001:000bbca0       ?DeleteContents@?$XVECTOR@PAVGGFPROPERTY@@@@QAE_NXZ 004bcca0 f i GRPFile3DGGF.obj
 0001:000bbd20       ?DeleteContents@?$XVECTOR@PAVGGFSECTIONBLOCK@@@@QAE_NXZ 004bcd20 f i GRPFile3DGGF.obj
 0001:000bbdc0       ?DeleteContents@?$XVECTOR@PAVGGFSECTIONBUILDER@@@@QAE_NXZ 004bcdc0 f i GRPFile3DGGF.obj
 0001:000bbe40       ?DeleteContents@?$XVECTOR@PAVGRPANIMATIONCONTROL@@@@QAE_NXZ 004bce40 f i GRPFile3DGGF.obj
 0001:000bbee0       ?DeleteContents@?$XVECTOR@PAVGRPMATERIAL@@@@QAE_NXZ 004bcee0 f i GRPFile3DGGF.obj
 0001:000bbfa0       ?DeleteContents@?$XVECTOR@PAVGRPSHADERPROGRAM@@@@QAE_NXZ 004bcfa0 f i GRPFile3DGGF.obj
 0001:000bc040       ?DeleteContents@?$XVECTOR@PAVGRPTEXTURE@@@@QAE_NXZ 004bd040 f i GRPFile3DGGF.obj
 0001:000bc0e0       ?DeleteContents@?$XVECTOR@PAVGRPUSERDATACONTAINER@@@@QAE_NXZ 004bd0e0 f i GRPFile3DGGF.obj
 0001:000bc180       ?DeleteElementContents@?$XMAP@W4GGF_SECTION_TYPE@@PAVGGFSECTIONBUILDER@@@@QAE_NXZ 004bd180 f i GRPFile3DGGF.obj
 0001:000bc1a0       ?DeleteIndex@?$XVECTOR@PAVGRPANIMATIONNODE@@@@QAE_NH@Z 004bd1a0 f i GRPFile3DGGF.obj
 0001:000bc1f0       ?DeleteIndex@?$XVECTOR@PAVGRPNODE@@@@QAE_NH@Z 004bd1f0 f i GRPFile3DGGF.obj
 0001:000bc240       ?FastGet@?$XVECTOR@PAVANIMATION@AI@@@@QAEPAVANIMATION@AI@@H@Z 004bd240 f i GRPFile3DGGF.obj
 0001:000bc260       ?FastGet@?$XVECTOR@PAVGGFPROPERTY@@@@QAEPAVGGFPROPERTY@@H@Z 004bd260 f i GRPFile3DGGF.obj
 0001:000bc280       ?FastGet@?$XVECTOR@PAVGGFSECTIONBUILDER@@@@QAEPAVGGFSECTIONBUILDER@@H@Z 004bd280 f i GRPFile3DGGF.obj
 0001:000bc2a0       ?FastGet@?$XVECTOR@PAVGRPANIMATIONCONTROL@@@@QAEPAVGRPANIMATIONCONTROL@@H@Z 004bd2a0 f i GRPFile3DGGF.obj
 0001:000bc2c0       ?FastGet@?$XVECTOR@PAVGRPANIMATIONSTACKMILESTONE@@@@QAEPAVGRPANIMATIONSTACKMILESTONE@@H@Z 004bd2c0 f i GRPFile3DGGF.obj
 0001:000bc2e0       ?FastGet@?$XVECTOR@PAVGRPSHADERPROGRAM@@@@QAEPAVGRPSHADERPROGRAM@@H@Z 004bd2e0 f i GRPFile3DGGF.obj
 0001:000bc300       ?Find@?$XVECTOR@PAVGRPANIMATIONCURVE@@@@QAEHPAVGRPANIMATIONCURVE@@@Z 004bd300 f i GRPFile3DGGF.obj
 0001:000bc360       ?Find@?$XVECTOR@W4GGF_SECTION_TYPE@@@@QAEHW4GGF_SECTION_TYPE@@@Z 004bd360 f i GRPFile3DGGF.obj
 0001:000bc3c0       ?Get@?$XMAP@W4GGF_SECTION_TYPE@@PAVGGFSECTIONBUILDER@@@@QAEPAVGGFSECTIONBUILDER@@W4GGF_SECTION_TYPE@@@Z 004bd3c0 f i GRPFile3DGGF.obj
 0001:000bc410       ?Get@?$XVECTOR@PAVCOMMAND@AI@@@@QAEPAVCOMMAND@AI@@H@Z 004bd410 f i GRPFile3DGGF.obj
 0001:000bc450       ?Get@?$XVECTOR@PAVCONTROLLER@AI@@@@QAEPAVCONTROLLER@AI@@H@Z 004bd450 f i GRPFile3DGGF.obj
 0001:000bc490       ?Get@?$XVECTOR@PAVGGFPROPERTY@@@@QAEPAVGGFPROPERTY@@H@Z 004bd490 f i GRPFile3DGGF.obj
 0001:000bc4d0       ?Get@?$XVECTOR@PAVGGFSECTIONBLOCK@@@@QAEPAVGGFSECTIONBLOCK@@H@Z 004bd4d0 f i GRPFile3DGGF.obj
 0001:000bc510       ?Get@?$XVECTOR@PAVGRPFONT@@@@QAEPAVGRPFONT@@H@Z 004bd510 f i GRPFile3DGGF.obj
 0001:000bc550       ?Get@?$XVECTOR@PAVGRPLIGHT@@@@QAEPAVGRPLIGHT@@H@Z 004bd550 f i GRPFile3DGGF.obj
 0001:000bc590       ?Get@?$XVECTOR@PAVGRPMATERIAL@@@@QAEPAVGRPMATERIAL@@H@Z 004bd590 f i GRPFile3DGGF.obj
 0001:000bc5d0       ?Get@?$XVECTOR@PAVGRPMESH@@@@QAEPAVGRPMESH@@H@Z 004bd5d0 f i GRPFile3DGGF.obj
 0001:000bc610       ?Get@?$XVECTOR@PAVGRPOBJECT@@@@QAEPAVGRPOBJECT@@H@Z 004bd610 f i GRPFile3DGGF.obj
 0001:000bc650       ?Get@?$XVECTOR@PAVGRPSKINCLUSTER@@@@QAEPAVGRPSKINCLUSTER@@H@Z 004bd650 f i GRPFile3DGGF.obj
 0001:000bc690       ?Get@?$XVECTOR@PAVGRPSKINLIMB@@@@QAEPAVGRPSKINLIMB@@H@Z 004bd690 f i GRPFile3DGGF.obj
 0001:000bc6d0       ?Get@?$XVECTOR@PAVGRPSKINPOSE@@@@QAEPAVGRPSKINPOSE@@H@Z 004bd6d0 f i GRPFile3DGGF.obj
 0001:000bc710       ?Get@?$XVECTOR@PAVGRPTEXTURE@@@@QAEPAVGRPTEXTURE@@H@Z 004bd710 f i GRPFile3DGGF.obj
 0001:000bc750       ?Get@?$XVECTOR@PAVGRPUSERDATACONTAINER@@@@QAEPAVGRPUSERDATACONTAINER@@H@Z 004bd750 f i GRPFile3DGGF.obj
 0001:000bc790       ?Get@?$XVECTOR@PAVSTATE@AI@@@@QAEPAVSTATE@AI@@H@Z 004bd790 f i GRPFile3DGGF.obj
 0001:000bc7d0       ?Get@?$XVECTOR@W4GGF_SECTION_TYPE@@@@QAE?AW4GGF_SECTION_TYPE@@H@Z 004bd7d0 f i GRPFile3DGGF.obj
 0001:000bc810       ?Get@?$XVECTOR@W4GRPVERTEX_CHANNEL@@@@QAE?AW4GRPVERTEX_CHANNEL@@H@Z 004bd810 f i GRPFile3DGGF.obj
 0001:000bc850       ?GetAddInLimit@?$XVECTOR@PAVGGFSECTIONBLOCK@@@@QAEHXZ 004bd850 f i GRPFile3DGGF.obj
 0001:000bc870       ?GetAmbient@GRPLIGHT@@QAE?AVGRPCOLOR@@XZ 004bd870 f i GRPFile3DGGF.obj
 0001:000bc8b0       ?GetAmbient@GRPMATERIALATTRIBUTES@@QAEPAVGRPCOLOR@@XZ 004bd8b0 f i GRPFile3DGGF.obj
 0001:000bc8d0       ?GetBias@GRPLIGHT@@QAEMXZ  004bd8d0 f i GRPFile3DGGF.obj
 0001:000bc8f0       ?GetBlendingMode@GRPELEMENT@@QAE?AW4GRPBLENDINGMODE@@XZ 004bd8f0 f i GRPFile3DGGF.obj
 0001:000bc910       ?GetBuilders@GRPFILE3DGGF@@QAEPAV?$XMAP@W4GGF_SECTION_TYPE@@PAVGGFSECTIONBUILDER@@@@XZ 004bd910 f i GRPFile3DGGF.obj
 0001:000bc930       ?GetCameraType@GRPCAMERA@@QAE?AW4GRPCAMERA_TYPE@@XZ 004bd930 f i GRPFile3DGGF.obj
 0001:000bc950       ?GetCastsReflections@GRPELEMENT@@QAE_NXZ 004bd950 f i GRPFile3DGGF.obj
 0001:000bc970       ?GetCastsShadows@GRPELEMENT@@QAE_NXZ 004bd970 f i GRPFile3DGGF.obj
 0001:000bc990       ?GetClusters@GRPSKIN@@QAEPAV?$XVECTOR@PAVGRPSKINCLUSTER@@@@XZ 004bd990 f i GRPFile3DGGF.obj
 0001:000bc9b0       ?GetCommands@CONTROLLER@AI@@QAEPAV?$XMAP@IPAVCOMMAND@AI@@@@XZ 004bd9b0 f i GRPFile3DGGF.obj
 0001:000bc9d0       ?GetConstantAttenuation@GRPLIGHT@@QAEMXZ 004bd9d0 f i GRPFile3DGGF.obj
 0001:000bc9f0       ?GetControllers@LOGIC@AI@@QAEPAV?$XVECTOR@PAVCONTROLLER@AI@@@@XZ 004bd9f0 f i GRPFile3DGGF.obj
 0001:000bca10       ?GetCubicAttenuation@GRPLIGHT@@QAEMXZ 004bda10 f i GRPFile3DGGF.obj
 0001:000bca30       ?GetDefaultColor@GRPELEMENT@@QAEPAVGRPCOLOR@@XZ 004bda30 f i GRPFile3DGGF.obj
 0001:000bca50       ?GetDefaultState@CONTROLLER@AI@@QAEIXZ 004bda50 f i GRPFile3DGGF.obj
 0001:000bca70       ?GetDictionary@GRPFILE3DGGF@@QAEPAV?$XMAP@_JW4GGF_SECTION_TYPE@@@@XZ 004bda70 f i GRPFile3DGGF.obj
 0001:000bca90       ?GetDiffuse@GRPLIGHT@@QAE?AVGRPCOLOR@@XZ 004bda90 f i GRPFile3DGGF.obj
 0001:000bcad0       ?GetDiffuse@GRPMATERIALATTRIBUTES@@QAEPAVGRPCOLOR@@XZ 004bdad0 f i GRPFile3DGGF.obj
 0001:000bcaf0       ?GetDissolve@GRPMATERIALATTRIBUTES@@QAEMXZ 004bdaf0 f i GRPFile3DGGF.obj
 0001:000bcb10       ?GetElement@?$XMAP@IPAVCOMMAND@AI@@@@QAEPAVCOMMAND@AI@@H@Z 004bdb10 f i GRPFile3DGGF.obj
 0001:000bcb30       ?GetElement@?$XMAP@IPAVGRPTEXTURE@@@@QAEPAVGRPTEXTURE@@H@Z 004bdb30 f i GRPFile3DGGF.obj
 0001:000bcb50       ?GetElement@?$XMAP@IPAVSTATE@AI@@@@QAEPAVSTATE@AI@@H@Z 004bdb50 f i GRPFile3DGGF.obj
 0001:000bcb70       ?GetElement@?$XMAP@PAVXSTRING@@PAVGRPFONT@@@@QAEPAVGRPFONT@@H@Z 004bdb70 f i GRPFile3DGGF.obj
 0001:000bcb90       ?GetElement@?$XMAP@PAVXSTRING@@PAVGRPMATERIAL@@@@QAEPAVGRPMATERIAL@@H@Z 004bdb90 f i GRPFile3DGGF.obj
 0001:000bcbb0       ?GetElement@?$XMAP@PAVXSTRING@@PAVGRPTEXTURE@@@@QAEPAVGRPTEXTURE@@H@Z 004bdbb0 f i GRPFile3DGGF.obj
 0001:000bcbd0       ?GetElement@?$XMAP@_JW4GGF_SECTION_TYPE@@@@QAE?AW4GGF_SECTION_TYPE@@H@Z 004bdbd0 f i GRPFile3DGGF.obj
 0001:000bcbf0       ?GetEmission@GRPMATERIALATTRIBUTES@@QAEPAVGRPCOLOR@@XZ 004bdbf0 f i GRPFile3DGGF.obj
 0001:000bcc10       ?GetEyePosition@GRPCAMERA@@QAEPAVGRPVECTOR@@XZ 004bdc10 f i GRPFile3DGGF.obj
 0001:000bcc30       ?GetFile@GRPFONT@@QAEPAVXSTRING@@XZ 004bdc30 f i GRPFile3DGGF.obj
 0001:000bcc50       ?GetFileName@GRPTEXTURE@@QAEPAVXSTRING@@XZ 004bdc50 f i GRPFile3DGGF.obj
 0001:000bcc70       ?GetFonts@GRPFONTMANAGER@@QAEPAV?$XMAP@PAVXSTRING@@PAVGRPFONT@@@@XZ 004bdc70 f i GRPFile3DGGF.obj
 0001:000bcc90       ?GetGlossiness@GRPMATERIALATTRIBUTES@@QAEMXZ 004bdc90 f i GRPFile3DGGF.obj
 0001:000bccb0       ?GetHeight@GRPTEXTURE@@QAEMXZ 004bdcb0 f i GRPFile3DGGF.obj
 0001:000bccd0       ?GetID@GRPANIMATIONSTACK@@QAEIXZ 004bdcd0 f i GRPFile3DGGF.obj
 0001:000bccf0       ?GetInitialActive@GRPANIMATIONSTACK@@QAE_NXZ 004bdcf0 f i GRPFile3DGGF.obj
 0001:000bcd10       ?GetInitialStatus@OVERLAY@AI@@QAEIXZ 004bdd10 f i GRPFile3DGGF.obj
 0001:000bcd30       ?GetInnerSpot@GRPLIGHT@@QAEMXZ 004bdd30 f i GRPFile3DGGF.obj
 0001:000bcd50       ?GetIsCubeMap@GRPTEXTURE@@QAE_NXZ 004bdd50 f i GRPFile3DGGF.obj
 0001:000bcd70       ?GetKey@?$XMAP@IPAVGRPTEXTURE@@@@QAEIH@Z 004bdd70 f i GRPFile3DGGF.obj
 0001:000bcd90       ?GetKey@?$XMAP@_JW4GGF_SECTION_TYPE@@@@QAE_JH@Z 004bdd90 f i GRPFile3DGGF.obj
 0001:000bcdb0       ?GetLayertype@GRPTEXTURE@@QAE?AW4GRPTEXTURELAYERTYPE@@XZ 004bddb0 f i GRPFile3DGGF.obj
 0001:000bcdd0       ?GetLimbs@GRPSKINCLUSTER@@QAEPAV?$XVECTOR@PAVGRPSKINLIMB@@@@XZ 004bddd0 f i GRPFile3DGGF.obj
 0001:000bcdf0       ?GetLinearAttenuation@GRPLIGHT@@QAEMXZ 004bddf0 f i GRPFile3DGGF.obj
 0001:000bce10       ?GetLogic@GRPOBJECT@@QAEPAVLOGIC@AI@@XZ 004bde10 f i GRPFile3DGGF.obj
 0001:000bce30       ?GetLoopMode@GRPANIMATIONCONTROL@@QAE?AW4GRPANIMATIONLOOPMODE@@XZ 004bde30 f i GRPFile3DGGF.obj
 0001:000bce50       ?GetMultiplier@GRPLIGHT@@QAEMXZ 004bde50 f i GRPFile3DGGF.obj
 0001:000bce70       ?GetOuterSpot@GRPLIGHT@@QAEMXZ 004bde70 f i GRPFile3DGGF.obj
 0001:000bce90       ?GetOverlays@CONTROLLER@AI@@QAEPAV?$XMAP@IPAVOVERLAY@AI@@@@XZ 004bde90 f i GRPFile3DGGF.obj
 0001:000bceb0       ?GetPoses@GRPSKIN@@QAEPAV?$XVECTOR@PAVGRPSKINPOSE@@@@XZ 004bdeb0 f i GRPFile3DGGF.obj
 0001:000bced0       ?GetProperties@GRPFILE3DGGF@@QAEPAV?$XVECTOR@PAVGGFPROPERTY@@@@XZ 004bded0 f i GRPFile3DGGF.obj
 0001:000bcef0       ?GetQuadraticAttenuation@GRPLIGHT@@QAEMXZ 004bdef0 f i GRPFile3DGGF.obj
 0001:000bcf10       ?GetReceivesReflections@GRPELEMENT@@QAE_NXZ 004bdf10 f i GRPFile3DGGF.obj
 0001:000bcf30       ?GetReceivesShadows@GRPELEMENT@@QAE_NXZ 004bdf30 f i GRPFile3DGGF.obj
 0001:000bcf50       ?GetRotation@GRPNODE@@QAEPBVGRPVECTOR@@XZ 004bdf50 f i GRPFile3DGGF.obj
 0001:000bcf70       ?GetScaleFactor@GRPLIGHT@@QAEMXZ 004bdf70 f i GRPFile3DGGF.obj
 0001:000bcf90       ?GetShadowQuality@GRPLIGHT@@QAEMXZ 004bdf90 f i GRPFile3DGGF.obj
 0001:000bcfb0       ?GetShininess@GRPMATERIALATTRIBUTES@@QAEMXZ 004bdfb0 f i GRPFile3DGGF.obj
 0001:000bcfd0       ?GetShininessFactor@GRPMATERIALATTRIBUTES@@QAEMXZ 004bdfd0 f i GRPFile3DGGF.obj
 0001:000bcff0       ?GetSize@?$XMAP@IPAVCOMMAND@AI@@@@QAEIXZ 004bdff0 f i GRPFile3DGGF.obj
 0001:000bd010       ?GetSize@?$XMAP@IPAVSTATE@AI@@@@QAEIXZ 004be010 f i GRPFile3DGGF.obj
 0001:000bd030       ?GetSize@?$XMAP@PAVXSTRING@@PAVGRPFONT@@@@QAEIXZ 004be030 f i GRPFile3DGGF.obj
 0001:000bd050       ?GetSize@?$XMAP@PAVXSTRING@@PAVGRPMATERIAL@@@@QAEIXZ 004be050 f i GRPFile3DGGF.obj
 0001:000bd070       ?GetSize@?$XMAP@PAVXSTRING@@PAVGRPTEXTURE@@@@QAEIXZ 004be070 f i GRPFile3DGGF.obj
 0001:000bd090       ?GetSize@?$XMAP@_JW4GGF_SECTION_TYPE@@@@QAEIXZ 004be090 f i GRPFile3DGGF.obj
 0001:000bd0b0       ?GetSize@?$XVECTOR@PAVGGFPROPERTY@@@@QAEIXZ 004be0b0 f i GRPFile3DGGF.obj
 0001:000bd0d0       ?GetSize@?$XVECTOR@PAVGGFSECTIONBLOCK@@@@QAEIXZ 004be0d0 f i GRPFile3DGGF.obj
 0001:000bd0f0       ?GetSize@?$XVECTOR@PAVGRPANIMATIONSTACK@@@@QAEIXZ 004be0f0 f i GRPFile3DGGF.obj
 0001:000bd110       ?GetSize@?$XVECTOR@PAVGRPLIGHT@@@@QAEIXZ 004be110 f i GRPFile3DGGF.obj
 0001:000bd130       ?GetSize@?$XVECTOR@PAVGRPMATERIAL@@@@QAEIXZ 004be130 f i GRPFile3DGGF.obj
 0001:000bd150       ?GetSize@?$XVECTOR@PAVGRPMESH@@@@QAEIXZ 004be150 f i GRPFile3DGGF.obj
 0001:000bd170       ?GetSize@?$XVECTOR@PAVGRPOBJECT@@@@QAEIXZ 004be170 f i GRPFile3DGGF.obj
 0001:000bd190       ?GetSize@?$XVECTOR@PAVGRPSHADERPROGRAM@@@@QAEIXZ 004be190 f i GRPFile3DGGF.obj
 0001:000bd1b0       ?GetSize@?$XVECTOR@PAVGRPSKINCLUSTER@@@@QAEIXZ 004be1b0 f i GRPFile3DGGF.obj
 0001:000bd1d0       ?GetSize@?$XVECTOR@PAVGRPSKINLIMB@@@@QAEIXZ 004be1d0 f i GRPFile3DGGF.obj
 0001:000bd1f0       ?GetSize@?$XVECTOR@PAVGRPSKINPOSE@@@@QAEIXZ 004be1f0 f i GRPFile3DGGF.obj
 0001:000bd210       ?GetSize@?$XVECTOR@PAVGRPSUBDEFORMER@@@@QAEIXZ 004be210 f i GRPFile3DGGF.obj
 0001:000bd230       ?GetSize@?$XVECTOR@PAVGRPTEXTURE@@@@QAEIXZ 004be230 f i GRPFile3DGGF.obj
 0001:000bd250       ?GetSize@?$XVECTOR@PAVGRPUSERDATACONTAINER@@@@QAEIXZ 004be250 f i GRPFile3DGGF.obj
 0001:000bd270       ?GetSize@?$XVECTOR@W4GGF_SECTION_TYPE@@@@QAEIXZ 004be270 f i GRPFile3DGGF.obj
 0001:000bd290       ?GetSpecular@GRPLIGHT@@QAE?AVGRPCOLOR@@XZ 004be290 f i GRPFile3DGGF.obj
 0001:000bd2d0       ?GetSpecular@GRPMATERIALATTRIBUTES@@QAEPAVGRPCOLOR@@XZ 004be2d0 f i GRPFile3DGGF.obj
 0001:000bd2f0       ?GetSpecularFactor@GRPMATERIALATTRIBUTES@@QAEMXZ 004be2f0 f i GRPFile3DGGF.obj
 0001:000bd310       ?GetStrength@GRPLIGHT@@QAEMXZ 004be310 f i GRPFile3DGGF.obj
 0001:000bd330       ?GetSubjectType@GRPANIMATIONSTACKMILESTONE@@UAEIXZ 004be330 f i GRPFile3DGGF.obj
 0001:000bd340       ?GetSubjectType@OVERLAY@AI@@UAEIXZ 004be340 f i GRPFile3DGGF.obj
 0001:000bd350       ?GetTextures@GRPMATERIALLIBRARY@@QAEPAV?$XMAP@PAVXSTRING@@PAVGRPTEXTURE@@@@XZ 004be350 f i GRPFile3DGGF.obj
 0001:000bd370       ?GetType@GRPLIGHT@@QAE?AW4GRPLIGHTTYPE@@XZ 004be370 f i GRPFile3DGGF.obj
 0001:000bd390       ?GetUpVector@GRPCAMERA@@QAEPAVGRPVECTOR@@XZ 004be390 f i GRPFile3DGGF.obj
 0001:000bd3b0       ?GetWidth@GRPTEXTURE@@QAEMXZ 004be3b0 f i GRPFile3DGGF.obj
 0001:000bd3d0       ?Getinterestposition@GRPCAMERA@@QAEPAVGRPVECTOR@@XZ 004be3d0 f i GRPFile3DGGF.obj
 0001:000bd3f0       ?Insert@?$XVECTOR@PAVGGFSECTIONBLOCK@@@@QAE_NIPAVGGFSECTIONBLOCK@@@Z 004be3f0 f i GRPFile3DGGF.obj
 0001:000bd480       ?Insert@?$XVECTOR@PAVGRPNODE@@@@QAE_NIPAVGRPNODE@@@Z 004be480 f i GRPFile3DGGF.obj
 0001:000bd510       ?OnDisable@GRPANIMATIONSTACKMILESTONE@@UAEX_N@Z 004be510 f i GRPFile3DGGF.obj
 0001:000bd520       ?ResizeAdd@?$XVECTOR@PAVCOMMAND@AI@@@@AAE_NXZ 004be520 f i GRPFile3DGGF.obj
 0001:000bd5e0       ?ResizeAdd@?$XVECTOR@PAVGGFPROPERTY@@@@AAE_NXZ 004be5e0 f i GRPFile3DGGF.obj
 0001:000bd6a0       ?ResizeAdd@?$XVECTOR@PAVGGFSECTIONBLOCK@@@@AAE_NXZ 004be6a0 f i GRPFile3DGGF.obj
 0001:000bd760       ?ResizeAdd@?$XVECTOR@PAVGGFSECTIONBUILDER@@@@AAE_NXZ 004be760 f i GRPFile3DGGF.obj
 0001:000bd820       ?ResizeAdd@?$XVECTOR@PAVGRPANIMATIONCONTROL@@@@AAE_NXZ 004be820 f i GRPFile3DGGF.obj
 0001:000bd8e0       ?ResizeAdd@?$XVECTOR@PAVGRPSHADERPROGRAM@@@@AAE_NXZ 004be8e0 f i GRPFile3DGGF.obj
 0001:000bd9a0       ?ResizeAdd@?$XVECTOR@PAVGRPUSERDATACONTAINER@@@@AAE_NXZ 004be9a0 f i GRPFile3DGGF.obj
 0001:000bda60       ?ResizeAdd@?$XVECTOR@W4GGF_SECTION_TYPE@@@@AAE_NXZ 004bea60 f i GRPFile3DGGF.obj
 0001:000bdb20       ?ResizeRemove@?$XVECTOR@PAVGRPNODE@@@@AAE_NI@Z 004beb20 f i GRPFile3DGGF.obj
 0001:000bdb90       ?ResizeRemove@?$XVECTOR@W4GGF_SECTION_TYPE@@@@AAE_NI@Z 004beb90 f i GRPFile3DGGF.obj
 0001:000bdc00       ?ResizeRemove@?$XVECTOR@_J@@AAE_NI@Z 004bec00 f i GRPFile3DGGF.obj
 0001:000bdc70       ?Set@?$XVECTOR@PAVGGFSECTIONBLOCK@@@@QAE_NHPAVGGFSECTIONBLOCK@@@Z 004bec70 f i GRPFile3DGGF.obj
 0001:000bdcb0       ?Set@?$XVECTOR@PAVGRPNODE@@@@QAE_NHPAVGRPNODE@@@Z 004becb0 f i GRPFile3DGGF.obj
 0001:000bdcf0       ?SetAddInLimit@?$XMAP@IPAVGRPANIMATIONCURVE@@@@QAE_NH@Z 004becf0 f i GRPFile3DGGF.obj
 0001:000bdd20       ?SetAddInLimit@?$XMAP@IPAVGRPANIMATIONSTACK@@@@QAE_NH@Z 004bed20 f i GRPFile3DGGF.obj
 0001:000bdd50       ?SetAddInLimit@?$XMAP@_JW4GGF_SECTION_TYPE@@@@QAE_NH@Z 004bed50 f i GRPFile3DGGF.obj
 0001:000bdd80       ?SetAddInLimit@?$XVECTOR@PAVGGFPROPERTY@@@@QAEXH@Z 004bed80 f i GRPFile3DGGF.obj
 0001:000bddb0       ?SetAddInLimit@?$XVECTOR@PAVGGFSECTIONBLOCK@@@@QAEXH@Z 004bedb0 f i GRPFile3DGGF.obj
 0001:000bdde0       ?SetAddInLimit@?$XVECTOR@PAVGRPANIMATIONCURVE@@@@QAEXH@Z 004bede0 f i GRPFile3DGGF.obj
 0001:000bde10       ?SetAddInLimit@?$XVECTOR@PAVGRPANIMATIONLAYER@@@@QAEXH@Z 004bee10 f i GRPFile3DGGF.obj
 0001:000bde40       ?SetAddInLimit@?$XVECTOR@PAVGRPANIMATIONNODE@@@@QAEXH@Z 004bee40 f i GRPFile3DGGF.obj
 0001:000bde70       ?SetAddInLimit@?$XVECTOR@PAVGRPANIMATIONSTACK@@@@QAEXH@Z 004bee70 f i GRPFile3DGGF.obj
 0001:000bdea0       ?SetAddInLimit@?$XVECTOR@PAVGRPANIMATIONSTACKMILESTONE@@@@QAEXH@Z 004beea0 f i GRPFile3DGGF.obj
 0001:000bded0       ?SetAddInLimit@?$XVECTOR@W4GGF_SECTION_TYPE@@@@QAEXH@Z 004beed0 f i GRPFile3DGGF.obj
 0001:000bdf00       ?SetAddInLimit@?$XVECTOR@W4GRPVERTEX_CHANNEL@@@@QAEXH@Z 004bef00 f i GRPFile3DGGF.obj
 0001:000bdf30       ?SetAmbient@GRPLIGHT@@QAEXVGRPCOLOR@@@Z 004bef30 f i GRPFile3DGGF.obj
 0001:000bdfb0       ?SetAspect@GRPCAMERA@@QAEXMM@Z 004befb0 f i GRPFile3DGGF.obj
 0001:000bdfe0       ?SetBias@GRPLIGHT@@QAEXM@Z 004befe0 f i GRPFile3DGGF.obj
 0001:000be000       ?SetCastsReflections@GRPELEMENT@@QAEX_N@Z 004bf000 f i GRPFile3DGGF.obj
 0001:000be020       ?SetCastsShadows@GRPELEMENT@@QAEX_N@Z 004bf020 f i GRPFile3DGGF.obj
 0001:000be040       ?SetConstantAttenuation@GRPLIGHT@@QAEXM@Z 004bf040 f i GRPFile3DGGF.obj
 0001:000be060       ?SetCubicAttenuation@GRPLIGHT@@QAEXM@Z 004bf060 f i GRPFile3DGGF.obj
 0001:000be080       ?SetDefaultState@CONTROLLER@AI@@QAEXI@Z 004bf080 f i GRPFile3DGGF.obj
 0001:000be0a0       ?SetDissolve@GRPMATERIALATTRIBUTES@@QAEXM@Z 004bf0a0 f i GRPFile3DGGF.obj
 0001:000be0d0       ?SetEyePosition@GRPCAMERA@@QAEXMMM@Z 004bf0d0 f i GRPFile3DGGF.obj
 0001:000be150       ?SetFilm@GRPCAMERA@@QAEXMM@Z 004bf150 f i GRPFile3DGGF.obj
 0001:000be180       ?SetGlossiness@GRPMATERIALATTRIBUTES@@QAEXM@Z 004bf180 f i GRPFile3DGGF.obj
 0001:000be1b0       ?SetID@OVERLAY@AI@@QAEXI@Z 004bf1b0 f i GRPFile3DGGF.obj
 0001:000be1d0       ?SetInitialActive@GRPANIMATIONSTACK@@QAEX_N@Z 004bf1d0 f i GRPFile3DGGF.obj
 0001:000be1f0       ?SetIsCubeMap@GRPTEXTURE@@QAEX_N@Z 004bf1f0 f i GRPFile3DGGF.obj
 0001:000be210       ?SetIsInstance@GRPELEMENT@@QAEX_N@Z 004bf210 f i GRPFile3DGGF.obj
 0001:000be230       ?SetIsMulti@?$XMAP@II@@QAEX_N@Z 004bf230 f i GRPFile3DGGF.obj
 0001:000be260       ?SetIsMulti@?$XMAP@W4GGF_SECTION_TYPE@@I@@QAEX_N@Z 004bf260 f i GRPFile3DGGF.obj
 0001:000be290       ?SetIsMulti@?$XMAP@W4GGF_SECTION_TYPE@@PAVGGFSECTIONBUILDER@@@@QAEX_N@Z 004bf290 f i GRPFile3DGGF.obj
 0001:000be2c0       ?SetIsMulti@?$XMAP@_JW4GGF_SECTION_TYPE@@@@QAEX_N@Z 004bf2c0 f i GRPFile3DGGF.obj
 0001:000be2f0       ?SetIsMulti@?$XMAP@_J_J@@QAEX_N@Z 004bf2f0 f i GRPFile3DGGF.obj
 0001:000be320       ?SetIsMulti@?$XVECTOR@PAVGGFSECTIONBUILDER@@@@QAEX_N@Z 004bf320 f i GRPFile3DGGF.obj
 0001:000be340       ?SetIsMulti@?$XVECTOR@PAVGRPANIMATIONSTACKMILESTONE@@@@QAEX_N@Z 004bf340 f i GRPFile3DGGF.obj
 0001:000be360       ?SetIsMulti@?$XVECTOR@W4GGF_SECTION_TYPE@@@@QAEX_N@Z 004bf360 f i GRPFile3DGGF.obj
 0001:000be380       ?SetLinearAttenuation@GRPLIGHT@@QAEXM@Z 004bf380 f i GRPFile3DGGF.obj
 0001:000be3a0       ?SetLogic@GRPOBJECT@@QAEXPAVLOGIC@AI@@@Z 004bf3a0 f i GRPFile3DGGF.obj
 0001:000be3c0       ?SetOwner@CONTROLLER@AI@@QAEXPAVGRPOBJECT@@@Z 004bf3c0 f i GRPFile3DGGF.obj
 0001:000be3e0       ?SetQuadraticAttenuation@GRPLIGHT@@QAEXM@Z 004bf3e0 f i GRPFile3DGGF.obj
 0001:000be400       ?SetReceivesReflections@GRPELEMENT@@QAEX_N@Z 004bf400 f i GRPFile3DGGF.obj
 0001:000be420       ?SetReceivesShadows@GRPELEMENT@@QAEX_N@Z 004bf420 f i GRPFile3DGGF.obj
 0001:000be440       ?SetShadowQuality@GRPLIGHT@@QAEXM@Z 004bf440 f i GRPFile3DGGF.obj
 0001:000be460       ?SetShininessFactor@GRPMATERIALATTRIBUTES@@QAEXM@Z 004bf460 f i GRPFile3DGGF.obj
 0001:000be490       ?SetSpecular@GRPLIGHT@@QAEXVGRPCOLOR@@@Z 004bf490 f i GRPFile3DGGF.obj
 0001:000be510       ?SetUpVector@GRPCAMERA@@QAEXMMM@Z 004bf510 f i GRPFile3DGGF.obj
 0001:000be590       ?Setinterestposition@GRPCAMERA@@QAEXMMM@Z 004bf590 f i GRPFile3DGGF.obj
 0001:000be610       ?Load@GRPFILE3DOBJ@@MAEPAVGRPOBJECT@@PA_W@Z 004bf610 f   GRPFile3DOBJ.obj
 0001:000bfc80       ?LoadMtl@GRPFILE3DOBJ@@IAE_NPA_WPAVXPATH@@@Z 004c0c80 f   GRPFile3DOBJ.obj
 0001:000c0760       ?AddLayer@GRPMATERIAL@@QAEXPAVGRPTEXTURE@@@Z 004c1760 f i GRPFile3DOBJ.obj
 0001:000c0790       ?SetIsIlluminated@GRPMATERIALATTRIBUTES@@QAEX_N@Z 004c1790 f i GRPFile3DOBJ.obj
 0001:000c07b0       ?Load@GRPFILE3DXML@@UAEPAVGRPOBJECT@@PA_W@Z 004c17b0 f   GRPFile3DXML.obj
 0001:000c0da0       ?Release@GRPFILE3DXML@@IAEXXZ 004c1da0 f   GRPFile3DXML.obj
 0001:000c0fd0       ?ParseFile@GRPFILE3DXML@@IAE_NXZ 004c1fd0 f   GRPFile3DXML.obj
 0001:000c1440       ?ProcessHead@GRPFILE3DXML@@IAE_NPAVXFILEXMLELEMENT@@@Z 004c2440 f   GRPFile3DXML.obj
 0001:000c1660       ?ProcessConfig@GRPFILE3DXML@@IAE_NPAVXFILEXMLELEMENT@@@Z 004c2660 f   GRPFile3DXML.obj
 0001:000c1dc0       ?ProcessDefinitions@GRPFILE3DXML@@IAE_NPAVXFILEXMLELEMENT@@@Z 004c2dc0 f   GRPFile3DXML.obj
 0001:000c1fd0       ?ProcessData@GRPFILE3DXML@@IAE_NPAVXFILEXMLELEMENT@@@Z 004c2fd0 f   GRPFile3DXML.obj
 0001:000c20c0       ?ProcessColors@GRPFILE3DXML@@IAE_NPAVXFILEXMLELEMENT@@@Z 004c30c0 f   GRPFile3DXML.obj
 0001:000c2330       ?ProcessVariables@GRPFILE3DXML@@IAE_NPAVXFILEXMLELEMENT@@@Z 004c3330 f   GRPFile3DXML.obj
 0001:000c26f0       ?ProcessStrings@GRPFILE3DXML@@IAE_NPAVXFILEXMLELEMENT@@@Z 004c36f0 f   GRPFile3DXML.obj
 0001:000c28b0       ?ProcessLenguage@GRPFILE3DXML@@IAE_NPAVXFILEXMLELEMENT@@PAVLANGUAGE@1@@Z 004c38b0 f   GRPFile3DXML.obj
 0001:000c2a40       ?ProcessLayers@GRPFILE3DXML@@IAE_NPAVXFILEXMLELEMENT@@@Z 004c3a40 f   GRPFile3DXML.obj
 0001:000c3180       ?ProcessStates@GRPFILE3DXML@@IAE_NPAVXFILEXMLELEMENT@@@Z 004c4180 f   GRPFile3DXML.obj
 0001:000c35c0       ?ProcessAnimations@GRPFILE3DXML@@IAE_NPAVXFILEXMLELEMENT@@PAVSTATE@AI@@@Z 004c45c0 f   GRPFile3DXML.obj
 0001:000c3ba0       ?ProcessTransitions@GRPFILE3DXML@@IAE_NPAVXFILEXMLELEMENT@@PAVSTATE@AI@@@Z 004c4ba0 f   GRPFile3DXML.obj
 0001:000c3c90       ?ProcessMilestones@GRPFILE3DXML@@IAE_NPAVXFILEXMLELEMENT@@@Z 004c4c90 f   GRPFile3DXML.obj
 0001:000c4050       ?ProcessOverlays@GRPFILE3DXML@@IAE_NPAVXFILEXMLELEMENT@@@Z 004c5050 f   GRPFile3DXML.obj
 0001:000c44c0       ?ProcessTexts@GRPFILE3DXML@@IAE_NPAVXFILEXMLELEMENT@@@Z 004c54c0 f   GRPFile3DXML.obj
 0001:000c4c90       ?ProcessCommands@GRPFILE3DXML@@IAE_NPAVXFILEXMLELEMENT@@@Z 004c5c90 f   GRPFile3DXML.obj
 0001:000c4f50       ?ProcessCommandChangeState@GRPFILE3DXML@@IAE_NPAVXFILEXMLELEMENT@@PAVCOMMAND@AI@@@Z 004c5f50 f   GRPFile3DXML.obj
 0001:000c4fa0       ?ProcessCommandPushState@GRPFILE3DXML@@IAE_NPAVXFILEXMLELEMENT@@PAVCOMMAND@AI@@@Z 004c5fa0 f   GRPFile3DXML.obj
 0001:000c4ff0       ?ProcessCommandChangeOverlay@GRPFILE3DXML@@IAE_NPAVXFILEXMLELEMENT@@PAVCOMMAND@AI@@@Z 004c5ff0 f   GRPFile3DXML.obj
 0001:000c51c0       ?ProcessCommandAlterProperty@GRPFILE3DXML@@IAE_NPAVXFILEXMLELEMENT@@PAVCOMMAND@AI@@@Z 004c61c0 f   GRPFile3DXML.obj
 0001:000c5630       ?ProcessAudio@GRPFILE3DXML@@IAE_NPAVXFILEXMLELEMENT@@@Z 004c6630 f   GRPFile3DXML.obj
 0001:000c5850       ?ProcessMedia@GRPFILE3DXML@@IAE_NPAVXFILEXMLELEMENT@@@Z 004c6850 f   GRPFile3DXML.obj
 0001:000c5940       ?ProcessPlaylist@GRPFILE3DXML@@IAE_NPAVXFILEXMLELEMENT@@AAVXSTRING@@@Z 004c6940 f   GRPFile3DXML.obj
 0001:000c5c10       ?ProcessSound@GRPFILE3DXML@@IAE_NPAVXFILEXMLELEMENT@@@Z 004c6c10 f   GRPFile3DXML.obj
 0001:000c63c0       ?ApplyConfig@GRPFILE3DXML@@IAE_NXZ 004c73c0 f   GRPFile3DXML.obj
 0001:000c65a0       ?LoadModel@GRPFILE3DXML@@IAE_NXZ 004c75a0 f   GRPFile3DXML.obj
 0001:000c6c20       ?LoadLayers@GRPFILE3DXML@@IAE_NXZ 004c7c20 f   GRPFile3DXML.obj
 0001:000c7170       ?LoadSounds@GRPFILE3DXML@@IAE_NXZ 004c8170 f   GRPFile3DXML.obj
 0001:000c7790       ?LoadOverlays@GRPFILE3DXML@@IAE_NXZ 004c8790 f   GRPFile3DXML.obj
 0001:000c79d0       ?LoadLanguages@GRPFILE3DXML@@IAE_NXZ 004c89d0 f   GRPFile3DXML.obj
 0001:000c7ae0       ?GetValueByDefinition@GRPFILE3DXML@@IAEHPA_W@Z 004c8ae0 f   GRPFile3DXML.obj
 0001:000c7b70       ?Abort@GRPFILE3DXML@@MAEXXZ 004c8b70 f   GRPFile3DXML.obj
 0001:000c7b90       ?Output@GRPFILE3DXML@@IAAXIPA_WZZ 004c8b90 f   GRPFile3DXML.obj
 0001:000c7c60       ??0?$XVECTOR@PAVMILESTONE@GRPFILE3DXML@@@@QAE@XZ 004c8c60 f i GRPFile3DXML.obj
 0001:000c7c80       ??0DATA@GRPFILE3DXML@@QAE@XZ 004c8c80 f i GRPFile3DXML.obj
 0001:000c7ca0       ??0FONT@GRPFILE3DXML@@QAE@XZ 004c8ca0 f i GRPFile3DXML.obj
 0001:000c7d10       ??0LANGUAGE@GRPFILE3DXML@@QAE@XZ 004c8d10 f i GRPFile3DXML.obj
 0001:000c7d70       ??0LAYER@GRPFILE3DXML@@QAE@XZ 004c8d70 f i GRPFile3DXML.obj
 0001:000c7df0       ??0LIGHT@GRPFILE3DXML@@QAE@XZ 004c8df0 f i GRPFile3DXML.obj
 0001:000c7e10       ??0MEDIA@GRPFILE3DXML@@QAE@XZ 004c8e10 f i GRPFile3DXML.obj
 0001:000c7e80       ??0MILESTONE@GRPFILE3DXML@@QAE@XZ 004c8e80 f i GRPFile3DXML.obj
 0001:000c7ea0       ??0OVERLAY@GRPFILE3DXML@@QAE@XZ 004c8ea0 f i GRPFile3DXML.obj
 0001:000c7f10       ??0SOUND@GRPFILE3DXML@@QAE@XZ 004c8f10 f i GRPFile3DXML.obj
 0001:000c7f90       ??0TEXTBOX@GRPFILE3DXML@@QAE@XZ 004c8f90 f i GRPFile3DXML.obj
 0001:000c8040       ??0XVARIANT@@QAE@XZ        004c9040 f i GRPFile3DXML.obj
 0001:000c8060       ??1?$XVECTOR@PAVMILESTONE@GRPFILE3DXML@@@@UAE@XZ 004c9060 f i GRPFile3DXML.obj
 0001:000c80b0       ??1COMMAND@GRPFILE3DXML@@QAE@XZ 004c90b0 f i GRPFile3DXML.obj
 0001:000c80d0       ??1DATA@GRPFILE3DXML@@QAE@XZ 004c90d0 f i GRPFile3DXML.obj
 0001:000c80f0       ??1FONT@GRPFILE3DXML@@QAE@XZ 004c90f0 f i GRPFile3DXML.obj
 0001:000c8120       ??1LANGUAGE@GRPFILE3DXML@@QAE@XZ 004c9120 f i GRPFile3DXML.obj
 0001:000c8190       ??1LAYER@GRPFILE3DXML@@QAE@XZ 004c9190 f i GRPFile3DXML.obj
 0001:000c8210       ??1LIGHT@GRPFILE3DXML@@QAE@XZ 004c9210 f i GRPFile3DXML.obj
 0001:000c8230       ??1MEDIA@GRPFILE3DXML@@QAE@XZ 004c9230 f i GRPFile3DXML.obj
 0001:000c8260       ??1MILESTONE@GRPFILE3DXML@@QAE@XZ 004c9260 f i GRPFile3DXML.obj
 0001:000c8280       ??1OVERLAY@GRPFILE3DXML@@QAE@XZ 004c9280 f i GRPFile3DXML.obj
 0001:000c82f0       ??1SOUND@GRPFILE3DXML@@QAE@XZ 004c92f0 f i GRPFile3DXML.obj
 0001:000c8330       ??1TEXTBOX@GRPFILE3DXML@@QAE@XZ 004c9330 f i GRPFile3DXML.obj
 0001:000c8390       ??_E?$XVECTOR@PAVMILESTONE@GRPFILE3DXML@@@@UAEPAXI@Z 004c9390 f i GRPFile3DXML.obj
 0001:000c8390       ??_G?$XVECTOR@PAVMILESTONE@GRPFILE3DXML@@@@UAEPAXI@Z 004c9390 f i GRPFile3DXML.obj
 0001:000c83c0       ??_GCOMMAND@GRPFILE3DXML@@QAEPAXI@Z 004c93c0 f i GRPFile3DXML.obj
 0001:000c83f0       ??_GFONT@GRPFILE3DXML@@QAEPAXI@Z 004c93f0 f i GRPFile3DXML.obj
 0001:000c8420       ??_GLANGUAGE@GRPFILE3DXML@@QAEPAXI@Z 004c9420 f i GRPFile3DXML.obj
 0001:000c8450       ??_GLAYER@GRPFILE3DXML@@QAEPAXI@Z 004c9450 f i GRPFile3DXML.obj
 0001:000c8490       ??_GLIGHT@GRPFILE3DXML@@QAEPAXI@Z 004c9490 f i GRPFile3DXML.obj
 0001:000c84c0       ??_GMEDIA@GRPFILE3DXML@@QAEPAXI@Z 004c94c0 f i GRPFile3DXML.obj
 0001:000c84f0       ??_GMILESTONE@GRPFILE3DXML@@QAEPAXI@Z 004c94f0 f i GRPFile3DXML.obj
 0001:000c8520       ??_GOVERLAY@GRPFILE3DXML@@QAEPAXI@Z 004c9520 f i GRPFile3DXML.obj
 0001:000c8550       ??_GSOUND@GRPFILE3DXML@@QAEPAXI@Z 004c9550 f i GRPFile3DXML.obj
 0001:000c8590       ??_GTEXTBOX@GRPFILE3DXML@@QAEPAXI@Z 004c9590 f i GRPFile3DXML.obj
 0001:000c85d0       ??_GXVARIANT@@UAEPAXI@Z    004c95d0 f i GRPFile3DXML.obj
 0001:000c85d0       ??_EXVARIANT@@UAEPAXI@Z    004c95d0 f i GRPFile3DXML.obj
 0001:000c8600       ?Add@?$XMAP@IPAVLAYER@GRPFILE3DXML@@@@QAE_NIPAVLAYER@GRPFILE3DXML@@@Z 004c9600 f i GRPFile3DXML.obj
 0001:000c8660       ?Add@?$XMAP@IPAVMEDIA@GRPFILE3DXML@@@@QAE_NIPAVMEDIA@GRPFILE3DXML@@@Z 004c9660 f i GRPFile3DXML.obj
 0001:000c86c0       ?Add@?$XMAP@IPAVOVERLAY@GRPFILE3DXML@@@@QAE_NIPAVOVERLAY@GRPFILE3DXML@@@Z 004c96c0 f i GRPFile3DXML.obj
 0001:000c8720       ?Add@?$XMAP@IPAVXVARIANT@@@@QAE_NIPAVXVARIANT@@@Z 004c9720 f i GRPFile3DXML.obj
 0001:000c8780       ?Add@?$XMAP@PAVXSTRING@@I@@QAE_NPAVXSTRING@@I@Z 004c9780 f i GRPFile3DXML.obj
 0001:000c87e0       ?Add@?$XMAP@PAVXSTRING@@PAVFONT@GRPFILE3DXML@@@@QAE_NPAVXSTRING@@PAVFONT@GRPFILE3DXML@@@Z 004c97e0 f i GRPFile3DXML.obj
 0001:000c8840       ?Add@?$XMAP@PAVXSTRING@@PAVLANGUAGE@GRPFILE3DXML@@@@QAE_NPAVXSTRING@@PAVLANGUAGE@GRPFILE3DXML@@@Z 004c9840 f i GRPFile3DXML.obj
 0001:000c88a0       ?Add@?$XMAP@PAVXSTRING@@PAVLIGHT@GRPFILE3DXML@@@@QAE_NPAVXSTRING@@PAVLIGHT@GRPFILE3DXML@@@Z 004c98a0 f i GRPFile3DXML.obj
 0001:000c8900       ?Add@?$XMAP@PAVXSTRING@@PAVTEXTBOX@GRPFILE3DXML@@@@QAE_NPAVXSTRING@@PAVTEXTBOX@GRPFILE3DXML@@@Z 004c9900 f i GRPFile3DXML.obj
 0001:000c8960       ?Add@?$XVECTOR@PAVFONT@GRPFILE3DXML@@@@QAE_NPAVFONT@GRPFILE3DXML@@@Z 004c9960 f i GRPFile3DXML.obj
 0001:000c89f0       ?Add@?$XVECTOR@PAVLANGUAGE@GRPFILE3DXML@@@@QAE_NPAVLANGUAGE@GRPFILE3DXML@@@Z 004c99f0 f i GRPFile3DXML.obj
 0001:000c8a80       ?Add@?$XVECTOR@PAVLAYER@GRPFILE3DXML@@@@QAE_NPAVLAYER@GRPFILE3DXML@@@Z 004c9a80 f i GRPFile3DXML.obj
 0001:000c8b10       ?Add@?$XVECTOR@PAVLIGHT@GRPFILE3DXML@@@@QAE_NPAVLIGHT@GRPFILE3DXML@@@Z 004c9b10 f i GRPFile3DXML.obj
 0001:000c8ba0       ?Add@?$XVECTOR@PAVMEDIA@GRPFILE3DXML@@@@QAE_NPAVMEDIA@GRPFILE3DXML@@@Z 004c9ba0 f i GRPFile3DXML.obj
 0001:000c8c30       ?Add@?$XVECTOR@PAVMILESTONE@GRPFILE3DXML@@@@QAE_NPAVMILESTONE@GRPFILE3DXML@@@Z 004c9c30 f i GRPFile3DXML.obj
 0001:000c8cc0       ?Add@?$XVECTOR@PAVOVERLAY@GRPFILE3DXML@@@@QAE_NPAVOVERLAY@GRPFILE3DXML@@@Z 004c9cc0 f i GRPFile3DXML.obj
 0001:000c8d50       ?Add@?$XVECTOR@PAVSOUND@GRPFILE3DXML@@@@QAE_NPAVSOUND@GRPFILE3DXML@@@Z 004c9d50 f i GRPFile3DXML.obj
 0001:000c8de0       ?Add@?$XVECTOR@PAVTEXTBOX@GRPFILE3DXML@@@@QAE_NPAVTEXTBOX@GRPFILE3DXML@@@Z 004c9de0 f i GRPFile3DXML.obj
 0001:000c8e70       ?Add@?$XVECTOR@PAVXVARIANT@@@@QAE_NPAVXVARIANT@@@Z 004c9e70 f i GRPFile3DXML.obj
 0001:000c8f00       ?Clean@?$XVECTOR@PAVMILESTONE@GRPFILE3DXML@@@@AAEXXZ 004c9f00 f i GRPFile3DXML.obj
 0001:000c8f40       ?Clean@XVARIANT@@AAEXXZ    004c9f40 f i GRPFile3DXML.obj
 0001:000c8f70       ?DeleteAll@?$XMAP@IPAVLAYER@GRPFILE3DXML@@@@QAE_NXZ 004c9f70 f i GRPFile3DXML.obj
 0001:000c8fa0       ?DeleteAll@?$XMAP@IPAVMEDIA@GRPFILE3DXML@@@@QAE_NXZ 004c9fa0 f i GRPFile3DXML.obj
 0001:000c8fd0       ?DeleteAll@?$XMAP@IPAVOVERLAY@GRPFILE3DXML@@@@QAE_NXZ 004c9fd0 f i GRPFile3DXML.obj
 0001:000c9000       ?DeleteAll@?$XMAP@PAVXSTRING@@I@@QAE_NXZ 004ca000 f i GRPFile3DXML.obj
 0001:000c9030       ?DeleteAll@?$XMAP@PAVXSTRING@@PAVCOMMAND@GRPFILE3DXML@@@@QAE_NXZ 004ca030 f i GRPFile3DXML.obj
 0001:000c9060       ?DeleteAll@?$XMAP@PAVXSTRING@@PAVFONT@GRPFILE3DXML@@@@QAE_NXZ 004ca060 f i GRPFile3DXML.obj
 0001:000c9090       ?DeleteAll@?$XMAP@PAVXSTRING@@PAVLANGUAGE@GRPFILE3DXML@@@@QAE_NXZ 004ca090 f i GRPFile3DXML.obj
 0001:000c90c0       ?DeleteAll@?$XMAP@PAVXSTRING@@PAVTEXTBOX@GRPFILE3DXML@@@@QAE_NXZ 004ca0c0 f i GRPFile3DXML.obj
 0001:000c90f0       ?DeleteAll@?$XVECTOR@PAVMILESTONE@GRPFILE3DXML@@@@QAE_NXZ 004ca0f0 f i GRPFile3DXML.obj
 0001:000c9140       ?DeleteContents@?$XVECTOR@PAVCOMMAND@GRPFILE3DXML@@@@QAE_NXZ 004ca140 f i GRPFile3DXML.obj
 0001:000c91e0       ?DeleteContents@?$XVECTOR@PAVFONT@GRPFILE3DXML@@@@QAE_NXZ 004ca1e0 f i GRPFile3DXML.obj
 0001:000c9280       ?DeleteContents@?$XVECTOR@PAVLANGUAGE@GRPFILE3DXML@@@@QAE_NXZ 004ca280 f i GRPFile3DXML.obj
 0001:000c9320       ?DeleteContents@?$XVECTOR@PAVLAYER@GRPFILE3DXML@@@@QAE_NXZ 004ca320 f i GRPFile3DXML.obj
 0001:000c93c0       ?DeleteContents@?$XVECTOR@PAVMEDIA@GRPFILE3DXML@@@@QAE_NXZ 004ca3c0 f i GRPFile3DXML.obj
 0001:000c9460       ?DeleteContents@?$XVECTOR@PAVMILESTONE@GRPFILE3DXML@@@@QAE_NXZ 004ca460 f i GRPFile3DXML.obj
 0001:000c9500       ?DeleteContents@?$XVECTOR@PAVOVERLAY@GRPFILE3DXML@@@@QAE_NXZ 004ca500 f i GRPFile3DXML.obj
 0001:000c95a0       ?DeleteContents@?$XVECTOR@PAVSOUND@GRPFILE3DXML@@@@QAE_NXZ 004ca5a0 f i GRPFile3DXML.obj
 0001:000c9640       ?DeleteContents@?$XVECTOR@PAVTEXTBOX@GRPFILE3DXML@@@@QAE_NXZ 004ca640 f i GRPFile3DXML.obj
 0001:000c96e0       ?DeleteElementContents@?$XMAP@IPAVLAYER@GRPFILE3DXML@@@@QAE_NXZ 004ca6e0 f i GRPFile3DXML.obj
 0001:000c9700       ?DeleteElementContents@?$XMAP@IPAVMEDIA@GRPFILE3DXML@@@@QAE_NXZ 004ca700 f i GRPFile3DXML.obj
 0001:000c9720       ?DeleteElementContents@?$XMAP@IPAVOVERLAY@GRPFILE3DXML@@@@QAE_NXZ 004ca720 f i GRPFile3DXML.obj
 0001:000c9740       ?DeleteElementContents@?$XMAP@PAVXSTRING@@PAVCOMMAND@GRPFILE3DXML@@@@QAE_NXZ 004ca740 f i GRPFile3DXML.obj
 0001:000c9760       ?DeleteElementContents@?$XMAP@PAVXSTRING@@PAVFONT@GRPFILE3DXML@@@@QAE_NXZ 004ca760 f i GRPFile3DXML.obj
 0001:000c9780       ?DeleteElementContents@?$XMAP@PAVXSTRING@@PAVLANGUAGE@GRPFILE3DXML@@@@QAE_NXZ 004ca780 f i GRPFile3DXML.obj
 0001:000c97a0       ?DeleteElementContents@?$XMAP@PAVXSTRING@@PAVTEXTBOX@GRPFILE3DXML@@@@QAE_NXZ 004ca7a0 f i GRPFile3DXML.obj
 0001:000c97c0       ?DeleteKeyContents@?$XMAP@PAVXSTRING@@I@@QAE_NXZ 004ca7c0 f i GRPFile3DXML.obj
 0001:000c97e0       ?FastGet@?$XVECTOR@PAVLAYER@GRPFILE3DXML@@@@QAEPAVLAYER@GRPFILE3DXML@@H@Z 004ca7e0 f i GRPFile3DXML.obj
 0001:000c9800       ?FastGet@?$XVECTOR@PAVMEDIA@GRPFILE3DXML@@@@QAEPAVMEDIA@GRPFILE3DXML@@H@Z 004ca800 f i GRPFile3DXML.obj
 0001:000c9820       ?Find@?$XMAP@IPAVGRPANIMATIONSTACK@@@@QAEHI@Z 004ca820 f i GRPFile3DXML.obj
 0001:000c9840       ?Find@?$XMAP@IPAVMEDIA@GRPFILE3DXML@@@@QAEHI@Z 004ca840 f i GRPFile3DXML.obj
 0001:000c9860       ?Find@?$XVECTOR@PAVXSTRING@@@@QAEHPAVXSTRING@@@Z 004ca860 f i GRPFile3DXML.obj
 0001:000c98c0       ?Get@?$XMAP@IPAVLAYER@GRPFILE3DXML@@@@QAEPAVLAYER@GRPFILE3DXML@@I@Z 004ca8c0 f i GRPFile3DXML.obj
 0001:000c9910       ?Get@?$XMAP@IPAVMEDIA@GRPFILE3DXML@@@@QAEPAVMEDIA@GRPFILE3DXML@@I@Z 004ca910 f i GRPFile3DXML.obj
 0001:000c9960       ?Get@?$XMAP@PAVXSTRING@@I@@QAEIPAVXSTRING@@@Z 004ca960 f i GRPFile3DXML.obj
 0001:000c99b0       ?Get@?$XVECTOR@PAVFONT@GRPFILE3DXML@@@@QAEPAVFONT@GRPFILE3DXML@@H@Z 004ca9b0 f i GRPFile3DXML.obj
 0001:000c99f0       ?Get@?$XVECTOR@PAVGRPTEXTELEMENT@@@@QAEPAVGRPTEXTELEMENT@@H@Z 004ca9f0 f i GRPFile3DXML.obj
 0001:000c9a30       ?Get@?$XVECTOR@PAVLANGUAGE@GRPFILE3DXML@@@@QAEPAVLANGUAGE@GRPFILE3DXML@@H@Z 004caa30 f i GRPFile3DXML.obj
 0001:000c9a70       ?Get@?$XVECTOR@PAVLAYER@GRPFILE3DXML@@@@QAEPAVLAYER@GRPFILE3DXML@@H@Z 004caa70 f i GRPFile3DXML.obj
 0001:000c9ab0       ?Get@?$XVECTOR@PAVLIGHT@GRPFILE3DXML@@@@QAEPAVLIGHT@GRPFILE3DXML@@H@Z 004caab0 f i GRPFile3DXML.obj
 0001:000c9af0       ?Get@?$XVECTOR@PAVMEDIA@GRPFILE3DXML@@@@QAEPAVMEDIA@GRPFILE3DXML@@H@Z 004caaf0 f i GRPFile3DXML.obj
 0001:000c9b30       ?Get@?$XVECTOR@PAVMILESTONE@GRPFILE3DXML@@@@QAEPAVMILESTONE@GRPFILE3DXML@@H@Z 004cab30 f i GRPFile3DXML.obj
 0001:000c9b70       ?Get@?$XVECTOR@PAVOVERLAY@GRPFILE3DXML@@@@QAEPAVOVERLAY@GRPFILE3DXML@@H@Z 004cab70 f i GRPFile3DXML.obj
 0001:000c9bb0       ?Get@?$XVECTOR@PAVSOUND@GRPFILE3DXML@@@@QAEPAVSOUND@GRPFILE3DXML@@H@Z 004cabb0 f i GRPFile3DXML.obj
 0001:000c9bf0       ?Get@?$XVECTOR@PAVTEXTBOX@GRPFILE3DXML@@@@QAEPAVTEXTBOX@GRPFILE3DXML@@H@Z 004cabf0 f i GRPFile3DXML.obj
 0001:000c9c30       ?GetElement@?$XMAP@IPAVLAYER@GRPFILE3DXML@@@@QAEPAVLAYER@GRPFILE3DXML@@H@Z 004cac30 f i GRPFile3DXML.obj
 0001:000c9c50       ?GetElement@?$XMAP@IPAVMEDIA@GRPFILE3DXML@@@@QAEPAVMEDIA@GRPFILE3DXML@@H@Z 004cac50 f i GRPFile3DXML.obj
 0001:000c9c70       ?GetElement@?$XMAP@IPAVOVERLAY@GRPFILE3DXML@@@@QAEPAVOVERLAY@GRPFILE3DXML@@H@Z 004cac70 f i GRPFile3DXML.obj
 0001:000c9c90       ?GetElement@?$XMAP@PAVXSTRING@@I@@QAEIH@Z 004cac90 f i GRPFile3DXML.obj
 0001:000c9cb0       ?GetElement@?$XMAP@PAVXSTRING@@PAVFONT@GRPFILE3DXML@@@@QAEPAVFONT@GRPFILE3DXML@@H@Z 004cacb0 f i GRPFile3DXML.obj
 0001:000c9cd0       ?GetElement@?$XMAP@PAVXSTRING@@PAVLANGUAGE@GRPFILE3DXML@@@@QAEPAVLANGUAGE@GRPFILE3DXML@@H@Z 004cacd0 f i GRPFile3DXML.obj
 0001:000c9cf0       ?GetElement@?$XMAP@PAVXSTRING@@PAVLIGHT@GRPFILE3DXML@@@@QAEPAVLIGHT@GRPFILE3DXML@@H@Z 004cacf0 f i GRPFile3DXML.obj
 0001:000c9d10       ?GetElement@?$XMAP@PAVXSTRING@@PAVTEXTBOX@GRPFILE3DXML@@@@QAEPAVTEXTBOX@GRPFILE3DXML@@H@Z 004cad10 f i GRPFile3DXML.obj
 0001:000c9d30       ?GetKey@?$XMAP@PAVXSTRING@@I@@QAEPAVXSTRING@@H@Z 004cad30 f i GRPFile3DXML.obj
 0001:000c9d50       ?GetKey@?$XMAP@PAVXSTRING@@PAVFONT@GRPFILE3DXML@@@@QAEPAVXSTRING@@H@Z 004cad50 f i GRPFile3DXML.obj
 0001:000c9d70       ?GetLast@?$XVECTOR@PAVCONTROLLER@AI@@@@QAEPAVCONTROLLER@AI@@XZ 004cad70 f i GRPFile3DXML.obj
 0001:000c9d90       ?GetMonospaceWidth@GRPFONT@@QAEMXZ 004cad90 f i GRPFile3DXML.obj
 0001:000c9db0       ?GetSize@?$XMAP@IPAVLAYER@GRPFILE3DXML@@@@QAEIXZ 004cadb0 f i GRPFile3DXML.obj
 0001:000c9dd0       ?GetSize@?$XMAP@IPAVMEDIA@GRPFILE3DXML@@@@QAEIXZ 004cadd0 f i GRPFile3DXML.obj
 0001:000c9df0       ?GetSize@?$XMAP@IPAVOVERLAY@GRPFILE3DXML@@@@QAEIXZ 004cadf0 f i GRPFile3DXML.obj
 0001:000c9e10       ?GetSize@?$XMAP@PAVXSTRING@@I@@QAEIXZ 004cae10 f i GRPFile3DXML.obj
 0001:000c9e30       ?GetSize@?$XMAP@PAVXSTRING@@PAVFONT@GRPFILE3DXML@@@@QAEIXZ 004cae30 f i GRPFile3DXML.obj
 0001:000c9e50       ?GetSize@?$XMAP@PAVXSTRING@@PAVLANGUAGE@GRPFILE3DXML@@@@QAEIXZ 004cae50 f i GRPFile3DXML.obj
 0001:000c9e70       ?GetSize@?$XMAP@PAVXSTRING@@PAVLIGHT@GRPFILE3DXML@@@@QAEIXZ 004cae70 f i GRPFile3DXML.obj
 0001:000c9e90       ?GetSize@?$XMAP@PAVXSTRING@@PAVTEXTBOX@GRPFILE3DXML@@@@QAEIXZ 004cae90 f i GRPFile3DXML.obj
 0001:000c9eb0       ?GetSize@?$XVECTOR@PAVGRPTEXTELEMENT@@@@QAEIXZ 004caeb0 f i GRPFile3DXML.obj
 0001:000c9ed0       ?GetSize@?$XVECTOR@PAVMILESTONE@GRPFILE3DXML@@@@QAEIXZ 004caed0 f i GRPFile3DXML.obj
 0001:000c9ef0       ?GetSize@?$XVECTOR@PAVSOUND@GRPFILE3DXML@@@@QAEIXZ 004caef0 f i GRPFile3DXML.obj
 0001:000c9f10       ?GetString@GRPCOLOR@@QAEPAVXSTRING@@XZ 004caf10 f i GRPFile3DXML.obj
 0001:000c9f30       ?GetTexts@GRPOBJECT@@QAEPAV?$XVECTOR@PAVGRPTEXTELEMENT@@@@XZ 004caf30 f i GRPFile3DXML.obj
 0001:000c9f50       ?GetVariables@CONTROLLER@AI@@QAEPAV?$XMAP@IPAVXVARIANT@@@@XZ 004caf50 f i GRPFile3DXML.obj
 0001:000c9f70       ?ResizeAdd@?$XVECTOR@PAVFONT@GRPFILE3DXML@@@@AAE_NXZ 004caf70 f i GRPFile3DXML.obj
 0001:000ca030       ?ResizeAdd@?$XVECTOR@PAVLANGUAGE@GRPFILE3DXML@@@@AAE_NXZ 004cb030 f i GRPFile3DXML.obj
 0001:000ca0f0       ?ResizeAdd@?$XVECTOR@PAVLAYER@GRPFILE3DXML@@@@AAE_NXZ 004cb0f0 f i GRPFile3DXML.obj
 0001:000ca1b0       ?ResizeAdd@?$XVECTOR@PAVLIGHT@GRPFILE3DXML@@@@AAE_NXZ 004cb1b0 f i GRPFile3DXML.obj
 0001:000ca270       ?ResizeAdd@?$XVECTOR@PAVMEDIA@GRPFILE3DXML@@@@AAE_NXZ 004cb270 f i GRPFile3DXML.obj
 0001:000ca330       ?ResizeAdd@?$XVECTOR@PAVMILESTONE@GRPFILE3DXML@@@@AAE_NXZ 004cb330 f i GRPFile3DXML.obj
 0001:000ca3f0       ?ResizeAdd@?$XVECTOR@PAVOVERLAY@GRPFILE3DXML@@@@AAE_NXZ 004cb3f0 f i GRPFile3DXML.obj
 0001:000ca4b0       ?ResizeAdd@?$XVECTOR@PAVSOUND@GRPFILE3DXML@@@@AAE_NXZ 004cb4b0 f i GRPFile3DXML.obj
 0001:000ca570       ?ResizeAdd@?$XVECTOR@PAVTEXTBOX@GRPFILE3DXML@@@@AAE_NXZ 004cb570 f i GRPFile3DXML.obj
 0001:000ca630       ?ResizeAdd@?$XVECTOR@PAVXVARIANT@@@@AAE_NXZ 004cb630 f i GRPFile3DXML.obj
 0001:000ca6f0       ?SetIgnoreComments@XFILEXML@@QAEX_N@Z 004cb6f0 f i GRPFile3DXML.obj
 0001:000ca710       ?SetInitialStatus@OVERLAY@AI@@QAEXI@Z 004cb710 f i GRPFile3DXML.obj
 0001:000ca730       ?SetIsMulti@?$XVECTOR@PAVSOUND@GRPFILE3DXML@@@@QAEX_N@Z 004cb730 f i GRPFile3DXML.obj
 0001:000ca750       ??0GRPFILEBITMAPBASE@@QAE@XZ 004cb750 f   GRPFileBitmap.obj
 0001:000ca7d0       ??1GRPFILEBITMAPBASE@@UAE@XZ 004cb7d0 f   GRPFileBitmap.obj
 0001:000ca850       ?Open@GRPFILEBITMAPBASE@@IAE_NAAVXPATH@@_N@Z 004cb850 f   GRPFileBitmap.obj
 0001:000ca8b0       ?Create@GRPFILEBITMAPBASE@@IAE_NAAVXPATH@@@Z 004cb8b0 f   GRPFileBitmap.obj
 0001:000ca8f0       ?Close@GRPFILEBITMAPBASE@@IAE_NXZ 004cb8f0 f   GRPFileBitmap.obj
 0001:000ca920       ??0GRPFILEBITMAP@@QAE@XZ   004cb920 f   GRPFileBitmap.obj
 0001:000ca990       ??0GRPFILEBITMAP@@QAE@PA_W@Z 004cb990 f   GRPFileBitmap.obj
 0001:000caa10       ??0GRPFILEBITMAP@@QAE@AAVXPATH@@@Z 004cba10 f   GRPFileBitmap.obj
 0001:000caa90       ??1GRPFILEBITMAP@@UAE@XZ   004cba90 f   GRPFileBitmap.obj
 0001:000caaf0       ?Load@GRPFILEBITMAP@@QAEPAVGRPBITMAP@@PA_W@Z 004cbaf0 f   GRPFileBitmap.obj
 0001:000cadd0       ?Load@GRPFILEBITMAP@@QAEPAVGRPBITMAP@@AAVXPATH@@@Z 004cbdd0 f   GRPFileBitmap.obj
 0001:000cadf0       ?Load@GRPFILEBITMAP@@QAEPAVGRPBITMAP@@XZ 004cbdf0 f   GRPFileBitmap.obj
 0001:000cae20       ?Save@GRPFILEBITMAP@@QAE_NPA_WPAVGRPBITMAP@@@Z 004cbe20 f   GRPFileBitmap.obj
 0001:000cb0a0       ?Save@GRPFILEBITMAP@@QAE_NAAVXPATH@@PAVGRPBITMAP@@@Z 004cc0a0 f   GRPFileBitmap.obj
 0001:000cb0d0       ?Save@GRPFILEBITMAP@@QAE_NPAVGRPBITMAP@@@Z 004cc0d0 f   GRPFileBitmap.obj
 0001:000cb110       ?LoadSequence@GRPFILEBITMAP@@QAEPAVGRPBITMAPSEQUENCE@@PA_WHH@Z 004cc110 f   GRPFileBitmap.obj
 0001:000cb300       ?Clean@GRPFILEBITMAP@@AAEXXZ 004cc300 f   GRPFileBitmap.obj
 0001:000cb310       ??0XFILECONTAINER@@QAE@XZ  004cc310 f i GRPFileBitmap.obj
 0001:000cb330       ??1XFILECONTAINER@@UAE@XZ  004cc330 f i GRPFileBitmap.obj
 0001:000cb380       ??_GGRPFILEBITMAP@@UAEPAXI@Z 004cc380 f i GRPFileBitmap.obj
 0001:000cb380       ??_EGRPFILEBITMAP@@UAEPAXI@Z 004cc380 f i GRPFileBitmap.obj
 0001:000cb3b0       ??_GGRPFILEBITMAPBASE@@UAEPAXI@Z 004cc3b0 f i GRPFileBitmap.obj
 0001:000cb3b0       ??_EGRPFILEBITMAPBASE@@UAEPAXI@Z 004cc3b0 f i GRPFileBitmap.obj
 0001:000cb3e0       ??_EXFILECONTAINER@@UAEPAXI@Z 004cc3e0 f i GRPFileBitmap.obj
 0001:000cb3e0       ??_GXFILECONTAINER@@UAEPAXI@Z 004cc3e0 f i GRPFileBitmap.obj
 0001:000cb410       ?Clean@GRPFILEBITMAPBASE@@AAEXXZ 004cc410 f i GRPFileBitmap.obj
 0001:000cb420       ?Clean@XFILECONTAINER@@AAEXXZ 004cc420 f i GRPFileBitmap.obj
 0001:000cb440       ?CreateBitmapFromFile@GRPFILEBITMAPBASE@@UAEPAVGRPBITMAP@@AAVXPATH@@@Z 004cc440 f i GRPFileBitmap.obj
 0001:000cb450       ?CreateFileFromBitmap@GRPFILEBITMAPBASE@@UAE_NAAVXPATH@@PAVGRPBITMAP@@@Z 004cc450 f i GRPFileBitmap.obj
 0001:000cb460       ?ReadImageBlock@GRPFILEBITMAPBASE@@UAEPAEAAVXPATH@@@Z 004cc460 f i GRPFileBitmap.obj
 0001:000cb470       ??0GRPFILEBITMAPBMPHEADER@@QAE@XZ 004cc470 f   GRPFileBitmapBMP.obj
 0001:000cb4e0       ??1GRPFILEBITMAPBMPHEADER@@UAE@XZ 004cc4e0 f   GRPFileBitmapBMP.obj
 0001:000cb540       ?Load@GRPFILEBITMAPBMPHEADER@@QAE_NPAVXFILE@@@Z 004cc540 f   GRPFileBitmapBMP.obj
 0001:000cba80       ?Clean@GRPFILEBITMAPBMPHEADER@@AAEXXZ 004cca80 f   GRPFileBitmapBMP.obj
 0001:000cbab0       ??0GRPFILEBITMAPBMP@@QAE@XZ 004ccab0 f   GRPFileBitmapBMP.obj
 0001:000cbb10       ??1GRPFILEBITMAPBMP@@UAE@XZ 004ccb10 f   GRPFileBitmapBMP.obj
 0001:000cbb60       ?CreateBitmapFromFile@GRPFILEBITMAPBMP@@UAEPAVGRPBITMAP@@AAVXPATH@@@Z 004ccb60 f   GRPFileBitmapBMP.obj
 0001:000cc220       ?CreateFileFromBitmap@GRPFILEBITMAPBMP@@UAE_NAAVXPATH@@PAVGRPBITMAP@@@Z 004cd220 f   GRPFileBitmapBMP.obj
 0001:000cc680       ?Clean@GRPFILEBITMAPBMP@@AAEXXZ 004cd680 f   GRPFileBitmapBMP.obj
 0001:000cc690       ?ReadHeader@GRPFILEBITMAPBMP@@AAE_NPAVGRPFILEBITMAPBMPHEADER@@@Z 004cd690 f   GRPFileBitmapBMP.obj
 0001:000cc6e0       ??0?$XMAP@EPAVGRPFILEBITMAPBMPCOLORPALETE@@@@QAE@XZ 004cd6e0 f i GRPFileBitmapBMP.obj
 0001:000cc760       ??0?$XVECTOR@E@@QAE@XZ     004cd760 f i GRPFileBitmapBMP.obj
 0001:000cc780       ??0?$XVECTOR@PAVGRPFILEBITMAPBMPCOLORPALETE@@@@QAE@XZ 004cd780 f i GRPFileBitmapBMP.obj
 0001:000cc7a0       ??0GRPFILEBITMAPBMPCOLORPALETE@@QAE@EEEE@Z 004cd7a0 f i GRPFileBitmapBMP.obj
 0001:000cc7f0       ??1?$XMAP@EPAVGRPFILEBITMAPBMPCOLORPALETE@@@@UAE@XZ 004cd7f0 f i GRPFileBitmapBMP.obj
 0001:000cc820       ??1?$XVECTOR@E@@UAE@XZ     004cd820 f i GRPFileBitmapBMP.obj
 0001:000cc870       ??1?$XVECTOR@PAVGRPFILEBITMAPBMPCOLORPALETE@@@@UAE@XZ 004cd870 f i GRPFileBitmapBMP.obj
 0001:000cc8c0       ??1GRPFILEBITMAPBMPCOLORPALETE@@UAE@XZ 004cd8c0 f i GRPFileBitmapBMP.obj
 0001:000cc910       ??_E?$XMAP@EPAVGRPFILEBITMAPBMPCOLORPALETE@@@@UAEPAXI@Z 004cd910 f i GRPFileBitmapBMP.obj
 0001:000cc910       ??_G?$XMAP@EPAVGRPFILEBITMAPBMPCOLORPALETE@@@@UAEPAXI@Z 004cd910 f i GRPFileBitmapBMP.obj
 0001:000cc940       ??_E?$XVECTOR@E@@UAEPAXI@Z 004cd940 f i GRPFileBitmapBMP.obj
 0001:000cc940       ??_G?$XVECTOR@E@@UAEPAXI@Z 004cd940 f i GRPFileBitmapBMP.obj
 0001:000cc970       ??_G?$XVECTOR@PAVGRPFILEBITMAPBMPCOLORPALETE@@@@UAEPAXI@Z 004cd970 f i GRPFileBitmapBMP.obj
 0001:000cc970       ??_E?$XVECTOR@PAVGRPFILEBITMAPBMPCOLORPALETE@@@@UAEPAXI@Z 004cd970 f i GRPFileBitmapBMP.obj
 0001:000cc9a0       ??_GGRPFILEBITMAPBMP@@UAEPAXI@Z 004cd9a0 f i GRPFileBitmapBMP.obj
 0001:000cc9a0       ??_EGRPFILEBITMAPBMP@@UAEPAXI@Z 004cd9a0 f i GRPFileBitmapBMP.obj
 0001:000cc9d0       ??_EGRPFILEBITMAPBMPCOLORPALETE@@UAEPAXI@Z 004cd9d0 f i GRPFileBitmapBMP.obj
 0001:000cc9d0       ??_GGRPFILEBITMAPBMPCOLORPALETE@@UAEPAXI@Z 004cd9d0 f i GRPFileBitmapBMP.obj
 0001:000cca00       ??_GGRPFILEBITMAPBMPHEADER@@UAEPAXI@Z 004cda00 f i GRPFileBitmapBMP.obj
 0001:000cca00       ??_EGRPFILEBITMAPBMPHEADER@@UAEPAXI@Z 004cda00 f i GRPFileBitmapBMP.obj
 0001:000cca30       ?Add@?$XMAP@EPAVGRPFILEBITMAPBMPCOLORPALETE@@@@QAE_NEPAVGRPFILEBITMAPBMPCOLORPALETE@@@Z 004cda30 f i GRPFileBitmapBMP.obj
 0001:000cca90       ?Add@?$XVECTOR@E@@QAE_NE@Z 004cda90 f i GRPFileBitmapBMP.obj
 0001:000ccb20       ?Add@?$XVECTOR@PAVGRPFILEBITMAPBMPCOLORPALETE@@@@QAE_NPAVGRPFILEBITMAPBMPCOLORPALETE@@@Z 004cdb20 f i GRPFileBitmapBMP.obj
 0001:000ccbb0       ?Clean@?$XVECTOR@E@@AAEXXZ 004cdbb0 f i GRPFileBitmapBMP.obj
 0001:000ccbf0       ?Clean@?$XVECTOR@PAVGRPFILEBITMAPBMPCOLORPALETE@@@@AAEXXZ 004cdbf0 f i GRPFileBitmapBMP.obj
 0001:000ccc30       ?Clean@GRPFILEBITMAPBMPCOLORPALETE@@AAEXXZ 004cdc30 f i GRPFileBitmapBMP.obj
 0001:000ccc60       ?Delete@?$XVECTOR@E@@QAE_NE@Z 004cdc60 f i GRPFileBitmapBMP.obj
 0001:000ccce0       ?DeleteAll@?$XMAP@EPAVGRPFILEBITMAPBMPCOLORPALETE@@@@QAE_NXZ 004cdce0 f i GRPFileBitmapBMP.obj
 0001:000ccd10       ?DeleteAll@?$XVECTOR@E@@QAE_NXZ 004cdd10 f i GRPFileBitmapBMP.obj
 0001:000ccd60       ?DeleteAll@?$XVECTOR@PAVGRPFILEBITMAPBMPCOLORPALETE@@@@QAE_NXZ 004cdd60 f i GRPFileBitmapBMP.obj
 0001:000ccdb0       ?DeleteAllPalette@GRPFILEBITMAPBMPHEADER@@QAE_NXZ 004cddb0 f i GRPFileBitmapBMP.obj
 0001:000ccdf0       ?DeleteContents@?$XVECTOR@PAVGRPFILEBITMAPBMPCOLORPALETE@@@@QAE_NXZ 004cddf0 f i GRPFileBitmapBMP.obj
 0001:000cce90       ?DeleteElementContents@?$XMAP@EPAVGRPFILEBITMAPBMPCOLORPALETE@@@@QAE_NXZ 004cde90 f i GRPFileBitmapBMP.obj
 0001:000cceb0       ?Get@?$XVECTOR@PAVGRPFILEBITMAPBMPCOLORPALETE@@@@QAEPAVGRPFILEBITMAPBMPCOLORPALETE@@H@Z 004cdeb0 f i GRPFileBitmapBMP.obj
 0001:000ccef0       ?GetBitsPerPixel@GRPFILEBITMAPBMPHEADER@@QAEHXZ 004cdef0 f i GRPFileBitmapBMP.obj
 0001:000ccf10       ?GetColorPalette@GRPFILEBITMAPBMPHEADER@@QAE_NEAAVGRPBUFFERCOLORRGBA8@@@Z 004cdf10 f i GRPFileBitmapBMP.obj
 0001:000ccf70       ?GetElement@?$XMAP@EPAVGRPFILEBITMAPBMPCOLORPALETE@@@@QAEPAVGRPFILEBITMAPBMPCOLORPALETE@@H@Z 004cdf70 f i GRPFileBitmapBMP.obj
 0001:000ccf90       ?GetHeaderInfo@GRPFILEBITMAPBMPHEADER@@QAEPAUGRPFILEBITMAPBMPHEADERINFO@@XZ 004cdf90 f i GRPFileBitmapBMP.obj
 0001:000ccfb0       ?GetHeight@GRPFILEBITMAPBMPHEADER@@QAEHXZ 004cdfb0 f i GRPFileBitmapBMP.obj
 0001:000ccfd0       ?GetMode@GRPFILEBITMAPBMPHEADER@@QAE?AW4GRPPROPERTYMODE@@XZ 004cdfd0 f i GRPFileBitmapBMP.obj
 0001:000ccff0       ?GetOffsetData@GRPFILEBITMAPBMPHEADER@@QAEHXZ 004cdff0 f i GRPFileBitmapBMP.obj
 0001:000cd010       ?GetSize@?$XVECTOR@E@@QAEIXZ 004ce010 f i GRPFileBitmapBMP.obj
 0001:000cd030       ?GetWidth@GRPFILEBITMAPBMPHEADER@@QAEHXZ 004ce030 f i GRPFileBitmapBMP.obj
 0001:000cd050       ?IsEmpty@?$XMAP@EPAVGRPFILEBITMAPBMPCOLORPALETE@@@@QAE_NXZ 004ce050 f i GRPFileBitmapBMP.obj
 0001:000cd080       ?ResizeAdd@?$XVECTOR@E@@AAE_NXZ 004ce080 f i GRPFileBitmapBMP.obj
 0001:000cd130       ?ResizeAdd@?$XVECTOR@PAVGRPFILEBITMAPBMPCOLORPALETE@@@@AAE_NXZ 004ce130 f i GRPFileBitmapBMP.obj
 0001:000cd1f0       ?ResizeRemove@?$XVECTOR@E@@AAE_NI@Z 004ce1f0 f i GRPFileBitmapBMP.obj
 0001:000cd260       ?SetIsMulti@?$XMAP@EPAVGRPFILEBITMAPBMPCOLORPALETE@@@@QAEX_N@Z 004ce260 f i GRPFileBitmapBMP.obj
 0001:000cd290       ?SetIsMulti@?$XVECTOR@E@@QAEX_N@Z 004ce290 f i GRPFileBitmapBMP.obj
 0001:000cd2b0       ?SetIsMulti@?$XVECTOR@PAVGRPFILEBITMAPBMPCOLORPALETE@@@@QAEX_N@Z 004ce2b0 f i GRPFileBitmapBMP.obj
 0001:000cd2d0       ??0GRPFILEBITMAPJPG@@QAE@XZ 004ce2d0 f   GRPFileBitmapJPG.obj
 0001:000cd360       ??1GRPFILEBITMAPJPG@@UAE@XZ 004ce360 f   GRPFileBitmapJPG.obj
 0001:000cd3e0       ?CreateBitmapFromFile@GRPFILEBITMAPJPG@@UAEPAVGRPBITMAP@@AAVXPATH@@@Z 004ce3e0 f   GRPFileBitmapJPG.obj
 0001:000cd5e0       ?CreateFileFromBitmap@GRPFILEBITMAPJPG@@UAE_NAAVXPATH@@PAVGRPBITMAP@@@Z 004ce5e0 f   GRPFileBitmapJPG.obj
 0001:000cd750       ?Clean@GRPFILEBITMAPJPG@@AAEXXZ 004ce750 f   GRPFileBitmapJPG.obj
 0001:000cd760       ?ReadHeader@GRPFILEBITMAPJPG@@AAE_NPAVGRPFILEBITMAPJPGHEADER@@@Z 004ce760 f   GRPFileBitmapJPG.obj
 0001:000cd920       ?Read@GRPFILEBITMAPJPG@@AAE_NPAE@Z 004ce920 f   GRPFileBitmapJPG.obj
 0001:000cdbe0       ?Write@GRPFILEBITMAPJPG@@AAE_NHHPAEH_N@Z 004cebe0 f   GRPFileBitmapJPG.obj
 0001:000cde50       ??_GGRPFILEBITMAPJPG@@UAEPAXI@Z 004cee50 f i GRPFileBitmapJPG.obj
 0001:000cde50       ??_EGRPFILEBITMAPJPG@@UAEPAXI@Z 004cee50 f i GRPFileBitmapJPG.obj
 0001:000cde90       ??0GRPFILEBITMAPPNG@@QAE@XZ 004cee90 f   GRPFileBitmapPNG.obj
 0001:000cdef0       ??1GRPFILEBITMAPPNG@@UAE@XZ 004ceef0 f   GRPFileBitmapPNG.obj
 0001:000cdf40       ?CreateBitmapFromFile@GRPFILEBITMAPPNG@@UAEPAVGRPBITMAP@@AAVXPATH@@@Z 004cef40 f   GRPFileBitmapPNG.obj
 0001:000ce380       ?CreateFileFromBitmap@GRPFILEBITMAPPNG@@UAE_NAAVXPATH@@PAVGRPBITMAP@@@Z 004cf380 f   GRPFileBitmapPNG.obj
 0001:000ce6c0       ?Clean@GRPFILEBITMAPPNG@@AAEXXZ 004cf6c0 f   GRPFileBitmapPNG.obj
 0001:000ce6d0       ?ReadData@GRPFILEBITMAPPNG@@CAXPAUpng_struct_def@@PAEI@Z 004cf6d0 f   GRPFileBitmapPNG.obj
 0001:000ce720       ?WriteData@GRPFILEBITMAPPNG@@CAXPAUpng_struct_def@@PAEI@Z 004cf720 f   GRPFileBitmapPNG.obj
 0001:000ce770       ??_GGRPFILEBITMAPPNG@@UAEPAXI@Z 004cf770 f i GRPFileBitmapPNG.obj
 0001:000ce770       ??_EGRPFILEBITMAPPNG@@UAEPAXI@Z 004cf770 f i GRPFileBitmapPNG.obj
 0001:000ce7a0       ??0GRPFILEBITMAPTGAHEADER@@QAE@XZ 004cf7a0 f   GRPFileBitmapTGA.obj
 0001:000ce7c0       ??1GRPFILEBITMAPTGAHEADER@@UAE@XZ 004cf7c0 f   GRPFileBitmapTGA.obj
 0001:000ce810       ?Load@GRPFILEBITMAPTGAHEADER@@QAE_NPAVXFILE@@@Z 004cf810 f   GRPFileBitmapTGA.obj
 0001:000ceae0       ?Clean@GRPFILEBITMAPTGAHEADER@@AAEXXZ 004cfae0 f   GRPFileBitmapTGA.obj
 0001:000ceb20       ??0GRPFILEBITMAPTGA@@QAE@XZ 004cfb20 f   GRPFileBitmapTGA.obj
 0001:000ceb80       ??1GRPFILEBITMAPTGA@@UAE@XZ 004cfb80 f   GRPFileBitmapTGA.obj
 0001:000cebd0       ?CreateBitmapFromFile@GRPFILEBITMAPTGA@@UAEPAVGRPBITMAP@@AAVXPATH@@@Z 004cfbd0 f   GRPFileBitmapTGA.obj
 0001:000ced10       ?CreateFileFromBitmap@GRPFILEBITMAPTGA@@UAE_NAAVXPATH@@PAVGRPBITMAP@@@Z 004cfd10 f   GRPFileBitmapTGA.obj
 0001:000ceff0       ?SeekBuffer@GRPFILEBITMAPTGA@@QAE_KPAEHIH@Z 004cfff0 f   GRPFileBitmapTGA.obj
 0001:000cf060       ?ReadData@GRPFILEBITMAPTGA@@QAE_NPAEPAXHH@Z 004d0060 f   GRPFileBitmapTGA.obj
 0001:000cf0d0       ?Decompress@GRPFILEBITMAPTGA@@QAE_NPAE_K@Z 004d00d0 f   GRPFileBitmapTGA.obj
 0001:000cf900       ?Clean@GRPFILEBITMAPTGA@@AAEXXZ 004d0900 f   GRPFileBitmapTGA.obj
 0001:000cf910       ?ReadHeader@GRPFILEBITMAPTGA@@AAE_NPAVGRPFILEBITMAPTGAHEADER@@@Z 004d0910 f   GRPFileBitmapTGA.obj
 0001:000cf960       ?CreateColor@GRPFILEBITMAPTGA@@AAE_NW4GRPPROPERTYMODE@@PAEAAVGRPBUFFERCOLORRGBA8@@@Z 004d0960 f   GRPFileBitmapTGA.obj
 0001:000cfae0       ??_GGRPFILEBITMAPTGA@@UAEPAXI@Z 004d0ae0 f i GRPFileBitmapTGA.obj
 0001:000cfae0       ??_EGRPFILEBITMAPTGA@@UAEPAXI@Z 004d0ae0 f i GRPFileBitmapTGA.obj
 0001:000cfb10       ??_EGRPFILEBITMAPTGAHEADER@@UAEPAXI@Z 004d0b10 f i GRPFileBitmapTGA.obj
 0001:000cfb10       ??_GGRPFILEBITMAPTGAHEADER@@UAEPAXI@Z 004d0b10 f i GRPFileBitmapTGA.obj
 0001:000cfb40       ?GetBitsPerPixel@GRPFILEBITMAPTGAHEADER@@QAEHXZ 004d0b40 f i GRPFileBitmapTGA.obj
 0001:000cfb60       ?GetHeaderInfo@GRPFILEBITMAPTGAHEADER@@QAEPAUGRPFILEBITMAPTGAHEADERINFO@@XZ 004d0b60 f i GRPFileBitmapTGA.obj
 0001:000cfb80       ?GetHeight@GRPFILEBITMAPTGAHEADER@@QAEHXZ 004d0b80 f i GRPFileBitmapTGA.obj
 0001:000cfba0       ?GetWidth@GRPFILEBITMAPTGAHEADER@@QAEHXZ 004d0ba0 f i GRPFileBitmapTGA.obj
 0001:000cfbc0       _stbtt_BakeFontBitmap      004d0bc0 f   GRPFileTTF.obj
 0001:000cfc00       _stbtt_GetBakedQuad        004d0c00 f   GRPFileTTF.obj
 0001:000cfdb0       _stbtt_PackBegin           004d0db0 f   GRPFileTTF.obj
 0001:000cfed0       _stbtt_PackEnd             004d0ed0 f   GRPFileTTF.obj
 0001:000cff00       _stbtt_PackFontRange       004d0f00 f   GRPFileTTF.obj
 0001:000cff50       _stbtt_PackFontRanges      004d0f50 f   GRPFileTTF.obj
 0001:000d00f0       _stbtt_PackSetOversampling 004d10f0 f   GRPFileTTF.obj
 0001:000d0150       _stbtt_GetPackedQuad       004d1150 f   GRPFileTTF.obj
 0001:000d0340       _stbtt_PackFontRangesGatherRects 004d1340 f   GRPFileTTF.obj
 0001:000d0560       _stbtt_PackFontRangesPackRects 004d1560 f   GRPFileTTF.obj
 0001:000d0580       _stbtt_PackFontRangesRenderIntoRects 004d1580 f   GRPFileTTF.obj
 0001:000d0ad0       _stbtt_GetNumberOfFonts    004d1ad0 f   GRPFileTTF.obj
 0001:000d0af0       _stbtt_GetFontOffsetForIndex 004d1af0 f   GRPFileTTF.obj
 0001:000d0b10       _stbtt_InitFont            004d1b10 f   GRPFileTTF.obj
 0001:000d0b30       _stbtt_FindGlyphIndex      004d1b30 f   GRPFileTTF.obj
 0001:000d0f90       _stbtt_ScaleForPixelHeight 004d1f90 f   GRPFileTTF.obj
 0001:000d0ff0       _stbtt_ScaleForMappingEmToPixels 004d1ff0 f   GRPFileTTF.obj
 0001:000d1030       _stbtt_GetFontVMetrics     004d2030 f   GRPFileTTF.obj
 0001:000d10b0       _stbtt_GetFontVMetricsOS2  004d20b0 f   GRPFileTTF.obj
 0001:000d1160       _stbtt_GetFontBoundingBox  004d2160 f   GRPFileTTF.obj
 0001:000d11f0       _stbtt_GetCodepointHMetrics 004d21f0 f   GRPFileTTF.obj
 0001:000d1220       _stbtt_GetCodepointKernAdvance 004d2220 f   GRPFileTTF.obj
 0001:000d1260       _stbtt_GetCodepointBox     004d2260 f   GRPFileTTF.obj
 0001:000d12a0       _stbtt_GetGlyphHMetrics    004d22a0 f   GRPFileTTF.obj
 0001:000d1390       _stbtt_GetGlyphKernAdvance 004d2390 f   GRPFileTTF.obj
 0001:000d1490       _stbtt_GetGlyphBox         004d2490 f   GRPFileTTF.obj
 0001:000d1580       _stbtt_IsGlyphEmpty        004d2580 f   GRPFileTTF.obj
 0001:000d1620       _stbtt_GetCodepointShape   004d2620 f   GRPFileTTF.obj
 0001:000d1650       _stbtt_GetGlyphShape       004d2650 f   GRPFileTTF.obj
 0001:000d1690       _stbtt_FreeShape           004d2690 f   GRPFileTTF.obj
 0001:000d16b0       _stbtt_FreeBitmap          004d26b0 f   GRPFileTTF.obj
 0001:000d16d0       _stbtt_GetCodepointBitmap  004d26d0 f   GRPFileTTF.obj
 0001:000d1720       _stbtt_GetCodepointBitmapSubpixel 004d2720 f   GRPFileTTF.obj
 0001:000d1780       _stbtt_MakeCodepointBitmap 004d2780 f   GRPFileTTF.obj
 0001:000d17d0       _stbtt_MakeCodepointBitmapSubpixel 004d27d0 f   GRPFileTTF.obj
 0001:000d1830       _stbtt_GetCodepointBitmapBox 004d2830 f   GRPFileTTF.obj
 0001:000d1880       _stbtt_GetCodepointBitmapBoxSubpixel 004d2880 f   GRPFileTTF.obj
 0001:000d18e0       _stbtt_GetGlyphBitmap      004d28e0 f   GRPFileTTF.obj
 0001:000d1930       _stbtt_GetGlyphBitmapSubpixel 004d2930 f   GRPFileTTF.obj
 0001:000d1af0       _stbtt_MakeGlyphBitmap     004d2af0 f   GRPFileTTF.obj
 0001:000d1b40       _stbtt_MakeGlyphBitmapSubpixel 004d2b40 f   GRPFileTTF.obj
 0001:000d1c40       _stbtt_MakeGlyphBitmapSubpixelPrefilter 004d2c40 f   GRPFileTTF.obj
 0001:000d1d10       _stbtt_GetGlyphBitmapBox   004d2d10 f   GRPFileTTF.obj
 0001:000d1d60       _stbtt_GetGlyphBitmapBoxSubpixel 004d2d60 f   GRPFileTTF.obj
 0001:000d1ec0       _stbtt_Rasterize           004d2ec0 f   GRPFileTTF.obj
 0001:000d1fa0       _stbtt_FreeSDF             004d2fa0 f   GRPFileTTF.obj
 0001:000d1fc0       _stbtt_GetGlyphSDF         004d2fc0 f   GRPFileTTF.obj
 0001:000d3360       _stbtt_GetCodepointSDF     004d4360 f   GRPFileTTF.obj
 0001:000d33c0       _stbtt_FindMatchingFont    004d43c0 f   GRPFileTTF.obj
 0001:000d33e0       _stbtt_CompareUTF8toUTF16_bigendian 004d43e0 f   GRPFileTTF.obj
 0001:000d3400       _stbtt_GetFontNameString   004d4400 f   GRPFileTTF.obj
 0001:000d3560       ??0GRPFILETTF@@QAE@XZ      004d4560 f   GRPFileTTF.obj
 0001:000d35e0       ??1GRPFILETTF@@UAE@XZ      004d45e0 f   GRPFileTTF.obj
 0001:000d36b0       ?LoadFile@GRPFILETTF@@QAE_NPA_W0@Z 004d46b0 f   GRPFileTTF.obj
 0001:000d3ad0       ?LoadFile@GRPFILETTF@@QAE_NAAVXPATH@@PA_W@Z 004d4ad0 f   GRPFileTTF.obj
 0001:000d3b00       ?GetGlyphShape@GRPFILETTF@@QAEPAVGRPSHAPE@@_W@Z 004d4b00 f   GRPFileTTF.obj
 0001:000d44b0       ?FindGlyphIndex@GRPFILETTF@@QAEHH@Z 004d54b0 f   GRPFileTTF.obj
 0001:000d44d0       ?GetGlyphMetrics@GRPFILETTF@@QAE_NHPAM0000@Z 004d54d0 f   GRPFileTTF.obj
 0001:000d45d0       ?GetFontOS2Metrics@GRPFILETTF@@QAE_NPAM00@Z 004d55d0 f   GRPFileTTF.obj
 0001:000d4650       ?GetKerning@GRPFILETTF@@QAEMHH@Z 004d5650 f   GRPFileTTF.obj
 0001:000dd760       ??0?$XMAP@HPAVGRPFILETTFGLYPH@@@@QAE@XZ 004de760 f i GRPFileTTF.obj
 0001:000dd7e0       ??0?$XMAP@HPAVGRPSHAPE@@@@QAE@XZ 004de7e0 f i GRPFileTTF.obj
 0001:000dd860       ??0?$XVECTOR@PAVGRPFILETTFGLYPH@@@@QAE@XZ 004de860 f i GRPFileTTF.obj
 0001:000dd880       ??0?$XVECTOR@PAVGRPFILETTFGLYPHVERTEX@@@@QAE@XZ 004de880 f i GRPFileTTF.obj
 0001:000dd8a0       ??0?$XVECTOR@PAVGRPSHAPE@@@@QAE@XZ 004de8a0 f i GRPFileTTF.obj
 0001:000dd8c0       ??0?$XVECTOR@PAVGRPSPLINE@@@@QAE@XZ 004de8c0 f i GRPFileTTF.obj
 0001:000dd8e0       ??0GRPFILETTFGLYPH@@QAE@H@Z 004de8e0 f i GRPFileTTF.obj
 0001:000dd950       ??0GRPFILETTFGLYPHVERTEX@@QAE@PAUstbtt_vertex@@@Z 004de950 f i GRPFileTTF.obj
 0001:000dd9f0       ??0GRPSHAPE@@QAE@XZ        004de9f0 f i GRPFileTTF.obj
 0001:000ddad0       ??1?$XMAP@HPAVGRPFILETTFGLYPH@@@@UAE@XZ 004dead0 f i GRPFileTTF.obj
 0001:000ddb00       ??1?$XMAP@HPAVGRPSHAPE@@@@UAE@XZ 004deb00 f i GRPFileTTF.obj
 0001:000ddb30       ??1?$XVECTOR@PAVGRPFILETTFGLYPH@@@@UAE@XZ 004deb30 f i GRPFileTTF.obj
 0001:000ddb80       ??1?$XVECTOR@PAVGRPFILETTFGLYPHVERTEX@@@@UAE@XZ 004deb80 f i GRPFileTTF.obj
 0001:000ddbd0       ??1?$XVECTOR@PAVGRPSHAPE@@@@UAE@XZ 004debd0 f i GRPFileTTF.obj
 0001:000ddc20       ??1?$XVECTOR@PAVGRPSPLINE@@@@UAE@XZ 004dec20 f i GRPFileTTF.obj
 0001:000ddc70       ??1GRPFILETTFGLYPH@@QAE@XZ 004dec70 f i GRPFileTTF.obj
 0001:000ddcd0       ??1GRPFILETTFGLYPHVERTEX@@QAE@XZ 004decd0 f i GRPFileTTF.obj
 0001:000ddd10       ??1GRPSHAPE@@QAE@XZ        004ded10 f i GRPFileTTF.obj
 0001:000ddd70       ??_G?$XMAP@HPAVGRPFILETTFGLYPH@@@@UAEPAXI@Z 004ded70 f i GRPFileTTF.obj
 0001:000ddd70       ??_E?$XMAP@HPAVGRPFILETTFGLYPH@@@@UAEPAXI@Z 004ded70 f i GRPFileTTF.obj
 0001:000ddda0       ??_G?$XMAP@HPAVGRPSHAPE@@@@UAEPAXI@Z 004deda0 f i GRPFileTTF.obj
 0001:000ddda0       ??_E?$XMAP@HPAVGRPSHAPE@@@@UAEPAXI@Z 004deda0 f i GRPFileTTF.obj
 0001:000dddd0       ??_E?$XVECTOR@PAVGRPFILETTFGLYPH@@@@UAEPAXI@Z 004dedd0 f i GRPFileTTF.obj
 0001:000dddd0       ??_G?$XVECTOR@PAVGRPFILETTFGLYPH@@@@UAEPAXI@Z 004dedd0 f i GRPFileTTF.obj
 0001:000dde00       ??_E?$XVECTOR@PAVGRPFILETTFGLYPHVERTEX@@@@UAEPAXI@Z 004dee00 f i GRPFileTTF.obj
 0001:000dde00       ??_G?$XVECTOR@PAVGRPFILETTFGLYPHVERTEX@@@@UAEPAXI@Z 004dee00 f i GRPFileTTF.obj
 0001:000dde30       ??_G?$XVECTOR@PAVGRPSHAPE@@@@UAEPAXI@Z 004dee30 f i GRPFileTTF.obj
 0001:000dde30       ??_E?$XVECTOR@PAVGRPSHAPE@@@@UAEPAXI@Z 004dee30 f i GRPFileTTF.obj
 0001:000dde60       ??_G?$XVECTOR@PAVGRPSPLINE@@@@UAEPAXI@Z 004dee60 f i GRPFileTTF.obj
 0001:000dde60       ??_E?$XVECTOR@PAVGRPSPLINE@@@@UAEPAXI@Z 004dee60 f i GRPFileTTF.obj
 0001:000dde90       ??_EGRPFILETTF@@UAEPAXI@Z  004dee90 f i GRPFileTTF.obj
 0001:000dde90       ??_GGRPFILETTF@@UAEPAXI@Z  004dee90 f i GRPFileTTF.obj
 0001:000dded0       ??_GGRPFILETTFGLYPH@@QAEPAXI@Z 004deed0 f i GRPFileTTF.obj
 0001:000ddf00       ??_GGRPFILETTFGLYPHVERTEX@@QAEPAXI@Z 004def00 f i GRPFileTTF.obj
 0001:000ddf30       ??_GGRPSHAPE@@QAEPAXI@Z    004def30 f i GRPFileTTF.obj
 0001:000ddf70       ??_GGRPSPLINE@@QAEPAXI@Z   004def70 f i GRPFileTTF.obj
 0001:000ddfb0       ?Add@?$XMAP@HPAVGRPFILETTFGLYPH@@@@QAE_NHPAVGRPFILETTFGLYPH@@@Z 004defb0 f i GRPFileTTF.obj
 0001:000de010       ?Add@?$XMAP@HPAVGRPSHAPE@@@@QAE_NHPAVGRPSHAPE@@@Z 004df010 f i GRPFileTTF.obj
 0001:000de070       ?Add@?$XVECTOR@PAVGRPFILETTFGLYPH@@@@QAE_NPAVGRPFILETTFGLYPH@@@Z 004df070 f i GRPFileTTF.obj
 0001:000de100       ?Add@?$XVECTOR@PAVGRPFILETTFGLYPHVERTEX@@@@QAE_NPAVGRPFILETTFGLYPHVERTEX@@@Z 004df100 f i GRPFileTTF.obj
 0001:000de190       ?Add@?$XVECTOR@PAVGRPSHAPE@@@@QAE_NPAVGRPSHAPE@@@Z 004df190 f i GRPFileTTF.obj
 0001:000de220       ?Add@?$XVECTOR@PAVGRPSPLINE@@@@QAE_NPAVGRPSPLINE@@@Z 004df220 f i GRPFileTTF.obj
 0001:000de2b0       ?AddContour@GRPSHAPE@@QAE_NPAVGRPSPLINE@@@Z 004df2b0 f i GRPFileTTF.obj
 0001:000de2d0       ?Clean@?$XVECTOR@PAVGRPFILETTFGLYPH@@@@AAEXXZ 004df2d0 f i GRPFileTTF.obj
 0001:000de310       ?Clean@?$XVECTOR@PAVGRPFILETTFGLYPHVERTEX@@@@AAEXXZ 004df310 f i GRPFileTTF.obj
 0001:000de350       ?Clean@?$XVECTOR@PAVGRPSHAPE@@@@AAEXXZ 004df350 f i GRPFileTTF.obj
 0001:000de390       ?Clean@?$XVECTOR@PAVGRPSPLINE@@@@AAEXXZ 004df390 f i GRPFileTTF.obj
 0001:000de3d0       ?Clean@GRPFILETTF@@AAEXXZ  004df3d0 f i GRPFileTTF.obj
 0001:000de3f0       ?Clean@GRPFILETTFGLYPH@@AAEXXZ 004df3f0 f i GRPFileTTF.obj
 0001:000de460       ?Clean@GRPFILETTFGLYPHVERTEX@@AAEXXZ 004df460 f i GRPFileTTF.obj
 0001:000de4b0       ?Delete@?$XVECTOR@H@@QAE_NH@Z 004df4b0 f i GRPFileTTF.obj
 0001:000de520       ?DeleteAll@?$XMAP@HPAVGRPFILETTFGLYPH@@@@QAE_NXZ 004df520 f i GRPFileTTF.obj
 0001:000de550       ?DeleteAll@?$XMAP@HPAVGRPSHAPE@@@@QAE_NXZ 004df550 f i GRPFileTTF.obj
 0001:000de580       ?DeleteAll@?$XVECTOR@PAVGRPFILETTFGLYPH@@@@QAE_NXZ 004df580 f i GRPFileTTF.obj
 0001:000de5d0       ?DeleteAll@?$XVECTOR@PAVGRPFILETTFGLYPHVERTEX@@@@QAE_NXZ 004df5d0 f i GRPFileTTF.obj
 0001:000de620       ?DeleteAll@?$XVECTOR@PAVGRPSHAPE@@@@QAE_NXZ 004df620 f i GRPFileTTF.obj
 0001:000de670       ?DeleteAll@?$XVECTOR@PAVGRPSPLINE@@@@QAE_NXZ 004df670 f i GRPFileTTF.obj
 0001:000de6c0       ?DeleteContents@?$XVECTOR@PAVGRPFILETTFGLYPH@@@@QAE_NXZ 004df6c0 f i GRPFileTTF.obj
 0001:000de760       ?DeleteContents@?$XVECTOR@PAVGRPFILETTFGLYPHVERTEX@@@@QAE_NXZ 004df760 f i GRPFileTTF.obj
 0001:000de800       ?DeleteContents@?$XVECTOR@PAVGRPSHAPE@@@@QAE_NXZ 004df800 f i GRPFileTTF.obj
 0001:000de8a0       ?DeleteContents@?$XVECTOR@PAVGRPSPLINE@@@@QAE_NXZ 004df8a0 f i GRPFileTTF.obj
 0001:000de940       ?DeleteElementContents@?$XMAP@HPAVGRPFILETTFGLYPH@@@@QAE_NXZ 004df940 f i GRPFileTTF.obj
 0001:000de960       ?DeleteElementContents@?$XMAP@HPAVGRPSHAPE@@@@QAE_NXZ 004df960 f i GRPFileTTF.obj
 0001:000de980       ?FastGet@?$XVECTOR@PAVGRPFILETTFGLYPHVERTEX@@@@QAEPAVGRPFILETTFGLYPHVERTEX@@H@Z 004df980 f i GRPFileTTF.obj
 0001:000de9a0       ?FastGet@?$XVECTOR@PAVGRPSPLINE@@@@QAEPAVGRPSPLINE@@H@Z 004df9a0 f i GRPFileTTF.obj
 0001:000de9c0       ?Get@?$XVECTOR@PAVGRPFILETTFGLYPH@@@@QAEPAVGRPFILETTFGLYPH@@H@Z 004df9c0 f i GRPFileTTF.obj
 0001:000dea00       ?Get@?$XVECTOR@PAVGRPSPLINE@@@@QAEPAVGRPSPLINE@@H@Z 004dfa00 f i GRPFileTTF.obj
 0001:000dea40       ?GetElement@?$XMAP@HPAVGRPFILETTFGLYPH@@@@QAEPAVGRPFILETTFGLYPH@@H@Z 004dfa40 f i GRPFileTTF.obj
 0001:000dea60       ?GetLast@?$XVECTOR@PAVGRPANCHORPOINT@@@@QAEPAVGRPANCHORPOINT@@XZ 004dfa60 f i GRPFileTTF.obj
 0001:000dea80       ?GetLast@?$XVECTOR@PAVGRPSPLINE@@@@QAEPAVGRPSPLINE@@XZ 004dfa80 f i GRPFileTTF.obj
 0001:000deaa0       ?GetSize@?$XVECTOR@PAVGRPFILETTFGLYPHVERTEX@@@@QAEIXZ 004dfaa0 f i GRPFileTTF.obj
 0001:000deac0       ?GetSize@?$XVECTOR@PAVGRPSPLINE@@@@QAEIXZ 004dfac0 f i GRPFileTTF.obj
 0001:000deae0       ?ResizeAdd@?$XVECTOR@PAVGRPFILETTFGLYPH@@@@AAE_NXZ 004dfae0 f i GRPFileTTF.obj
 0001:000deba0       ?ResizeAdd@?$XVECTOR@PAVGRPFILETTFGLYPHVERTEX@@@@AAE_NXZ 004dfba0 f i GRPFileTTF.obj
 0001:000dec60       ?ResizeAdd@?$XVECTOR@PAVGRPSHAPE@@@@AAE_NXZ 004dfc60 f i GRPFileTTF.obj
 0001:000ded20       ?ResizeAdd@?$XVECTOR@PAVGRPSPLINE@@@@AAE_NXZ 004dfd20 f i GRPFileTTF.obj
 0001:000dede0       ?ResizeRemove@?$XVECTOR@H@@AAE_NI@Z 004dfde0 f i GRPFileTTF.obj
 0001:000dee50       ?Reverse@GRPSHAPE@@QAEXXZ  004dfe50 f i GRPFileTTF.obj
 0001:000deea0       ?SetAddInLimit@?$XMAP@HPAVGRPFILETTFGLYPH@@@@QAE_NH@Z 004dfea0 f i GRPFileTTF.obj
 0001:000deed0       ?SetAddInLimit@?$XMAP@HPAVGRPSHAPE@@@@QAE_NH@Z 004dfed0 f i GRPFileTTF.obj
 0001:000def00       ?SetAddInLimit@?$XVECTOR@H@@QAEXH@Z 004dff00 f i GRPFileTTF.obj
 0001:000def30       ?SetAddInLimit@?$XVECTOR@PAVGRPFILETTFGLYPH@@@@QAEXH@Z 004dff30 f i GRPFileTTF.obj
 0001:000def60       ?SetAddInLimit@?$XVECTOR@PAVGRPFILETTFGLYPHVERTEX@@@@QAEXH@Z 004dff60 f i GRPFileTTF.obj
 0001:000def90       ?SetAddInLimit@?$XVECTOR@PAVGRPSHAPE@@@@QAEXH@Z 004dff90 f i GRPFileTTF.obj
 0001:000defc0       ?SetIsMulti@?$XMAP@HPAVGRPFILETTFGLYPH@@@@QAEX_N@Z 004dffc0 f i GRPFileTTF.obj
 0001:000deff0       ?SetIsMulti@?$XMAP@HPAVGRPSHAPE@@@@QAEX_N@Z 004dfff0 f i GRPFileTTF.obj
 0001:000df020       ?SetIsMulti@?$XVECTOR@H@@QAEX_N@Z 004e0020 f i GRPFileTTF.obj
 0001:000df040       ?SetIsMulti@?$XVECTOR@PAVGRPFILETTFGLYPH@@@@QAEX_N@Z 004e0040 f i GRPFileTTF.obj
 0001:000df060       ?SetIsMulti@?$XVECTOR@PAVGRPFILETTFGLYPHVERTEX@@@@QAEX_N@Z 004e0060 f i GRPFileTTF.obj
 0001:000df080       ?SetIsMulti@?$XVECTOR@PAVGRPSHAPE@@@@QAEX_N@Z 004e0080 f i GRPFileTTF.obj
 0001:000df0a0       ??0GRPFONT@@QAE@XZ         004e00a0 f   GRPFont.obj
 0001:000df150       ??1GRPFONT@@UAE@XZ         004e0150 f   GRPFont.obj
 0001:000df240       ?LoadTTF@GRPFONT@@QAE_NAAVXPATH@@PA_WPAVGRPFONTATTRIBUTES@@@Z 004e0240 f   GRPFont.obj
 0001:000df420       ?GetGlyphShape@GRPFONT@@QAEPAVGRPSHAPE@@_W@Z 004e0420 f   GRPFont.obj
 0001:000df490       ?CreateGlyph@GRPFONT@@QAEPAVGRPELEMENT@@_W@Z 004e0490 f   GRPFont.obj
 0001:000e0110       ?TextBox@GRPFONT@@QAAPAVGRPTEXTBOX@@PAVGRPSCENE@@PA_WZZ 004e1110 f   GRPFont.obj
 0001:000e01b0       ?TextBox@GRPFONT@@QAAPAVGRPTEXTBOX@@PAVGRPSCENE@@HPA_WZZ 004e11b0 f   GRPFont.obj
 0001:000e0250       ?CreateTextBox@GRPFONT@@QAEPAVGRPTEXTBOX@@PAVGRPSCENE@@PA_WH@Z 004e1250 f   GRPFont.obj
 0001:000e0280       ?CreateTextBox@GRPFONT@@QAEPAVGRPTEXTBOX@@PAVGRPSCENE@@PAVGRPNODE@@PA_WH@Z 004e1280 f   GRPFont.obj
 0001:000e0380       ?CreateTextElement@GRPFONT@@QAEPAVGRPTEXTELEMENT@@PAVGRPNODE@@PA_WH@Z 004e1380 f   GRPFont.obj
 0001:000e0490       ?MeasureWidth@GRPFONT@@QAE_NMAAVXSTRING@@00@Z 004e1490 f   GRPFont.obj
 0001:000e05f0       ??0?$XMAP@_WPAVGRPELEMENT@@@@QAE@XZ 004e15f0 f i GRPFont.obj
 0001:000e0670       ??0?$XMAP@_WPAVGRPSHAPE@@@@QAE@XZ 004e1670 f i GRPFont.obj
 0001:000e06f0       ??0?$XVECTOR@_W@@QAE@XZ    004e16f0 f i GRPFont.obj
 0001:000e0710       ??0GRPMAPPINGPROJECTIONCUBIC@@QAE@XZ 004e1710 f i GRPFont.obj
 0001:000e0730       ??0GRPOBJECTBUILDERALGORITHM@@QAE@XZ 004e1730 f i GRPFont.obj
 0001:000e0750       ??0GRPOBJECTBUILDERALGORITHMTRIANGULIZATIONEAR@@QAE@PAVGRPOBJECTBUILDER@@@Z 004e1750 f i GRPFont.obj
 0001:000e0830       ??1?$XMAP@_WPAVGRPELEMENT@@@@UAE@XZ 004e1830 f i GRPFont.obj
 0001:000e0860       ??1?$XMAP@_WPAVGRPSHAPE@@@@UAE@XZ 004e1860 f i GRPFont.obj
 0001:000e0890       ??1?$XVECTOR@_W@@UAE@XZ    004e1890 f i GRPFont.obj
 0001:000e08e0       ??1GRPMAPPINGPROJECTIONCUBIC@@UAE@XZ 004e18e0 f i GRPFont.obj
 0001:000e0900       ??1GRPOBJECTBUILDERALGORITHM@@UAE@XZ 004e1900 f i GRPFont.obj
 0001:000e0950       ??1GRPOBJECTBUILDERALGORITHMEXTRUDE@@UAE@XZ 004e1950 f i GRPFont.obj
 0001:000e0970       ??1GRPOBJECTBUILDERALGORITHMSTROKE@@UAE@XZ 004e1970 f i GRPFont.obj
 0001:000e0990       ??1GRPOBJECTBUILDERALGORITHMTRIANGULIZATIONEAR@@UAE@XZ 004e1990 f i GRPFont.obj
 0001:000e09b0       ??4GRPFONTATTRIBUTES@@QAEAAV0@ABV0@@Z 004e19b0 f i GRPFont.obj
 0001:000e0a90       ??AXSTRING@@QAE_WH@Z       004e1a90 f i GRPFont.obj
 0001:000e0b00       ??_G?$XMAP@_WPAVGRPELEMENT@@@@UAEPAXI@Z 004e1b00 f i GRPFont.obj
 0001:000e0b00       ??_E?$XMAP@_WPAVGRPELEMENT@@@@UAEPAXI@Z 004e1b00 f i GRPFont.obj
 0001:000e0b30       ??_E?$XMAP@_WPAVGRPSHAPE@@@@UAEPAXI@Z 004e1b30 f i GRPFont.obj
 0001:000e0b30       ??_G?$XMAP@_WPAVGRPSHAPE@@@@UAEPAXI@Z 004e1b30 f i GRPFont.obj
 0001:000e0b60       ??_G?$XVECTOR@_W@@UAEPAXI@Z 004e1b60 f i GRPFont.obj
 0001:000e0b60       ??_E?$XVECTOR@_W@@UAEPAXI@Z 004e1b60 f i GRPFont.obj
 0001:000e0b90       ??_GGRPFONT@@UAEPAXI@Z     004e1b90 f i GRPFont.obj
 0001:000e0b90       ??_EGRPFONT@@UAEPAXI@Z     004e1b90 f i GRPFont.obj
 0001:000e0bd0       ??_GGRPMAPPINGPROJECTIONCUBIC@@UAEPAXI@Z 004e1bd0 f i GRPFont.obj
 0001:000e0bd0       ??_EGRPMAPPINGPROJECTIONCUBIC@@UAEPAXI@Z 004e1bd0 f i GRPFont.obj
 0001:000e0c00       ??_GGRPOBJECTBUILDERALGORITHM@@UAEPAXI@Z 004e1c00 f i GRPFont.obj
 0001:000e0c00       ??_EGRPOBJECTBUILDERALGORITHM@@UAEPAXI@Z 004e1c00 f i GRPFont.obj
 0001:000e0c30       ??_GGRPOBJECTBUILDERALGORITHMTRIANGULIZATIONEAR@@UAEPAXI@Z 004e1c30 f i GRPFont.obj
 0001:000e0c30       ??_EGRPOBJECTBUILDERALGORITHMTRIANGULIZATIONEAR@@UAEPAXI@Z 004e1c30 f i GRPFont.obj
 0001:000e0c60       ?Add@?$XMAP@_WPAVGRPSHAPE@@@@QAE_N_WPAVGRPSHAPE@@@Z 004e1c60 f i GRPFont.obj
 0001:000e0cc0       ?Add@?$XVECTOR@_W@@QAE_N_W@Z 004e1cc0 f i GRPFont.obj
 0001:000e0d50       ?Clean@?$XVECTOR@_W@@AAEXXZ 004e1d50 f i GRPFont.obj
 0001:000e0d90       ?Clean@GRPFONT@@AAEXXZ     004e1d90 f i GRPFont.obj
 0001:000e0dd0       ?Clean@GRPOBJECTBUILDERALGORITHM@@AAEXXZ 004e1dd0 f i GRPFont.obj
 0001:000e0e10       ?CreateCopy@GRPSHAPE@@QAEPAV1@XZ 004e1e10 f i GRPFont.obj
 0001:000e0fd0       ?Delete@?$XVECTOR@_W@@QAE_N_W@Z 004e1fd0 f i GRPFont.obj
 0001:000e1050       ?DeleteAll@?$XMAP@_WPAVGRPELEMENT@@@@QAE_NXZ 004e2050 f i GRPFont.obj
 0001:000e1080       ?DeleteAll@?$XMAP@_WPAVGRPSHAPE@@@@QAE_NXZ 004e2080 f i GRPFont.obj
 0001:000e10b0       ?DeleteAll@?$XVECTOR@_W@@QAE_NXZ 004e20b0 f i GRPFont.obj
 0001:000e1100       ?DeleteElementContents@?$XMAP@_WPAVGRPELEMENT@@@@QAE_NXZ 004e2100 f i GRPFont.obj
 0001:000e1120       ?DeleteElementContents@?$XMAP@_WPAVGRPSHAPE@@@@QAE_NXZ 004e2120 f i GRPFont.obj
 0001:000e1140       ?Find@?$XMAP@_WPAVGRPSHAPE@@@@QAEH_W@Z 004e2140 f i GRPFont.obj
 0001:000e1160       ?Find@?$XVECTOR@_W@@QAEH_W@Z 004e2160 f i GRPFont.obj
 0001:000e11c0       ?Get@?$XVECTOR@PAVGRPSHAPE@@@@QAEPAVGRPSHAPE@@H@Z 004e21c0 f i GRPFont.obj
 0001:000e1200       ?GetElement@?$XMAP@_WPAVGRPSHAPE@@@@QAEPAVGRPSHAPE@@H@Z 004e2200 f i GRPFont.obj
 0001:000e1220       ?GetInfo@GRPFILETTF@@QAEPAUstbtt_fontinfo@@XZ 004e2220 f i GRPFont.obj
 0001:000e1240       ?GetTTF@GRPFONT@@QAEPAVGRPFILETTF@@XZ 004e2240 f i GRPFont.obj
 0001:000e1260       ?IsEmpty@?$XVECTOR@PAVGRPSPLINE@@@@QAE_NXZ 004e2260 f i GRPFont.obj
 0001:000e1290       ?ResizeAdd@?$XVECTOR@_W@@AAE_NXZ 004e2290 f i GRPFont.obj
 0001:000e1350       ?ResizeRemove@?$XVECTOR@_W@@AAE_NI@Z 004e2350 f i GRPFont.obj
 0001:000e13c0       ?SetBevel@GRPOBJECTBUILDERALGORITHMSTROKE@@QAEXM@Z 004e23c0 f i GRPFont.obj
 0001:000e13e0       ?SetCloseSpline@GRPOBJECTBUILDERALGORITHMSTROKE@@QAEXH@Z 004e23e0 f i GRPFont.obj
 0001:000e1400       ?SetExtrude@GRPOBJECTBUILDERALGORITHMSTROKE@@QAEXM@Z 004e2400 f i GRPFont.obj
 0001:000e1420       ?SetInnerWidth@GRPOBJECTBUILDERALGORITHMSTROKE@@QAEXM@Z 004e2420 f i GRPFont.obj
 0001:000e1440       ?SetIsMulti@?$XMAP@_WPAVGRPELEMENT@@@@QAEX_N@Z 004e2440 f i GRPFont.obj
 0001:000e1470       ?SetIsMulti@?$XMAP@_WPAVGRPSHAPE@@@@QAEX_N@Z 004e2470 f i GRPFont.obj
 0001:000e14a0       ?SetIsMulti@?$XVECTOR@_W@@QAEX_N@Z 004e24a0 f i GRPFont.obj
 0001:000e14c0       ?SetJointType@GRPOBJECTBUILDERALGORITHMSTROKE@@QAEXW4GRPOBJECTBUILDERALGORITHMSTROKEJOINTTYPE@@@Z 004e24c0 f i GRPFont.obj
 0001:000e14e0       ?SetMitterWidth@GRPOBJECTBUILDERALGORITHMSTROKE@@QAEXM@Z 004e24e0 f i GRPFont.obj
 0001:000e1500       ?SetOuterWidth@GRPOBJECTBUILDERALGORITHMSTROKE@@QAEXM@Z 004e2500 f i GRPFont.obj
 0001:000e1520       ?SetPenType@GRPOBJECTBUILDERALGORITHMSTROKE@@QAEXW4GRPOBJECTBUILDERALGORITHMSTROKEPENTYPE@@@Z 004e2520 f i GRPFont.obj
 0001:000e1540       ??0GRPFONTMANAGER@@QAE@XZ  004e2540 f   GRPFontManager.obj
 0001:000e15c0       ??1GRPFONTMANAGER@@UAE@XZ  004e25c0 f   GRPFontManager.obj
 0001:000e1640       ?Load@GRPFONTMANAGER@@QAE_NPA_W0PAVGRPFONTATTRIBUTES@@@Z 004e2640 f   GRPFontManager.obj
 0001:000e1990       ?GetFont@GRPFONTMANAGER@@QAEPAVGRPFONT@@PB_W@Z 004e2990 f   GRPFontManager.obj
 0001:000e1a00       ??0?$XMAP@PAVXSTRING@@PAVGRPFONT@@@@QAE@XZ 004e2a00 f i GRPFontManager.obj
 0001:000e1a80       ??0?$XVECTOR@PAVGRPFONT@@@@QAE@XZ 004e2a80 f i GRPFontManager.obj
 0001:000e1aa0       ??1?$XMAP@PAVXSTRING@@PAVGRPFONT@@@@UAE@XZ 004e2aa0 f i GRPFontManager.obj
 0001:000e1ad0       ??1?$XVECTOR@PAVGRPFONT@@@@UAE@XZ 004e2ad0 f i GRPFontManager.obj
 0001:000e1b20       ??_G?$XMAP@PAVXSTRING@@PAVGRPFONT@@@@UAEPAXI@Z 004e2b20 f i GRPFontManager.obj
 0001:000e1b20       ??_E?$XMAP@PAVXSTRING@@PAVGRPFONT@@@@UAEPAXI@Z 004e2b20 f i GRPFontManager.obj
 0001:000e1b50       ??_E?$XVECTOR@PAVGRPFONT@@@@UAEPAXI@Z 004e2b50 f i GRPFontManager.obj
 0001:000e1b50       ??_G?$XVECTOR@PAVGRPFONT@@@@UAEPAXI@Z 004e2b50 f i GRPFontManager.obj
 0001:000e1b80       ??_GGRPFONTMANAGER@@UAEPAXI@Z 004e2b80 f i GRPFontManager.obj
 0001:000e1b80       ??_EGRPFONTMANAGER@@UAEPAXI@Z 004e2b80 f i GRPFontManager.obj
 0001:000e1bb0       ?Add@?$XMAP@PAVXSTRING@@PAVGRPFONT@@@@QAE_NPAVXSTRING@@PAVGRPFONT@@@Z 004e2bb0 f i GRPFontManager.obj
 0001:000e1c10       ?Add@?$XVECTOR@PAVGRPFONT@@@@QAE_NPAVGRPFONT@@@Z 004e2c10 f i GRPFontManager.obj
 0001:000e1ca0       ?Clean@?$XVECTOR@PAVGRPFONT@@@@AAEXXZ 004e2ca0 f i GRPFontManager.obj
 0001:000e1ce0       ?Clean@GRPFONTMANAGER@@AAEXXZ 004e2ce0 f i GRPFontManager.obj
 0001:000e1d10       ?DeleteAll@?$XMAP@PAVXSTRING@@PAVGRPFONT@@@@QAE_NXZ 004e2d10 f i GRPFontManager.obj
 0001:000e1d40       ?DeleteAll@?$XVECTOR@PAVGRPFONT@@@@QAE_NXZ 004e2d40 f i GRPFontManager.obj
 0001:000e1d90       ?DeleteContents@?$XVECTOR@PAVGRPFONT@@@@QAE_NXZ 004e2d90 f i GRPFontManager.obj
 0001:000e1e30       ?DeleteElementContents@?$XMAP@PAVXSTRING@@PAVGRPFONT@@@@QAE_NXZ 004e2e30 f i GRPFontManager.obj
 0001:000e1e50       ?DeleteKeyContents@?$XMAP@PAVXSTRING@@PAVGRPFONT@@@@QAE_NXZ 004e2e50 f i GRPFontManager.obj
 0001:000e1e70       ?GetKey@?$XMAP@PAVXSTRING@@PAVGRPFONT@@@@QAEPAVXSTRING@@H@Z 004e2e70 f i GRPFontManager.obj
 0001:000e1e90       ?GetLastError@GRPFONT@@QAEHXZ 004e2e90 f i GRPFontManager.obj
 0001:000e1eb0       ?ResizeAdd@?$XVECTOR@PAVGRPFONT@@@@AAE_NXZ 004e2eb0 f i GRPFontManager.obj
 0001:000e1f70       ?SetIsMulti@?$XMAP@PAVXSTRING@@PAVGRPFONT@@@@QAEX_N@Z 004e2f70 f i GRPFontManager.obj
 0001:000e1fa0       ?SetIsMulti@?$XVECTOR@PAVGRPFONT@@@@QAEX_N@Z 004e2fa0 f i GRPFontManager.obj
 0001:000e1fc0       ??1GRPLIGHT@@UAE@XZ        004e2fc0 f   GRPLight.obj
 0001:000e20c0       ?SetAttenuation@GRPLIGHT@@QAEXMMMM@Z 004e30c0 f   GRPLight.obj
 0001:000e2110       ?Update@GRPLIGHT@@QAEXPAVGRPMATRIX@@@Z 004e3110 f   GRPLight.obj
 0001:000e2380       ?BuildData@GRPLIGHT@@QAEXXZ 004e3380 f   GRPLight.obj
 0001:000e28f0       ?CopyFrom@GRPLIGHT@@QAE_NPAV1@@Z 004e38f0 f   GRPLight.obj
 0001:000e2a70       ?SetValue@GRPLIGHT@@UAE_NW4GRPANIMATIONCURVETYPE@@W4GRPANIMATIONCURVEAXIS@@NN@Z 004e3a70 f   GRPLight.obj
 0001:000e2be0       ?BuildShadowMap@GRPLIGHT@@QAE_NXZ 004e3be0 f   GRPLight.obj
 0001:000e2cd0       ?SetViewport@GRPLIGHT@@UAE_NPAVGRPVIEWPORT@@@Z 004e3cd0 f   GRPLight.obj
 0001:000e2d70       ??0GRPXEVENT@@QAE@PAVXSUBJECT@@I@Z 004e3d70 f i GRPLight.obj
 0001:000e2de0       ??0XEVENT@@QAE@PAVXSUBJECT@@I@Z 004e3de0 f i GRPLight.obj
 0001:000e2e20       ??1GRPXEVENT@@UAE@XZ       004e3e20 f i GRPLight.obj
 0001:000e2e70       ??BGRPVIEWPORT@@QAEPAVGRPMATRIX@@XZ 004e3e70 f i GRPLight.obj
 0001:000e2ec0       ??_EGRPXEVENT@@UAEPAXI@Z   004e3ec0 f i GRPLight.obj
 0001:000e2ec0       ??_GGRPXEVENT@@UAEPAXI@Z   004e3ec0 f i GRPLight.obj
 0001:000e2ef0       ?Clean@GRPXEVENT@@AAEXXZ   004e3ef0 f i GRPLight.obj
 0001:000e2f60       ?GetUpNode@GRPCAMERA@@QAEPAVGRPNODE@@XZ 004e3f60 f i GRPLight.obj
 0001:000e2f80       ?SetSize@GRPXEVENT@@QAEXHH@Z 004e3f80 f i GRPLight.obj
 0001:000e2fa0       ?SetWindowSize@GRPVIEWPORT@@QAEXMM@Z 004e3fa0 f i GRPLight.obj
 0001:000e30b0       ??0GRPLOADERTASK@@QAE@PA_W@Z 004e40b0 f   GRPLoader.obj
 0001:000e31c0       ??1GRPLOADERTASK@@UAE@XZ   004e41c0 f   GRPLoader.obj
 0001:000e32c0       ?AddLayer@GRPLOADERTASK@@UAEIPA_WII@Z 004e42c0 f   GRPLoader.obj
 0001:000e3360       ?GetSubjectType@GRPLOADERTASK@@UAEIXZ 004e4360 f   GRPLoader.obj
 0001:000e3370       ?Run@GRPLOADERTASK@@UAEXXZ 004e4370 f   GRPLoader.obj
 0001:000e37f0       ?Add@GRPLOADERTASK@@UAEXM@Z 004e47f0 f   GRPLoader.obj
 0001:000e3830       ?Update@GRPLOADERTASK@@UAEXXZ 004e4830 f   GRPLoader.obj
 0001:000e38f0       ?SetCurrent@GRPLOADERTASK@@UAEXM@Z 004e48f0 f   GRPLoader.obj
 0001:000e3910       ??0GRPLOADER@@QAE@XZ       004e4910 f   GRPLoader.obj
 0001:000e3a10       ?GetSubjectType@GRPLOADER@@UAEIXZ 004e4a10 f   GRPLoader.obj
 0001:000e3a20       ?Notify@GRPLOADER@@UAE_NW4GRPMSGTYPE@@PAVGRPSUBJECT@@@Z 004e4a20 f   GRPLoader.obj
 0001:000e3a80       ?CreateTask@GRPLOADER@@UAEPAVXLOADERTASK@@PA_W@Z 004e4a80 f   GRPLoader.obj
 0001:000e3b80       ?Print@GRPLOADER@@UAEXIPA_W@Z 004e4b80 f   GRPLoader.obj
 0001:000e3bc0       ??1GRPLOADER@@UAE@XZ       004e4bc0 f i GRPLoader.obj
 0001:000e3bf0       ??_DGRPLOADER@@QAEXXZ      004e4bf0 f i GRPLoader.obj
 0001:000e3c20       ??_DGRPLOADERTASK@@QAEXXZ  004e4c20 f i GRPLoader.obj
 0001:000e3c41       ??_EGRPLOADER@@W3AEPAXI@Z  004e4c41 f i GRPLoader.obj
 0001:000e3c49       ??_EGRPLOADER@@WLA@AEPAXI@Z 004e4c49 f i GRPLoader.obj
 0001:000e3c54       ??_EGRPLOADERTASK@@WLI@AEPAXI@Z 004e4c54 f i GRPLoader.obj
 0001:000e3c60       ??_GGRPLOADER@@UAEPAXI@Z   004e4c60 f i GRPLoader.obj
 0001:000e3c60       ??_EGRPLOADER@@UAEPAXI@Z   004e4c60 f i GRPLoader.obj
 0001:000e3ca0       ??_EGRPLOADERTASK@@UAEPAXI@Z 004e4ca0 f i GRPLoader.obj
 0001:000e3ca0       ??_GGRPLOADERTASK@@UAEPAXI@Z 004e4ca0 f i GRPLoader.obj
 0001:000e3ce0       ?Add@XLOADERTASK@@UAEXM@Z  004e4ce0 f i GRPLoader.obj
 0001:000e3d10       ?AttachConsole@GRPLOADER@@UAEXPAVGRPCONSOLE@@@Z 004e4d10 f i GRPLoader.obj
 0001:000e3d30       ?Clean@GRPLOADERTASK@@MAEXXZ 004e4d30 f i GRPLoader.obj
 0001:000e3d90       ?Exit@XTHREAD@@QAE_NXZ     004e4d90 f i GRPLoader.obj
 0001:000e3db0       ?GetTasks@XLOADER@@UAEPAV?$XVECTOR@PAVXLOADERTASK@@@@XZ 004e4db0 f i GRPLoader.obj
 0001:000e3dd0       ?IsAborted@XLOADERTASK@@UAE_NXZ 004e4dd0 f i GRPLoader.obj
 0001:000e3df0       ??0GRPLOADERINTERFACE@@QAE@XZ 004e4df0 f   GRPLoaderInterface.obj
 0001:000e3ef0       ??0GRPLOADERINTERFACE@@QAE@PAVGRPSCENE@@PA_WPAVGRPSHADERPROGRAM@@@Z 004e4ef0 f   GRPLoaderInterface.obj
 0001:000e4020       ?AddTask@GRPLOADERINTERFACE@@UAE_NPA_W@Z 004e5020 f   GRPLoaderInterface.obj
 0001:000e40b0       ?Notify@GRPLOADERINTERFACE@@UAE_NW4GRPMSGTYPE@@PAVGRPSUBJECT@@@Z 004e50b0 f   GRPLoaderInterface.obj
 0001:000e42f0       ?GetSubjectType@GRPLOADERINTERFACE@@UAEIXZ 004e52f0 f   GRPLoaderInterface.obj
 0001:000e4300       ?Init@GRPLOADERINTERFACE@@UAE_NXZ 004e5300 f   GRPLoaderInterface.obj
 0001:000e4840       ?Do@GRPLOADERINTERFACE@@UAE_NXZ 004e5840 f   GRPLoaderInterface.obj
 0001:000e4930       ?End@GRPLOADERINTERFACE@@QAE_NXZ 004e5930 f   GRPLoaderInterface.obj
 0001:000e49c0       ?Abort@GRPLOADERINTERFACE@@QAEXXZ 004e59c0 f   GRPLoaderInterface.obj
 0001:000e49e0       ?AttachConsole@GRPLOADERINTERFACE@@QAEXPAVGRPCONSOLE@@@Z 004e59e0 f   GRPLoaderInterface.obj
 0001:000e4a10       ?SetScene@GRPLOADERINTERFACE@@IAEXPAVGRPSCENE@@@Z 004e5a10 f   GRPLoaderInterface.obj
 0001:000e4a40       ?SetScreen@GRPLOADERINTERFACE@@IAEXPAVGRPSCREEN@@@Z 004e5a40 f   GRPLoaderInterface.obj
 0001:000e4a60       ?SetBitmap@GRPLOADERINTERFACE@@IAEXPA_W@Z 004e5a60 f   GRPLoaderInterface.obj
 0001:000e4a80       ?SetShader@GRPLOADERINTERFACE@@IAEXPAVGRPSHADERPROGRAM@@@Z 004e5a80 f   GRPLoaderInterface.obj
 0001:000e4aa0       ??1GRPLOADERINTERFACE@@UAE@XZ 004e5aa0 f i GRPLoaderInterface.obj
 0001:000e4ad0       ??_DGRPLOADERINTERFACE@@QAEXXZ 004e5ad0 f i GRPLoaderInterface.obj
 0001:000e4b00       ??_GGRPLOADERINTERFACE@@UAEPAXI@Z 004e5b00 f i GRPLoaderInterface.obj
 0001:000e4b00       ??_EGRPLOADERINTERFACE@@UAEPAXI@Z 004e5b00 f i GRPLoaderInterface.obj
 0001:000e4b50       ?Abort@XLOADER@@QAEXXZ     004e5b50 f i GRPLoaderInterface.obj
 0001:000e4bb0       ?Clean@GRPLOADERINTERFACE@@EAEXXZ 004e5bb0 f i GRPLoaderInterface.obj
 0001:000e4c10       ?Get@?$XVECTOR@PAVXLOADERTASK@@@@QAEPAVXLOADERTASK@@H@Z 004e5c10 f i GRPLoaderInterface.obj
 0001:000e4c50       ?GetCamera@GRPOBJECT@@QAEPAVGRPCAMERA@@XZ 004e5c50 f i GRPLoaderInterface.obj
 0001:000e4c80       ?GetLoader@GRPLOADERINTERFACE@@QAEPAVGRPLOADER@@XZ 004e5c80 f i GRPLoaderInterface.obj
 0001:000e4ca0       ?GetSize@?$XVECTOR@PAVXLOADERTASK@@@@QAEIXZ 004e5ca0 f i GRPLoaderInterface.obj
 0001:000e4cc0       ?SetClearColor@GRPPASS@@QAEXVGRPCOLOR@@@Z 004e5cc0 f i GRPLoaderInterface.obj
 0001:000e4d40       ??0GRPMAPPINGPROJECTION@@QAE@XZ 004e5d40 f   GRPMappingProjection.obj
 0001:000e4e10       ??0GRPMAPPINGPROJECTION@@QAE@PAVGRPELEMENT@@PAVGRPMATERIAL@@@Z 004e5e10 f   GRPMappingProjection.obj
 0001:000e4e60       ??1GRPMAPPINGPROJECTION@@UAE@XZ 004e5e60 f   GRPMappingProjection.obj
 0001:000e4e80       ?ReassignUVs@GRPMAPPINGPROJECTION@@UAEXPAVGRPELEMENT@@@Z 004e5e80 f   GRPMappingProjection.obj
 0001:000e4e90       ??_EGRPMAPPINGPROJECTION@@UAEPAXI@Z 004e5e90 f i GRPMappingProjection.obj
 0001:000e4e90       ??_GGRPMAPPINGPROJECTION@@UAEPAXI@Z 004e5e90 f i GRPMappingProjection.obj
 0001:000e4ec0       ?ProjectMapping@GRPMAPPINGPROJECTION@@UAE_NPAVGRPELEMENT@@@Z 004e5ec0 f i GRPMappingProjection.obj
 0001:000e4ed0       ?ProjectMapping@GRPMAPPINGPROJECTIONCUBIC@@UAE_NPAVGRPELEMENT@@@Z 004e5ed0 f   GRPMappingProjectionCubic.obj
 0001:000e51b0       ??0GRPMAPPINGPROJECTIONCYLINDER@@QAE@XZ 004e61b0 f   GRPMappingProjectionCylinder.obj
 0001:000e51e0       ?GetAngleToHorizontalAxis@GRPMAPPINGPROJECTIONCYLINDER@@QAEMPAVGRPPOINT@@0@Z 004e61e0 f   GRPMappingProjectionCylinder.obj
 0001:000e5280       ?ProjectMapping@GRPMAPPINGPROJECTIONCYLINDER@@UAE_NPAVGRPELEMENT@@@Z 004e6280 f   GRPMappingProjectionCylinder.obj
 0001:000e5560       ??1GRPMAPPINGPROJECTIONCYLINDER@@UAE@XZ 004e6560 f i GRPMappingProjectionCylinder.obj
 0001:000e5580       ??_GGRPMAPPINGPROJECTIONCYLINDER@@UAEPAXI@Z 004e6580 f i GRPMappingProjectionCylinder.obj
 0001:000e5580       ??_EGRPMAPPINGPROJECTIONCYLINDER@@UAEPAXI@Z 004e6580 f i GRPMappingProjectionCylinder.obj
 0001:000e55b0       ?ProjectMapping@GRPMAPPINGPROJECTIONPLANAR@@UAE_NPAVGRPELEMENT@@@Z 004e65b0 f   GRPMappingProjectionPlanar.obj
 0001:000e5a60       ?UseMaterialData@GRPMATERIALATTRIBUTES@@QAEXMH@Z 004e6a60 f   GRPMaterial.obj
 0001:000e5b10       ?UseMaterialData@GRPMATERIALATTRIBUTES@@QAEXMPAVGRPCOLOR@@H@Z 004e6b10 f   GRPMaterial.obj
 0001:000e5d00       ?UseMaterialData@GRPMATERIALATTRIBUTES@@QAEXMPAVGRPLIGHT@@H@Z 004e6d00 f   GRPMaterial.obj
 0001:000e5eb0       ?UpdateMaterialMatrix@GRPMATERIALATTRIBUTES@@QAEXXZ 004e6eb0 f   GRPMaterial.obj
 0001:000e6220       ??0GRPMATERIAL@@QAE@XZ     004e7220 f   GRPMaterial.obj
 0001:000e63f0       ??1GRPMATERIAL@@UAE@XZ     004e73f0 f   GRPMaterial.obj
 0001:000e64a0       ?Select@GRPMATERIAL@@QAE_NXZ 004e74a0 f   GRPMaterial.obj
 0001:000e6540       ?SetValue@GRPMATERIAL@@UAE_NW4GRPANIMATIONCURVETYPE@@W4GRPANIMATIONCURVEAXIS@@NN@Z 004e7540 f   GRPMaterial.obj
 0001:000e6900       ??0?$XMAP@IPAVGRPTEXTURE@@@@QAE@XZ 004e7900 f i GRPMaterial.obj
 0001:000e6980       ??0GRPMATERIALATTRIBUTES@@QAE@XZ 004e7980 f i GRPMaterial.obj
 0001:000e6a30       ??1?$XMAP@IPAVGRPTEXTURE@@@@UAE@XZ 004e7a30 f i GRPMaterial.obj
 0001:000e6a60       ??1GRPMATERIALATTRIBUTES@@UAE@XZ 004e7a60 f i GRPMaterial.obj
 0001:000e6af0       ??_DGRPMATERIAL@@QAEXXZ    004e7af0 f i GRPMaterial.obj
 0001:000e6b20       ??_E?$XMAP@IPAVGRPTEXTURE@@@@UAEPAXI@Z 004e7b20 f i GRPMaterial.obj
 0001:000e6b20       ??_G?$XMAP@IPAVGRPTEXTURE@@@@UAEPAXI@Z 004e7b20 f i GRPMaterial.obj
 0001:000e6b50       ??_GGRPMATERIAL@@UAEPAXI@Z 004e7b50 f i GRPMaterial.obj
 0001:000e6b50       ??_EGRPMATERIAL@@UAEPAXI@Z 004e7b50 f i GRPMaterial.obj
 0001:000e6ba0       ??_GGRPMATERIALATTRIBUTES@@UAEPAXI@Z 004e7ba0 f i GRPMaterial.obj
 0001:000e6ba0       ??_EGRPMATERIALATTRIBUTES@@UAEPAXI@Z 004e7ba0 f i GRPMaterial.obj
 0001:000e6be0       ?Clean@GRPMATERIAL@@AAEXXZ 004e7be0 f i GRPMaterial.obj
 0001:000e6d40       ?Clean@GRPMATERIALATTRIBUTES@@AAEXXZ 004e7d40 f i GRPMaterial.obj
 0001:000e6ed0       ?DeleteAll@?$XMAP@IPAVGRPTEXTURE@@@@QAE_NXZ 004e7ed0 f i GRPMaterial.obj
 0001:000e6f00       ?SetIsMulti@?$XMAP@IPAVGRPTEXTURE@@@@QAEX_N@Z 004e7f00 f i GRPMaterial.obj
 0001:000e6f30       ?GetLibrary@GRPMATERIALLIBRARY@@QAEPAV?$XMAP@PAVXSTRING@@PAVGRPMATERIAL@@@@XZ 004e7f30 f   GRPMaterialLibrary.obj
 0001:000e6f50       ?Load@GRPMATERIALLIBRARY@@QAE?AW4GRPMATERIALLOADRESULT@@PA_W0HH@Z 004e7f50 f   GRPMaterialLibrary.obj
 0001:000e73c0       ?Load@GRPMATERIALLIBRARY@@QAE?AW4GRPMATERIALLOADRESULT@@PAV?$XVECTOR@PAVXSTRING@@@@PA_WHH@Z 004e83c0 f   GRPMaterialLibrary.obj
 0001:000e7550       ?Create@GRPMATERIALLIBRARY@@QAEPAVGRPMATERIAL@@PA_W@Z 004e8550 f   GRPMaterialLibrary.obj
 0001:000e7620       ?Create@GRPMATERIALLIBRARY@@QAE_NPA_W0@Z 004e8620 f   GRPMaterialLibrary.obj
 0001:000e7a20       ?Create@GRPMATERIALLIBRARY@@QAE_NPA_WPAVGRPBITMAPSEQUENCE@@@Z 004e8a20 f   GRPMaterialLibrary.obj
 0001:000e7c50       ?CreateCubeMap@GRPMATERIALLIBRARY@@QAE_NPA_WPAVGRPBITMAPSEQUENCE@@@Z 004e8c50 f   GRPMaterialLibrary.obj
 0001:000e7e90       ?Create@GRPMATERIALLIBRARY@@QAE_NPAVGRPTEXTURE@@@Z 004e8e90 f   GRPMaterialLibrary.obj
 0001:000e8020       ?FindByName@GRPMATERIALLIBRARY@@QAEPAVGRPMATERIAL@@PA_W@Z 004e9020 f   GRPMaterialLibrary.obj
 0001:000e8090       ?Get@GRPMATERIALLIBRARY@@QAEPAVGRPMATERIAL@@PA_W@Z 004e9090 f   GRPMaterialLibrary.obj
 0001:000e8110       ?Delete@GRPMATERIALLIBRARY@@QAE_NPA_W@Z 004e9110 f   GRPMaterialLibrary.obj
 0001:000e8200       ?GetTexture@GRPMATERIALLIBRARY@@QAEPAVGRPTEXTURE@@PA_W@Z 004e9200 f   GRPMaterialLibrary.obj
 0001:000e8280       ?Select@GRPMATERIALLIBRARY@@QAEPAVGRPMATERIAL@@PA_W@Z 004e9280 f   GRPMaterialLibrary.obj
 0001:000e8350       ??0GRPMATERIALLIBRARY@@IAE@XZ 004e9350 f   GRPMaterialLibrary.obj
 0001:000e83d0       ??1GRPMATERIALLIBRARY@@MAE@XZ 004e93d0 f   GRPMaterialLibrary.obj
 0001:000e8470       ??0?$XMAP@PAVXSTRING@@PAVGRPMATERIAL@@@@QAE@XZ 004e9470 f i GRPMaterialLibrary.obj
 0001:000e84f0       ??0?$XMAP@PAVXSTRING@@PAVGRPTEXTURE@@@@QAE@XZ 004e94f0 f i GRPMaterialLibrary.obj
 0001:000e8570       ??1?$XMAP@PAVXSTRING@@PAVGRPMATERIAL@@@@UAE@XZ 004e9570 f i GRPMaterialLibrary.obj
 0001:000e85a0       ??1?$XMAP@PAVXSTRING@@PAVGRPTEXTURE@@@@UAE@XZ 004e95a0 f i GRPMaterialLibrary.obj
 0001:000e85d0       ??_G?$XMAP@PAVXSTRING@@PAVGRPMATERIAL@@@@UAEPAXI@Z 004e95d0 f i GRPMaterialLibrary.obj
 0001:000e85d0       ??_E?$XMAP@PAVXSTRING@@PAVGRPMATERIAL@@@@UAEPAXI@Z 004e95d0 f i GRPMaterialLibrary.obj
 0001:000e8600       ??_E?$XMAP@PAVXSTRING@@PAVGRPTEXTURE@@@@UAEPAXI@Z 004e9600 f i GRPMaterialLibrary.obj
 0001:000e8600       ??_G?$XMAP@PAVXSTRING@@PAVGRPTEXTURE@@@@UAEPAXI@Z 004e9600 f i GRPMaterialLibrary.obj
 0001:000e8630       ??_GGRPMATERIALLIBRARY@@MAEPAXI@Z 004e9630 f i GRPMaterialLibrary.obj
 0001:000e8630       ??_EGRPMATERIALLIBRARY@@MAEPAXI@Z 004e9630 f i GRPMaterialLibrary.obj
 0001:000e8670       ?Add@?$XMAP@PAVXSTRING@@PAVGRPTEXTURE@@@@QAE_NPAVXSTRING@@PAVGRPTEXTURE@@@Z 004e9670 f i GRPMaterialLibrary.obj
 0001:000e86d0       ?Add@GRPMATERIALLIBRARY@@QAE_NPAVGRPTEXTURE@@@Z 004e96d0 f i GRPMaterialLibrary.obj
 0001:000e8700       ?Clean@GRPMATERIALLIBRARY@@AAEXXZ 004e9700 f i GRPMaterialLibrary.obj
 0001:000e8720       ?Delete@?$XMAP@PAVXSTRING@@PAVGRPMATERIAL@@@@QAE_NPAVXSTRING@@@Z 004e9720 f i GRPMaterialLibrary.obj
 0001:000e8790       ?Delete@?$XVECTOR@PAVGRPMATERIAL@@@@QAE_NPAVGRPMATERIAL@@@Z 004e9790 f i GRPMaterialLibrary.obj
 0001:000e8800       ?DeleteAll@?$XMAP@PAVXSTRING@@PAVGRPMATERIAL@@@@QAE_NXZ 004e9800 f i GRPMaterialLibrary.obj
 0001:000e8830       ?DeleteAll@?$XMAP@PAVXSTRING@@PAVGRPTEXTURE@@@@QAE_NXZ 004e9830 f i GRPMaterialLibrary.obj
 0001:000e8860       ?DeleteElementContents@?$XMAP@PAVXSTRING@@PAVGRPMATERIAL@@@@QAE_NXZ 004e9860 f i GRPMaterialLibrary.obj
 0001:000e8880       ?DeleteElementContents@?$XMAP@PAVXSTRING@@PAVGRPTEXTURE@@@@QAE_NXZ 004e9880 f i GRPMaterialLibrary.obj
 0001:000e88a0       ?FastGetKey@?$XMAP@PAVXSTRING@@PAVGRPMATERIAL@@@@QAEPAVXSTRING@@H@Z 004e98a0 f i GRPMaterialLibrary.obj
 0001:000e88c0       ?GetBufferSize@GRPBITMAP@@QAEHXZ 004e98c0 f i GRPMaterialLibrary.obj
 0001:000e88e0       ?GetKey@?$XMAP@PAVXSTRING@@PAVGRPMATERIAL@@@@QAEPAVXSTRING@@H@Z 004e98e0 f i GRPMaterialLibrary.obj
 0001:000e8900       ?GetKey@?$XMAP@PAVXSTRING@@PAVGRPTEXTURE@@@@QAEPAVXSTRING@@H@Z 004e9900 f i GRPMaterialLibrary.obj
 0001:000e8920       ?ResizeRemove@?$XVECTOR@PAVGRPMATERIAL@@@@AAE_NI@Z 004e9920 f i GRPMaterialLibrary.obj
 0001:000e8990       ?SetFileName@GRPTEXTURE@@QAEXPA_W@Z 004e9990 f i GRPMaterialLibrary.obj
 0001:000e89b0       ?SetIsMulti@?$XMAP@PAVXSTRING@@PAVGRPMATERIAL@@@@QAEX_N@Z 004e99b0 f i GRPMaterialLibrary.obj
 0001:000e89e0       ?SetIsMulti@?$XMAP@PAVXSTRING@@PAVGRPTEXTURE@@@@QAEX_N@Z 004e99e0 f i GRPMaterialLibrary.obj
 0001:000e8a10       ?SetPath@GRPFILEBITMAP@@QAEXPA_W@Z 004e9a10 f i GRPMaterialLibrary.obj
 0001:000e8a30       ??0GRPMATRIX@@QAE@XZ       004e9a30 f   GRPMatrix.obj
 0001:000e8a50       ??1GRPMATRIX@@UAE@XZ       004e9a50 f   GRPMatrix.obj
 0001:000e8a70       ?GetMatrixPointer@GRPMATRIX@@QAEPAMXZ 004e9a70 f   GRPMatrix.obj
 0001:000e8aa0       ?LoadIdentity@GRPMATRIX@@QAEXXZ 004e9aa0 f   GRPMatrix.obj
 0001:000e8cb0       ?Inverse@GRPMATRIX@@QAEXXZ 004e9cb0 f   GRPMatrix.obj
 0001:000ea0b0       ?Inverse3x3@GRPMATRIX@@QAEXXZ 004eb0b0 f   GRPMatrix.obj
 0001:000ea770       ?Transpose@GRPMATRIX@@QAEXXZ 004eb770 f   GRPMatrix.obj
 0001:000eab30       ?Transpose3x3@GRPMATRIX@@QAEXXZ 004ebb30 f   GRPMatrix.obj
 0001:000eabc0       ?BuildDirectionMatrix@GRPMATRIX@@QAEPAV1@PAVGRPVECTOR@@0@Z 004ebbc0 f   GRPMatrix.obj
 0001:000eb0d0       ?BuildQuaternion@GRPMATRIX@@QAEPAV1@PAVGRPVECTOR@@0@Z 004ec0d0 f   GRPMatrix.obj
 0001:000eb0e0       ?BuildMatrixFromFloatArray@GRPMATRIX@@QAEPAV1@PAM@Z 004ec0e0 f   GRPMatrix.obj
 0001:000eb370       ?BuildMatrixFromFloatArray3x3@GRPMATRIX@@QAEPAV1@PAM@Z 004ec370 f   GRPMatrix.obj
 0001:000eb560       ?BuildMatrixFromFloatArray3x3@GRPMATRIX@@QAEPAV1@QAY02M@Z 004ec560 f   GRPMatrix.obj
 0001:000eb7f0       ?BuildOrthoProjectionMatrix@GRPMATRIX@@QAEPAV1@MMMMMM@Z 004ec7f0 f   GRPMatrix.obj
 0001:000ebac0       ?BuildFrustumProjectionMatrix@GRPMATRIX@@QAEPAV1@MMMMMM@Z 004ecac0 f   GRPMatrix.obj
 0001:000ebdb0       ?BuildPixelProjectionMatrix@GRPMATRIX@@QAEPAV1@MMMMMM@Z 004ecdb0 f   GRPMatrix.obj
 0001:000ec080       ?BuildScaleMatrix@GRPMATRIX@@QAEPAV1@MMM@Z 004ed080 f   GRPMatrix.obj
 0001:000ec100       ?BuildScaleMatrix@GRPMATRIX@@QAEPAV1@PBM@Z 004ed100 f   GRPMatrix.obj
 0001:000ec320       ?BuildTranslationMatrix@GRPMATRIX@@QAEXVGRPVECTOR@@@Z 004ed320 f   GRPMatrix.obj
 0001:000ec370       ?BuildTranslationMatrix@GRPMATRIX@@QAEXQAM@Z 004ed370 f   GRPMatrix.obj
 0001:000ec3d0       ?BuildTranslationMatrix@GRPMATRIX@@QAEXMMM@Z 004ed3d0 f   GRPMatrix.obj
 0001:000ec5e0       ?fastBuildRotationMatrix@GRPMATRIX@@QAEXQBMH@Z 004ed5e0 f   GRPMatrix.obj
 0001:000ecbf0       ?BuildRotationMatrix@GRPMATRIX@@QAEXQBMH@Z 004edbf0 f   GRPMatrix.obj
 0001:000ecd50       ?BuildRotationMatrix@GRPMATRIX@@QAEXMQBM@Z 004edd50 f   GRPMatrix.obj
 0001:000ed1d0       ?BuildRotationMatrixX@GRPMATRIX@@QAEPAV1@M@Z 004ee1d0 f   GRPMatrix.obj
 0001:000ed430       ?BuildRotationMatrixY@GRPMATRIX@@QAEPAV1@M@Z 004ee430 f   GRPMatrix.obj
 0001:000ed690       ?BuildRotationMatrixZ@GRPMATRIX@@QAEPAV1@M@Z 004ee690 f   GRPMatrix.obj
 0001:000ed8f0       ?BuildRotationMatrix@GRPMATRIX@@QAEXMMMM@Z 004ee8f0 f   GRPMatrix.obj
 0001:000ed970       ?BuildRotationMatrixQ@GRPMATRIX@@QAEXMMMM@Z 004ee970 f   GRPMatrix.obj
 0001:000edca0       ?CalculateQ@GRPMATRIX@@QAEXAAVGRPPOINT@@@Z 004eeca0 f   GRPMatrix.obj
 0001:000ee310       ?BuildRotationFromQuat@GRPMATRIX@@QAEXMMMM@Z 004ef310 f   GRPMatrix.obj
 0001:000ee660       ?BuildPivotMatrix@GRPMATRIX@@QAEPAV1@MMM@Z 004ef660 f   GRPMatrix.obj
 0001:000ee880       ?BuildShearMatrix@GRPMATRIX@@QAEPAV1@MMM@Z 004ef880 f   GRPMatrix.obj
 0001:000eead0       ?BuildScalePivotTranslationMatrix@GRPMATRIX@@QAEPAV1@MMM@Z 004efad0 f   GRPMatrix.obj
 0001:000eeaf0       ??4GRPMATRIX@@QAE?BV0@QAY03M@Z 004efaf0 f   GRPMatrix.obj
 0001:000eeb60       ??DGRPMATRIX@@QAE?BV0@ABV0@@Z 004efb60 f   GRPMatrix.obj
 0001:000eec00       ??DGRPMATRIX@@QAE?BV0@AAV0@@Z 004efc00 f   GRPMatrix.obj
 0001:000eeca0       ??4GRPMATRIX@@QAE?BV0@ABV0@@Z 004efca0 f   GRPMatrix.obj
 0001:000ef010       ??DGRPMATRIX@@QAE?BVGRPVECTOR@@V1@@Z 004f0010 f   GRPMatrix.obj
 0001:000ef080       ?Extract3x3NormalMatrix@GRPMATRIX@@QAEXPAY122M@Z 004f0080 f   GRPMatrix.obj
 0001:000ef240       ?TransformPoint@GRPMATRIX@@QAE?AVGRPVECTOR@@V2@@Z 004f0240 f   GRPMatrix.obj
 0001:000ef620       ?TransformVector@GRPMATRIX@@QAE?AVGRPVECTOR@@V2@@Z 004f0620 f   GRPMatrix.obj
 0001:000ef810       ?GetPosition@GRPMATRIX@@QAEXPAVGRPPOINT@@@Z 004f0810 f   GRPMatrix.obj
 0001:000ef880       ?GetMultiplicationMatrix@GRPMATRIX@@QAEXPBV1@0@Z 004f0880 f   GRPMatrix.obj
 0001:000f01b0       ?GetMultiplicationMatrix@GRPMATRIX@@QAEXABV1@0@Z 004f11b0 f   GRPMatrix.obj
 0001:000f0ae0       ?GetMultiplicationMatrix2@GRPMATRIX@@QAEXABV1@0@Z 004f1ae0 f   GRPMatrix.obj
 0001:000f13a0       ?CopyTo@GRPMATRIX@@QAEXPAM@Z 004f23a0 f   GRPMatrix.obj
 0001:000f15b0       ?CopyTo@GRPMATRIX@@QAEXPAY0BA@M@Z 004f25b0 f   GRPMatrix.obj
 0001:000f1840       ?CopyTo@GRPMATRIX@@QAEXPAY133M@Z 004f2840 f   GRPMatrix.obj
 0001:000f18b0       ?CopyTo@GRPMATRIX@@QAEXPAY122M@Z 004f28b0 f   GRPMatrix.obj
 0001:000f1920       ?GetNormalMatrix@GRPMATRIX@@QAEXPAY122M@Z 004f2920 f   GRPMatrix.obj
 0001:000f19d0       ?GetNormalMatrix@GRPMATRIX@@QAEXPAY133M@Z 004f29d0 f   GRPMatrix.obj
 0001:000f1a00       ??0GRPMATRIX@@QAE@H@Z      004f2a00 f i GRPMatrix.obj
 0001:000f1a30       ??0GRPMATRIX@@QAE@MMMMMMMMMMMMMMMM@Z 004f2a30 f i GRPMatrix.obj
 0001:000f1c60       _cosf                      004f2c60 f i GRPMatrix.obj
 0001:000f1c90       _sinf                      004f2c90 f i GRPMatrix.obj
 0001:000f1cc0       _sqrtf                     004f2cc0 f i GRPMatrix.obj
 0001:000f1cf0       ??0GRPMESH@@QAE@XZ         004f2cf0 f   GRPMesh.obj
 0001:000f1db0       ??1GRPMESH@@UAE@XZ         004f2db0 f   GRPMesh.obj
 0001:000f1e30       ?Destroy@GRPMESH@@QAEXXZ   004f2e30 f   GRPMesh.obj
 0001:000f1f10       ?SetNvertexperface@GRPMESH@@QAEXH@Z 004f2f10 f   GRPMesh.obj
 0001:000f1f30       ?GetNvertexData@GRPMESH@@QAEIXZ 004f2f30 f   GRPMesh.obj
 0001:000f1f50       ?SetNvertexData@GRPMESH@@QAEXI@Z 004f2f50 f   GRPMesh.obj
 0001:000f1f70       ?GetVertexData@GRPMESH@@QAEPAUGRPVERTEX@@XZ 004f2f70 f   GRPMesh.obj
 0001:000f1f90       ?SetVertexData@GRPMESH@@QAEXPAUGRPVERTEX@@@Z 004f2f90 f   GRPMesh.obj
 0001:000f1fb0       ?SetIndexData@GRPMESH@@QAEXPAG@Z 004f2fb0 f   GRPMesh.obj
 0001:000f1fd0       ?GetNindexData@GRPMESH@@QAEIXZ 004f2fd0 f   GRPMesh.obj
 0001:000f1ff0       ?SetNindexData@GRPMESH@@QAEXI@Z 004f2ff0 f   GRPMesh.obj
 0001:000f2010       ?GetNVertex@GRPMESH@@QAEIXZ 004f3010 f   GRPMesh.obj
 0001:000f2030       ?SetNVertex@GRPMESH@@QAEXH@Z 004f3030 f   GRPMesh.obj
 0001:000f2050       ?GetIndexData@GRPMESH@@QAEPAGXZ 004f3050 f   GRPMesh.obj
 0001:000f2070       ?GetNIndex@GRPMESH@@QAEIXZ 004f3070 f   GRPMesh.obj
 0001:000f2090       ?GetNFaces@GRPMESH@@QAEGXZ 004f3090 f   GRPMesh.obj
 0001:000f20c0       ?GetFaces@GRPMESH@@QAEPAV?$XVECTOR@PAVGRPFACE@@@@XZ 004f30c0 f   GRPMesh.obj
 0001:000f20e0       ?GetNVertexPerFace@GRPMESH@@QAEHXZ 004f30e0 f   GRPMesh.obj
 0001:000f2100       ?SetIsLoaded@GRPMESH@@QAEX_N@Z 004f3100 f   GRPMesh.obj
 0001:000f2120       ?SetMaxindex@GRPMESH@@QAEXH@Z 004f3120 f   GRPMesh.obj
 0001:000f2140       ?LoadModel@GRPMESH@@QAE_NHPAM00@Z 004f3140 f   GRPMesh.obj
 0001:000f23a0       ?LoadModel@GRPMESH@@QAE_NPAV?$XVECTOR@PAVGRPFACE@@@@@Z 004f33a0 f   GRPMesh.obj
 0001:000f2480       ?Create@GRPMESH@@QAE_NPAV?$XVECTOR@M@@PAV?$XVECTOR@H@@0@Z 004f3480 f   GRPMesh.obj
 0001:000f2cf0       ?SetFaceBuffers@GRPMESH@@QAE_NXZ 004f3cf0 f   GRPMesh.obj
 0001:000f3110       ?PopulateVertices@GRPMESH@@QAEXXZ 004f4110 f   GRPMesh.obj
 0001:000f3360       ?ReassignUVs@GRPMESH@@QAEXXZ 004f4360 f   GRPMesh.obj
 0001:000f34f0       ?Merge@GRPMESH@@QAEXPAV1@@Z 004f44f0 f   GRPMesh.obj
 0001:000f3500       ??0?$XVECTOR@PAVGRPFACE@@@@QAE@XZ 004f4500 f i GRPMesh.obj
 0001:000f3520       ??0?$XVECTOR@W4GRPVERTEX_CHANNEL@@@@QAE@XZ 004f4520 f i GRPMesh.obj
 0001:000f3540       ??0GRPFACE@@QAE@PAV0@@Z    004f4540 f i GRPMesh.obj
 0001:000f3860       ??1?$XVECTOR@PAVGRPFACE@@@@UAE@XZ 004f4860 f i GRPMesh.obj
 0001:000f38b0       ??1?$XVECTOR@W4GRPVERTEX_CHANNEL@@@@UAE@XZ 004f48b0 f i GRPMesh.obj
 0001:000f3900       ??_DGRPMESH@@QAEXXZ        004f4900 f i GRPMesh.obj
 0001:000f3930       ??_E?$XVECTOR@PAVGRPFACE@@@@UAEPAXI@Z 004f4930 f i GRPMesh.obj
 0001:000f3930       ??_G?$XVECTOR@PAVGRPFACE@@@@UAEPAXI@Z 004f4930 f i GRPMesh.obj
 0001:000f3960       ??_E?$XVECTOR@W4GRPVERTEX_CHANNEL@@@@UAEPAXI@Z 004f4960 f i GRPMesh.obj
 0001:000f3960       ??_G?$XVECTOR@W4GRPVERTEX_CHANNEL@@@@UAEPAXI@Z 004f4960 f i GRPMesh.obj
 0001:000f3990       ??_EGRPMESH@@UAEPAXI@Z     004f4990 f i GRPMesh.obj
 0001:000f3990       ??_GGRPMESH@@UAEPAXI@Z     004f4990 f i GRPMesh.obj
 0001:000f39d0       ?Add@GRPFACE@@QAEXPAVGRPPOINT@@@Z 004f49d0 f i GRPMesh.obj
 0001:000f3a00       ?Clean@?$XVECTOR@PAVGRPFACE@@@@AAEXXZ 004f4a00 f i GRPMesh.obj
 0001:000f3a40       ?Clean@?$XVECTOR@W4GRPVERTEX_CHANNEL@@@@AAEXXZ 004f4a40 f i GRPMesh.obj
 0001:000f3a80       ?Clean@GRPMESH@@AAEXXZ     004f4a80 f i GRPMesh.obj
 0001:000f3af0       ?FastGet@?$XVECTOR@PAVGRPFACE@@@@QAEPAVGRPFACE@@H@Z 004f4af0 f i GRPMesh.obj
 0001:000f3b10       ?GetSize@?$XVECTOR@H@@QAEIXZ 004f4b10 f i GRPMesh.obj
 0001:000f3b30       ?GetSize@?$XVECTOR@M@@QAEIXZ 004f4b30 f i GRPMesh.obj
 0001:000f3b50       ?GetParent@GRPATTACHEABLE@@QAEPAVGRPNODE@@XZ 004f4b50 f   GRPNode.obj
 0001:000f3b70       ?SetParent@GRPATTACHEABLE@@QAEXPAVGRPNODE@@@Z 004f4b70 f   GRPNode.obj
 0001:000f3c10       ?Dettach@GRPATTACHEABLE@@QAEXXZ 004f4c10 f   GRPNode.obj
 0001:000f3c70       ??0GRPNODE@@QAE@XZ         004f4c70 f   GRPNode.obj
 0001:000f4120       ??1GRPNODE@@UAE@XZ         004f5120 f   GRPNode.obj
 0001:000f43f0       ?GetModelMatrix@GRPNODE@@QAEPAVGRPMATRIX@@XZ 004f53f0 f   GRPNode.obj
 0001:000f4410       ?GetMatrix@GRPNODE@@QAE?AVGRPMATRIX@@XZ 004f5410 f   GRPNode.obj
 0001:000f4450       ?GetLocalMatrix@GRPNODE@@QAE?AVGRPMATRIX@@XZ 004f5450 f   GRPNode.obj
 0001:000f44a0       ?GetCurrentMatrix@GRPNODE@@QAE?AVGRPMATRIX@@XZ 004f54a0 f   GRPNode.obj
 0001:000f44e0       ?GetWorldMatrix@GRPNODE@@QAEAAVGRPMATRIX@@XZ 004f54e0 f   GRPNode.obj
 0001:000f4510       ?GetWorldMatrixPointer@GRPNODE@@QAEPAVGRPMATRIX@@XZ 004f5510 f   GRPNode.obj
 0001:000f4540       ?UpdateWorldMatrix@GRPNODE@@QAEXXZ 004f5540 f   GRPNode.obj
 0001:000f4560       ?UpdateWorldMatrix@GRPNODE@@QAEXPA_N@Z 004f5560 f   GRPNode.obj
 0001:000f45d0       ?GetWorldPosition@GRPNODE@@QAE?AVGRPVECTOR@@XZ 004f55d0 f   GRPNode.obj
 0001:000f4600       ?GetWorldPosition@GRPNODE@@QAE?AVGRPVECTOR@@ABV2@@Z 004f5600 f   GRPNode.obj
 0001:000f4680       ?GetWorldPosition@GRPNODE@@QAE?AVGRPVECTOR@@PAV2@@Z 004f5680 f   GRPNode.obj
 0001:000f4700       ?GetGeometricMatrix@GRPNODE@@QAEPAVGRPMATRIX@@XZ 004f5700 f   GRPNode.obj
 0001:000f4720       ?Push@GRPNODE@@QAE_NXZ     004f5720 f   GRPNode.obj
 0001:000f4980       ?Pop@GRPNODE@@QAE?AVGRPMATRIX@@XZ 004f5980 f   GRPNode.obj
 0001:000f4aa0       ?GetStack@GRPNODE@@QAEPAVGRPMATRIXSTACK@@XZ 004f5aa0 f   GRPNode.obj
 0001:000f4ac0       ?LinkTo@GRPNODE@@QAE_NPAV1@@Z 004f5ac0 f   GRPNode.obj
 0001:000f4b40       ?CanBeLinkedTo@GRPNODE@@UAE_NXZ 004f5b40 f   GRPNode.obj
 0001:000f4b50       ?OnLinkedTo@GRPNODE@@UAE_NPAV1@@Z 004f5b50 f   GRPNode.obj
 0001:000f4c00       ?GetUserData@GRPNODE@@QAEPAVGRPUSERDATACONTAINER@@XZ 004f5c00 f   GRPNode.obj
 0001:000f4c20       ?Init@GRPNODE@@QAEXXZ      004f5c20 f   GRPNode.obj
 0001:000f4c70       ?InitMaya@GRPNODE@@QAEXXZ  004f5c70 f   GRPNode.obj
 0001:000f52d0       ?InitMax@GRPNODE@@QAEXXZ   004f62d0 f   GRPNode.obj
 0001:000f5550       ?Update@GRPNODE@@QAEXXZ    004f6550 f   GRPNode.obj
 0001:000f55e0       ?GenUpdate@GRPNODE@@QAEXXZ 004f65e0 f   GRPNode.obj
 0001:000f5990       ?MaxUpdate@GRPNODE@@QAEXXZ 004f6990 f   GRPNode.obj
 0001:000f5c50       ?MayaUpdate@GRPNODE@@QAEXXZ 004f6c50 f   GRPNode.obj
 0001:000f5ed0       ?PreUpdate@GRPNODE@@QAEXXZ 004f6ed0 f   GRPNode.obj
 0001:000f5ee0       ?SetPosition@GRPNODE@@QAEXMMM@Z 004f6ee0 f   GRPNode.obj
 0001:000f5f50       ?SetScale@GRPNODE@@QAEXM@Z 004f6f50 f   GRPNode.obj
 0001:000f5f90       ?SetScale@GRPNODE@@QAEXMMM@Z 004f6f90 f   GRPNode.obj
 0001:000f6000       ?SetRotation@GRPNODE@@QAEXMMM@Z 004f7000 f   GRPNode.obj
 0001:000f6070       ?SetRotationQ@GRPNODE@@QAEXMMMM@Z 004f7070 f   GRPNode.obj
 0001:000f6080       ?SetGeometricPosition@GRPNODE@@QAEXMMM@Z 004f7080 f   GRPNode.obj
 0001:000f60e0       ?SetGeometricScale@GRPNODE@@QAEXM@Z 004f70e0 f   GRPNode.obj
 0001:000f6120       ?SetGeometricScale@GRPNODE@@QAEXMMM@Z 004f7120 f   GRPNode.obj
 0001:000f6180       ?SetGeometricRotation@GRPNODE@@QAEXMMM@Z 004f7180 f   GRPNode.obj
 0001:000f61e0       ?SetValue@GRPNODE@@UAE_NW4GRPANIMATIONCURVETYPE@@W4GRPANIMATIONCURVEAXIS@@NN@Z 004f71e0 f   GRPNode.obj
 0001:000f6520       ?GetIsVisible@GRPNODE@@QAE_NXZ 004f7520 f   GRPNode.obj
 0001:000f6590       ?SetVisible@GRPNODE@@QAEX_N@Z 004f7590 f   GRPNode.obj
 0001:000f65d0       ?GetMaterial@GRPNODE@@QAEPAVGRPMATERIAL@@XZ 004f75d0 f   GRPNode.obj
 0001:000f65f0       ?GetBaseMaterial@GRPNODE@@QAEPAVGRPMATERIALATTRIBUTES@@XZ 004f75f0 f   GRPNode.obj
 0001:000f6610       ?SetBaseMaterial@GRPNODE@@QAEXPAVGRPMATERIALATTRIBUTES@@@Z 004f7610 f   GRPNode.obj
 0001:000f6640       ?SetMaterial@GRPNODE@@QAEXPAVGRPMATERIAL@@@Z 004f7640 f   GRPNode.obj
 0001:000f6680       ?Copy@GRPNODE@@QAEXPAV1@@Z 004f7680 f   GRPNode.obj
 0001:000f6a80       ??0?$XSTACK@PAVGRPMATRIX@@@@QAE@XZ 004f7a80 f i GRPNode.obj
 0001:000f6ab0       ??0?$XVECTOR@PAVGRPMATRIX@@@@QAE@XZ 004f7ab0 f i GRPNode.obj
 0001:000f6ad0       ??0GRPMATRIXSTACK@@QAE@XZ  004f7ad0 f i GRPNode.obj
 0001:000f6b40       ??1?$XSTACK@PAVGRPMATRIX@@@@UAE@XZ 004f7b40 f i GRPNode.obj
 0001:000f6b60       ??1?$XVECTOR@PAVGRPMATRIX@@@@UAE@XZ 004f7b60 f i GRPNode.obj
 0001:000f6bb0       ??1GRPMATRIXSTACK@@UAE@XZ  004f7bb0 f i GRPNode.obj
 0001:000f6bd0       ??4GRPVECTOR@@QAEAAV0@VGRPPOINT@@@Z 004f7bd0 f i GRPNode.obj
 0001:000f6c30       ??_DGRPNODE@@QAEXXZ        004f7c30 f i GRPNode.obj
 0001:000f6c60       ??_E?$XSTACK@PAVGRPMATRIX@@@@UAEPAXI@Z 004f7c60 f i GRPNode.obj
 0001:000f6c60       ??_G?$XSTACK@PAVGRPMATRIX@@@@UAEPAXI@Z 004f7c60 f i GRPNode.obj
 0001:000f6c90       ??_G?$XVECTOR@PAVGRPMATRIX@@@@UAEPAXI@Z 004f7c90 f i GRPNode.obj
 0001:000f6c90       ??_E?$XVECTOR@PAVGRPMATRIX@@@@UAEPAXI@Z 004f7c90 f i GRPNode.obj
 0001:000f6cc0       ??_GGRPMATRIXSTACK@@UAEPAXI@Z 004f7cc0 f i GRPNode.obj
 0001:000f6cc0       ??_EGRPMATRIXSTACK@@UAEPAXI@Z 004f7cc0 f i GRPNode.obj
 0001:000f6cf0       ??_EGRPNODE@@UAEPAXI@Z     004f7cf0 f i GRPNode.obj
 0001:000f6cf0       ??_GGRPNODE@@UAEPAXI@Z     004f7cf0 f i GRPNode.obj
 0001:000f6d40       ?Add@?$XVECTOR@PAVGRPMATRIX@@@@QAE_NPAVGRPMATRIX@@@Z 004f7d40 f i GRPNode.obj
 0001:000f6dd0       ?Clean@?$XVECTOR@PAVGRPMATRIX@@@@AAEXXZ 004f7dd0 f i GRPNode.obj
 0001:000f6e10       ?Delete@?$XVECTOR@PAVGRPMATRIX@@@@QAE_NPAVGRPMATRIX@@@Z 004f7e10 f i GRPNode.obj
 0001:000f6e80       ?DeleteAll@?$XVECTOR@PAVGRPMATRIX@@@@QAE_NXZ 004f7e80 f i GRPNode.obj
 0001:000f6ed0       ?FastGet@?$XVECTOR@PAVGRPINTERFACEANIMABLE@@@@QAEPAVGRPINTERFACEANIMABLE@@H@Z 004f7ed0 f i GRPNode.obj
 0001:000f6ef0       ?Get@?$XVECTOR@PAVGRPMATRIX@@@@QAEPAVGRPMATRIX@@H@Z 004f7ef0 f i GRPNode.obj
 0001:000f6f30       ?Get@GRPMATRIXSTACK@@QAEPAVGRPMATRIX@@XZ 004f7f30 f i GRPNode.obj
 0001:000f7040       ?GetLast@?$XVECTOR@PAVGRPMATRIX@@@@QAEPAVGRPMATRIX@@XZ 004f8040 f i GRPNode.obj
 0001:000f7060       ?GetSize@?$XVECTOR@PAVGRPMATRIX@@@@QAEIXZ 004f8060 f i GRPNode.obj
 0001:000f7080       ?Pop@?$XSTACK@PAVGRPMATRIX@@@@QAEPAVGRPMATRIX@@XZ 004f8080 f i GRPNode.obj
 0001:000f70b0       ?Push@?$XSTACK@PAVGRPMATRIX@@@@QAEXPAVGRPMATRIX@@@Z 004f80b0 f i GRPNode.obj
 0001:000f70d0       ?ResizeAdd@?$XVECTOR@PAVGRPMATRIX@@@@AAE_NXZ 004f80d0 f i GRPNode.obj
 0001:000f7190       ?ResizeRemove@?$XVECTOR@PAVGRPMATRIX@@@@AAE_NI@Z 004f8190 f i GRPNode.obj
 0001:000f7200       ?CreateNode@GRPNODEMANAGER@@QAEPAVGRPNODE@@XZ 004f8200 f   GRPNodeManager.obj
 0001:000f72a0       ?DestroyNode@GRPNODEMANAGER@@QAE_NPAVGRPNODE@@@Z 004f82a0 f   GRPNodeManager.obj
 0001:000f7330       ?DestroyAll@GRPNODEMANAGER@@QAE_NXZ 004f8330 f   GRPNodeManager.obj
 0001:000f73c0       ?GetPool@GRPNODEMANAGER@@IAEPAV?$XVECTOR@PAVGRPNODE@@@@XZ 004f83c0 f   GRPNodeManager.obj
 0001:000f73d0       ??0GRPNODEMANAGER@@IAE@XZ  004f83d0 f i GRPNodeManager.obj
 0001:000f7430       ?Get@GRPNODEMANAGER@@SAPAV1@XZ 004f8430 f i GRPNodeManager.obj
 0001:000f74c0       ??0GRPOBJECT@@QAE@XZ       004f84c0 f   GRPObject.obj
 0001:000f76f0       ??1GRPOBJECT@@UAE@XZ       004f86f0 f   GRPObject.obj
 0001:000f78f0       ?SetTag@GRPOBJECT@@UAEX_K@Z 004f88f0 f   GRPObject.obj
 0001:000f7970       ?Draw@GRPOBJECT@@UAE_NAAVGRPMATRIX@@PAVGRPSCENE@@@Z 004f8970 f   GRPObject.obj
 0001:000f7a20       ?GetMaterial@GRPOBJECT@@QAEPAVGRPMATERIAL@@XZ 004f8a20 f   GRPObject.obj
 0001:000f7a40       ?SetMaterial@GRPOBJECT@@QAEXPAVGRPMATERIAL@@@Z 004f8a40 f   GRPObject.obj
 0001:000f7ac0       ?SetProgram@GRPOBJECT@@QAEXPAVGRPSHADERPROGRAM@@@Z 004f8ac0 f   GRPObject.obj
 0001:000f7b40       ?SetRenderMode@GRPOBJECT@@QAEXW4GRPRENDERMODE@@@Z 004f8b40 f   GRPObject.obj
 0001:000f7b90       ?FindByName@GRPOBJECT@@QAEPAVGRPELEMENT@@PA_W@Z 004f8b90 f   GRPObject.obj
 0001:000f7c30       ?AddElement@GRPOBJECT@@QAE_NPAVGRPELEMENT@@@Z 004f8c30 f   GRPObject.obj
 0001:000f7c60       ?AddText@GRPOBJECT@@QAE_NPAVGRPTEXTELEMENT@@@Z 004f8c60 f   GRPObject.obj
 0001:000f7c90       ?GetElements@GRPOBJECT@@QAEPAV?$XVECTOR@PAVGRPELEMENT@@@@XZ 004f8c90 f   GRPObject.obj
 0001:000f7cb0       ?GetProgram@GRPOBJECT@@QAEPAVGRPSHADERPROGRAM@@XZ 004f8cb0 f   GRPObject.obj
 0001:000f7cd0       ?GetNode@GRPOBJECT@@QAEPAVGRPNODE@@XZ 004f8cd0 f   GRPObject.obj
 0001:000f7cf0       ?SetNode@GRPOBJECT@@UAEXPAVGRPNODE@@@Z 004f8cf0 f   GRPObject.obj
 0001:000f7d10       ?MergeElements@GRPOBJECT@@QAE_NXZ 004f8d10 f   GRPObject.obj
 0001:000f8810       ?MergeAnimations@GRPOBJECT@@QAE_NXZ 004f9810 f   GRPObject.obj
 0001:000f8ed0       ?SetVisible@GRPOBJECT@@QAEX_N@Z 004f9ed0 f   GRPObject.obj
 0001:000f8f30       ?GetAnimationControl@GRPOBJECT@@QAEPAVGRPANIMATIONCONTROL@@XZ 004f9f30 f   GRPObject.obj
 0001:000f8f50       ?SetAnimationControl@GRPOBJECT@@QAEXPAVGRPANIMATIONCONTROL@@@Z 004f9f50 f   GRPObject.obj
 0001:000f8fb0       ?PlayAll@GRPOBJECT@@QAEXXZ 004f9fb0 f   GRPObject.obj
 0001:000f9130       ?FindNode@GRPOBJECT@@QAEPAVGRPNODE@@PA_W@Z 004fa130 f   GRPObject.obj
 0001:000f91d0       ?FindElementByNodeName@GRPOBJECT@@QAEPAVGRPELEMENT@@PA_W@Z 004fa1d0 f   GRPObject.obj
 0001:000f9280       ?FindElement@GRPOBJECT@@QAEPAVGRPELEMENT@@PA_W@Z 004fa280 f   GRPObject.obj
 0001:000f9310       ?FindCamera@GRPOBJECT@@QAEPAVGRPCAMERA@@PA_W@Z 004fa310 f   GRPObject.obj
 0001:000f93b0       ?FindLight@GRPOBJECT@@QAEPAVGRPLIGHT@@PA_W@Z 004fa3b0 f   GRPObject.obj
 0001:000f9450       ?FindTextBox@GRPOBJECT@@QAEPAVGRPTEXTELEMENT@@PA_W@Z 004fa450 f   GRPObject.obj
 0001:000f94f0       ?CreateNode@GRPOBJECT@@QAEPAVGRPNODE@@XZ 004fa4f0 f   GRPObject.obj
 0001:000f95b0       ?CreateLight@GRPOBJECT@@QAEPAVGRPLIGHT@@XZ 004fa5b0 f   GRPObject.obj
 0001:000f9650       ?CreateTextLocators@GRPOBJECT@@QAE_NXZ 004fa650 f   GRPObject.obj
 0001:000f9720       ?CreateTextFromLocator@GRPOBJECT@@QAEPAVGRPTEXTELEMENT@@PAVGRPNODE@@@Z 004fa720 f   GRPObject.obj
 0001:000f9ac0       ?Notify@GRPOBJECT@@UAE_NW4GRPMSGTYPE@@PAVGRPSUBJECT@@@Z 004faac0 f   GRPObject.obj
 0001:000f9b40       ?UpdateBoundingBox@GRPOBJECT@@QAEXXZ 004fab40 f   GRPObject.obj
 0001:000fa200       ??0?$XVECTOR@PAVGRPOBSERVER@@@@QAE@XZ 004fb200 f i GRPObject.obj
 0001:000fa220       ??0?$XVECTOR@PAVGRPTEXTELEMENT@@@@QAE@XZ 004fb220 f i GRPObject.obj
 0001:000fa240       ??1?$XVECTOR@PAVGRPOBSERVER@@@@UAE@XZ 004fb240 f i GRPObject.obj
 0001:000fa290       ??1?$XVECTOR@PAVGRPTEXTELEMENT@@@@UAE@XZ 004fb290 f i GRPObject.obj
 0001:000fa2e0       ??_DGRPOBJECT@@QAEXXZ      004fb2e0 f i GRPObject.obj
 0001:000fa307       ??_EGRPOBJECT@@$4PPPPPPPM@A@AEPAXI@Z 004fb307 f i GRPObject.obj
 0001:000fa310       ??_G?$XVECTOR@PAVGRPOBSERVER@@@@UAEPAXI@Z 004fb310 f i GRPObject.obj
 0001:000fa310       ??_E?$XVECTOR@PAVGRPOBSERVER@@@@UAEPAXI@Z 004fb310 f i GRPObject.obj
 0001:000fa340       ??_E?$XVECTOR@PAVGRPTEXTELEMENT@@@@UAEPAXI@Z 004fb340 f i GRPObject.obj
 0001:000fa340       ??_G?$XVECTOR@PAVGRPTEXTELEMENT@@@@UAEPAXI@Z 004fb340 f i GRPObject.obj
 0001:000fa370       ??_GGRPOBJECT@@UAEPAXI@Z   004fb370 f i GRPObject.obj
 0001:000fa370       ??_EGRPOBJECT@@UAEPAXI@Z   004fb370 f i GRPObject.obj
 0001:000fa3c0       ?Add@?$XVECTOR@PAVGRPOBSERVER@@@@QAE_NPAVGRPOBSERVER@@@Z 004fb3c0 f i GRPObject.obj
 0001:000fa450       ?Add@?$XVECTOR@PAVGRPTEXTELEMENT@@@@QAE_NPAVGRPTEXTELEMENT@@@Z 004fb450 f i GRPObject.obj
 0001:000fa4e0       ?Clean@?$XVECTOR@PAVGRPOBSERVER@@@@AAEXXZ 004fb4e0 f i GRPObject.obj
 0001:000fa520       ?Clean@?$XVECTOR@PAVGRPTEXTELEMENT@@@@AAEXXZ 004fb520 f i GRPObject.obj
 0001:000fa560       ?Clean@GRPOBJECT@@EAEXXZ   004fb560 f i GRPObject.obj
 0001:000fa5d0       ?DeleteAll@?$XVECTOR@PAVGRPOBSERVER@@@@QAE_NXZ 004fb5d0 f i GRPObject.obj
 0001:000fa620       ?DeleteAll@?$XVECTOR@PAVGRPTEXTELEMENT@@@@QAE_NXZ 004fb620 f i GRPObject.obj
 0001:000fa670       ?DeleteContentsInstanced@?$XVECTOR@PAVGRPCAMERA@@@@QAE_NXZ 004fb670 f i GRPObject.obj
 0001:000fa760       ?DeleteContentsInstanced@?$XVECTOR@PAVGRPLIGHT@@@@QAE_NXZ 004fb760 f i GRPObject.obj
 0001:000fa850       ?DeleteIndex@?$XVECTOR@PAVGRPELEMENT@@@@QAE_NH@Z 004fb850 f i GRPObject.obj
 0001:000fa8a0       ?FastGet@?$XVECTOR@PAVGRPOBSERVER@@@@QAEPAVGRPOBSERVER@@H@Z 004fb8a0 f i GRPObject.obj
 0001:000fa8c0       ?FastGet@?$XVECTOR@PAVGRPTEXTELEMENT@@@@QAEPAVGRPTEXTELEMENT@@H@Z 004fb8c0 f i GRPObject.obj
 0001:000fa8e0       ?Get@?$XVECTOR@PAVGRPOBSERVER@@@@QAEPAVGRPOBSERVER@@H@Z 004fb8e0 f i GRPObject.obj
 0001:000fa920       ?GetDefaultFont@GRPFONTMANAGER@@QAEPAVXSTRING@@XZ 004fb920 f i GRPObject.obj
 0001:000fa940       ?GetObservers@GRPSUBJECT@@QAEPAV?$XVECTOR@PAVGRPOBSERVER@@@@XZ 004fb940 f i GRPObject.obj
 0001:000fa960       ?GetProjectionMatrix@GRPPASS@@QAEPAVGRPMATRIX@@XZ 004fb960 f i GRPObject.obj
 0001:000fa980       ?GetSize@?$XVECTOR@PAVGRPOBSERVER@@@@QAEIXZ 004fb980 f i GRPObject.obj
 0001:000fa9a0       ?GetSubjectType@GRPOBJECT@@UAEIXZ 004fb9a0 f i GRPObject.obj
 0001:000fa9b0       ?GetViewProjection@GRPPASS@@QAEPAVGRPMATRIX@@XZ 004fb9b0 f i GRPObject.obj
 0001:000fa9d0       ?ResizeAdd@?$XVECTOR@PAVGRPOBSERVER@@@@AAE_NXZ 004fb9d0 f i GRPObject.obj
 0001:000faa90       ?ResizeAdd@?$XVECTOR@PAVGRPTEXTELEMENT@@@@AAE_NXZ 004fba90 f i GRPObject.obj
 0001:000fab49       ?SetTag@GRPOBJECT@@$4PPPPPPPM@A@AEX_K@Z 004fbb49 f i GRPObject.obj
 0001:000fab60       ??1GRPOBJECTBUILDER@@UAE@XZ 004fbb60 f   GRPObjectBuilder.obj
 0001:000fac50       ?CreateLineElement@GRPOBJECTBUILDER@@QAEPAVGRPELEMENT@@VGRPPOINT@@0@Z 004fbc50 f   GRPObjectBuilder.obj
 0001:000fae30       ?CreateArcElement@GRPOBJECTBUILDER@@QAEPAVGRPELEMENT@@VGRPPOINT@@00I@Z 004fbe30 f   GRPObjectBuilder.obj
 0001:000fb190       ?CreateBackground@GRPOBJECTBUILDER@@QAEPAVGRPELEMENT@@XZ 004fc190 f   GRPObjectBuilder.obj
 0001:000fb9f0       ?CreateCircle@GRPOBJECTBUILDER@@QAEPAVGRPELEMENT@@VGRPPOINT@@MI@Z 004fc9f0 f   GRPObjectBuilder.obj
 0001:000fba90       ?CreatePoint@GRPOBJECTBUILDER@@QAEPAVGRPELEMENT@@XZ 004fca90 f   GRPObjectBuilder.obj
 0001:000fbb90       ?CreateEllipse@GRPOBJECTBUILDER@@QAEPAVGRPELEMENT@@VGRPPOINT@@MMI@Z 004fcb90 f   GRPObjectBuilder.obj
 0001:000fc000       ?CreateCube@GRPOBJECTBUILDER@@QAEPAVGRPMESH@@XZ 004fd000 f   GRPObjectBuilder.obj
 0001:000ffcc0       ?CreateFromBuffer@GRPOBJECTBUILDER@@QAEPAVGRPELEMENT@@HPAM00@Z 00500cc0 f   GRPObjectBuilder.obj
 0001:000ffde0       ?CreatePlane@GRPOBJECTBUILDER@@QAEPAVGRPELEMENT@@W4AXIS@1@_N@Z 00500de0 f   GRPObjectBuilder.obj
 0001:00103ab0       ?CreateLine@GRPOBJECTBUILDER@@QAEPAVGRPSPLINE@@VGRPPOINT@@0@Z 00504ab0 f   GRPObjectBuilder.obj
 0001:00103c10       ?CreateArc@GRPOBJECTBUILDER@@QAEPAVGRPSPLINE@@VGRPPOINT@@00I@Z 00504c10 f   GRPObjectBuilder.obj
 0001:00103f00       ?CreateBox@GRPOBJECTBUILDER@@QAEPAVGRPELEMENT@@MMMM@Z 00504f00 f   GRPObjectBuilder.obj
 0001:00104950       ?CreateBoxSpline@GRPOBJECTBUILDER@@QAEPAVGRPSPLINE@@VGRPPOINT@@0M@Z 00505950 f   GRPObjectBuilder.obj
 0001:00105030       ?CreateWedgeSpline@GRPOBJECTBUILDER@@QAEPAVGRPSPLINE@@VGRPPOINT@@MMMI@Z 00506030 f   GRPObjectBuilder.obj
 0001:00105340       ?CreateEllipseSpline@GRPOBJECTBUILDER@@QAEPAVGRPSPLINE@@VGRPPOINT@@MMI@Z 00506340 f   GRPObjectBuilder.obj
 0001:00105540       ?CreateCircleSpline@GRPOBJECTBUILDER@@QAEPAVGRPSPLINE@@VGRPPOINT@@MI@Z 00506540 f   GRPObjectBuilder.obj
 0001:001055e0       ?CheckPointInsideContour@GRPOBJECTBUILDER@@QAE_NVGRPPOINT@@PAVGRPSPLINE@@@Z 005065e0 f   GRPObjectBuilder.obj
 0001:001058e0       ?FastCheckPointInsideContour@GRPOBJECTBUILDER@@QAE_NVGRPPOINT@@PAVGRPSPLINE@@@Z 005068e0 f   GRPObjectBuilder.obj
 0001:00105ac0       ?CheckPointInsideContour@GRPOBJECTBUILDER@@QAE_NVGRPPOINT@@PAV?$XVECTOR@PAVGRPPOINT@@@@@Z 00506ac0 f   GRPObjectBuilder.obj
 0001:00105c70       ?IsInnerContour@GRPOBJECTBUILDER@@QAEHHPAVGRPSHAPE@@@Z 00506c70 f   GRPObjectBuilder.obj
 0001:00105df0       ?FindNearerAnchor@GRPOBJECTBUILDER@@QAEPAVGRPANCHORPOINT@@PAVGRPSPLINE@@0PAPAV2@@Z 00506df0 f   GRPObjectBuilder.obj
 0001:00105ed0       ?FindNearerAnchor@GRPOBJECTBUILDER@@QAEXPAVGRPSPLINE@@0PAH1@Z 00506ed0 f   GRPObjectBuilder.obj
 0001:00105f90       ?FindNearAnchor@GRPOBJECTBUILDER@@QAEPAVGRPANCHORPOINT@@PAVGRPSPLINE@@PAV2@PAM@Z 00506f90 f   GRPObjectBuilder.obj
 0001:001060a0       ?FindNearAnchor@GRPOBJECTBUILDER@@QAEXPAVGRPSPLINE@@PAVGRPANCHORPOINT@@PAMPAH@Z 005070a0 f   GRPObjectBuilder.obj
 0001:001061b0       ?GetBoundingVertexesFromPointArray@GRPOBJECTBUILDER@@QAEXPAV?$XVECTOR@PAVGRPPOINT@@@@PAPAVGRPPOINT@@111@Z 005071b0 f   GRPObjectBuilder.obj
 0001:001062a0       ?GetBoundingVertexesFromSpline@GRPOBJECTBUILDER@@QAEXPAVGRPSPLINE@@PAPAVGRPANCHORPOINT@@11111@Z 005072a0 f   GRPObjectBuilder.obj
 0001:00106460       ?SignOfBaryCentricCoordenate@GRPOBJECTBUILDER@@QAEMVGRPPOINT@@00@Z 00507460 f   GRPObjectBuilder.obj
 0001:001064d0       ?CheckPointInsideTriangle@GRPOBJECTBUILDER@@QAE_NPAVGRPPOINT@@000@Z 005074d0 f   GRPObjectBuilder.obj
 0001:00106900       ?IsClockWiseTriangle@GRPOBJECTBUILDER@@QAE_NPAVGRPPOINT@@00@Z 00507900 f   GRPObjectBuilder.obj
 0001:00106a30       ?GetAdyacentPoints@GRPOBJECTBUILDER@@QAEXPAV?$XVECTOR@PAVGRPPOINT@@@@PAVGRPPOINT@@PAPAV3@2PAH33@Z 00507a30 f   GRPObjectBuilder.obj
 0001:00106ab0       ?ProcessSplineToLines@GRPOBJECTBUILDER@@QAEPAVGRPSPLINE@@PAV2@I@Z 00507ab0 f   GRPObjectBuilder.obj
 0001:001072c0       ?MergeInnerSplines@GRPOBJECTBUILDER@@QAEPAVGRPSHAPE@@PAV2@@Z 005082c0 f   GRPObjectBuilder.obj
 0001:00107c20       ?WeldVertexes@GRPOBJECTBUILDER@@QAEPAVGRPSHAPE@@PAV2@M@Z 00508c20 f   GRPObjectBuilder.obj
 0001:00107c30       ?WeldVertexes@GRPOBJECTBUILDER@@QAEPAVGRPELEMENT@@PAV2@M@Z 00508c30 f   GRPObjectBuilder.obj
 0001:00107e40       ?ProcessShapeToLines@GRPOBJECTBUILDER@@QAEPAVGRPSHAPE@@PAV2@I@Z 00508e40 f   GRPObjectBuilder.obj
 0001:00107f30       ?AddShapeAsElement@GRPOBJECTBUILDER@@QAE_NPAVGRPOBJECT@@PAVGRPSHAPE@@@Z 00508f30 f   GRPObjectBuilder.obj
 0001:00108890       ?ResolveCubicBezier@GRPOBJECTBUILDER@@QAEPAVGRPSPLINE@@PAV2@H@Z 00509890 f   GRPObjectBuilder.obj
 0001:00108900       ?TriangulizeShape@GRPOBJECTBUILDER@@QAEPAVGRPELEMENT@@PAVGRPSHAPE@@PAVGRPOBJECTBUILDERALGORITHM@@@Z 00509900 f   GRPObjectBuilder.obj
 0001:00108cb0       ?TriangulizeObject@GRPOBJECTBUILDER@@QAEPAVGRPELEMENT@@PAVGRPSHAPE@@M@Z 00509cb0 f   GRPObjectBuilder.obj
 0001:001092c0       ?Ini@GRPOBJECTBUILDER@@QAEXXZ 0050a2c0 f   GRPObjectBuilder.obj
 0001:00109330       ?End@GRPOBJECTBUILDER@@QAEXXZ 0050a330 f   GRPObjectBuilder.obj
 0001:00109380       ?CreateFontManager@GRPOBJECTBUILDER@@QAEPAVGRPFONTMANAGER@@XZ 0050a380 f   GRPObjectBuilder.obj
 0001:00109410       ?GetFontManager@GRPOBJECTBUILDER@@QAEPAVGRPFONTMANAGER@@XZ 0050a410 f   GRPObjectBuilder.obj
 0001:00109430       ?GetReferences@GRPOBJECTBUILDER@@QAEPAV?$XVECTOR@PAVGRPELEMENT@@@@XZ 0050a430 f   GRPObjectBuilder.obj
 0001:00109450       ?Get@GRPOBJECTBUILDER@@SAPAV1@XZ 0050a450 f   GRPObjectBuilder.obj
 0001:001094e0       ?Destroy@GRPOBJECTBUILDER@@SAXXZ 0050a4e0 f   GRPObjectBuilder.obj
 0001:00109530       ??0GRPOBJECTBUILDER@@IAE@XZ 0050a530 f   GRPObjectBuilder.obj
 0001:001095c0       ?FastGetDistanceBetweenPoints@GRPOBJECTBUILDER@@AAEMPAVGRPPOINT@@0@Z 0050a5c0 f   GRPObjectBuilder.obj
 0001:00109620       ?nIsPointOnLine@@YA_NPAVGRPPOINT@@00@Z 0050a620 f   GRPObjectBuilder.obj
 0001:00109810       ??0?$XVECTOR@PAVGRPANCHORPOINT@@@@QAE@XZ 0050a810 f i GRPObjectBuilder.obj
 0001:00109830       ??0?$XVECTOR@PAVGRPSEAM@@@@QAE@XZ 0050a830 f i GRPObjectBuilder.obj
 0001:00109850       ??0GRPANCHORPOINT@@QAE@W4GRPANCHORPOINTTYPE@@VGRPPOINT@@@Z 0050a850 f i GRPObjectBuilder.obj
 0001:00109880       ??0GRPSEAM@@QAE@XZ         0050a880 f i GRPObjectBuilder.obj
 0001:001098e0       ??1?$XVECTOR@PAVGRPANCHORPOINT@@@@UAE@XZ 0050a8e0 f i GRPObjectBuilder.obj
 0001:00109930       ??1?$XVECTOR@PAVGRPSEAM@@@@UAE@XZ 0050a930 f i GRPObjectBuilder.obj
 0001:00109980       ??BGRPANCHORPOINT@@QAE?AVGRPPOINT@@XZ 0050a980 f i GRPObjectBuilder.obj
 0001:001099c0       ??_G?$XVECTOR@PAVGRPANCHORPOINT@@@@UAEPAXI@Z 0050a9c0 f i GRPObjectBuilder.obj
 0001:001099c0       ??_E?$XVECTOR@PAVGRPANCHORPOINT@@@@UAEPAXI@Z 0050a9c0 f i GRPObjectBuilder.obj
 0001:001099f0       ??_E?$XVECTOR@PAVGRPSEAM@@@@UAEPAXI@Z 0050a9f0 f i GRPObjectBuilder.obj
 0001:001099f0       ??_G?$XVECTOR@PAVGRPSEAM@@@@UAEPAXI@Z 0050a9f0 f i GRPObjectBuilder.obj
 0001:00109a20       ??_EGRPOBJECTBUILDER@@UAEPAXI@Z 0050aa20 f i GRPObjectBuilder.obj
 0001:00109a20       ??_GGRPOBJECTBUILDER@@UAEPAXI@Z 0050aa20 f i GRPObjectBuilder.obj
 0001:00109a50       ?Add@?$XVECTOR@PAVGRPSEAM@@@@QAE_NPAVGRPSEAM@@@Z 0050aa50 f i GRPObjectBuilder.obj
 0001:00109ae0       ?Add@GRPSHAPE@@QAE_NW4GRPANCHORPOINTTYPE@@VGRPPOINT@@@Z 0050aae0 f i GRPObjectBuilder.obj
 0001:00109bf0       ?Clean@?$XVECTOR@PAVGRPANCHORPOINT@@@@AAEXXZ 0050abf0 f i GRPObjectBuilder.obj
 0001:00109c30       ?Clean@?$XVECTOR@PAVGRPSEAM@@@@AAEXXZ 0050ac30 f i GRPObjectBuilder.obj
 0001:00109c70       ?Clean@GRPOBJECTBUILDER@@AAEXXZ 0050ac70 f i GRPObjectBuilder.obj
 0001:00109ca0       ?DeleteAll@?$XVECTOR@PAVGRPANCHORPOINT@@@@QAE_NXZ 0050aca0 f i GRPObjectBuilder.obj
 0001:00109cf0       ?DeleteAll@?$XVECTOR@PAVGRPSEAM@@@@QAE_NXZ 0050acf0 f i GRPObjectBuilder.obj
 0001:00109d40       ?DeleteContents@?$XVECTOR@PAVGRPSEAM@@@@QAE_NXZ 0050ad40 f i GRPObjectBuilder.obj
 0001:00109dc0       ?FastGet@?$XVECTOR@PAVGRPSEAM@@@@QAEPAVGRPSEAM@@H@Z 0050adc0 f i GRPObjectBuilder.obj
 0001:00109de0       ?Find@?$XVECTOR@PAVGRPANCHORPOINT@@@@QAEHPAVGRPANCHORPOINT@@@Z 0050ade0 f i GRPObjectBuilder.obj
 0001:00109e40       ?Find@?$XVECTOR@PAVGRPPOINT@@@@QAEHPAVGRPPOINT@@@Z 0050ae40 f i GRPObjectBuilder.obj
 0001:00109ea0       ?Get@?$XVECTOR@PAVGRPSEAM@@@@QAEPAVGRPSEAM@@H@Z 0050aea0 f i GRPObjectBuilder.obj
 0001:00109ee0       ?GetLast@?$XVECTOR@H@@QAEHXZ 0050aee0 f i GRPObjectBuilder.obj
 0001:00109f00       ?GetSize@?$XVECTOR@PAVGRPSEAM@@@@QAEIXZ 0050af00 f i GRPObjectBuilder.obj
 0001:00109f20       ?ResizeAdd@?$XVECTOR@PAVGRPSEAM@@@@AAE_NXZ 0050af20 f i GRPObjectBuilder.obj
 0001:00109fe0       ?Setup@GRPSHAPE@@QAE_NXZ   0050afe0 f i GRPObjectBuilder.obj
 0001:0010a020       ?Swap@?$XVECTOR@PAVGRPSEAM@@@@QAE_NII@Z 0050b020 f i GRPObjectBuilder.obj
 0001:0010a090       ??0GRPOBJECTBUILDERALGORITHMEXTRUDE@@QAE@PAVGRPOBJECTBUILDER@@@Z 0050b090 f   GRPObjectBuilderAlgorithmExtrude.obj
 0001:0010a100       ?Execute@GRPOBJECTBUILDERALGORITHMEXTRUDE@@UAEPAVGRPELEMENT@@PAVGRPSHAPE@@@Z 0050b100 f   GRPObjectBuilderAlgorithmExtrude.obj
 0001:0010b510       ??_GGRPOBJECTBUILDERALGORITHMEXTRUDE@@UAEPAXI@Z 0050c510 f i GRPObjectBuilderAlgorithmExtrude.obj
 0001:0010b510       ??_EGRPOBJECTBUILDERALGORITHMEXTRUDE@@UAEPAXI@Z 0050c510 f i GRPObjectBuilderAlgorithmExtrude.obj
 0001:0010b540       ?CalculateNormal@GRPFACE@@QAEXXZ 0050c540 f i GRPObjectBuilderAlgorithmExtrude.obj
 0001:0010b6e0       ??0GRPOBJECTBUILDERALGORITHMLATHE@@QAE@PAVGRPOBJECTBUILDER@@@Z 0050c6e0 f   GRPObjectBuilderAlgorithmLathe.obj
 0001:0010b750       ?Execute@GRPOBJECTBUILDERALGORITHMLATHE@@UAEPAVGRPELEMENT@@PAVGRPSHAPE@@@Z 0050c750 f   GRPObjectBuilderAlgorithmLathe.obj
 0001:0010c200       ??1GRPOBJECTBUILDERALGORITHMLATHE@@UAE@XZ 0050d200 f i GRPObjectBuilderAlgorithmLathe.obj
 0001:0010c220       ??_GGRPOBJECTBUILDERALGORITHMLATHE@@UAEPAXI@Z 0050d220 f i GRPObjectBuilderAlgorithmLathe.obj
 0001:0010c220       ??_EGRPOBJECTBUILDERALGORITHMLATHE@@UAEPAXI@Z 0050d220 f i GRPObjectBuilderAlgorithmLathe.obj
 0001:0010c250       ?Clean@GRPOBJECTBUILDERALGORITHMLATHE@@AAEXXZ 0050d250 f i GRPObjectBuilderAlgorithmLathe.obj
 0001:0010c2a0       ??0GRPOBJECTBUILDERALGORITHMSTROKE@@QAE@PAVGRPOBJECTBUILDER@@@Z 0050d2a0 f   GRPObjectBuilderAlgorithmStroke.obj
 0001:0010c310       ?Execute@GRPOBJECTBUILDERALGORITHMSTROKE@@UAEPAVGRPELEMENT@@PAVGRPSHAPE@@@Z 0050d310 f   GRPObjectBuilderAlgorithmStroke.obj
 0001:0010eae0       ?Bevel@GRPOBJECTBUILDERALGORITHMSTROKE@@QAEXPAV?$XVECTOR@PAVGRPPOINT@@@@HPAPAVGRPPOINT@@PAVGRPSHAPE@@PAH@Z 0050fae0 f   GRPObjectBuilderAlgorithmStroke.obj
 0001:0010ef10       ??DGRPPOINT@@QAE?AV0@M@Z   0050ff10 f i GRPObjectBuilderAlgorithmStroke.obj
 0001:0010ef90       ??GGRPPOINT@@QAE?AV0@V0@@Z 0050ff90 f i GRPObjectBuilderAlgorithmStroke.obj
 0001:0010f050       ??HGRPPOINT@@QAE?AV0@V0@@Z 00510050 f i GRPObjectBuilderAlgorithmStroke.obj
 0001:0010f110       ??_GGRPOBJECTBUILDERALGORITHMSTROKE@@UAEPAXI@Z 00510110 f i GRPObjectBuilderAlgorithmStroke.obj
 0001:0010f110       ??_EGRPOBJECTBUILDERALGORITHMSTROKE@@UAEPAXI@Z 00510110 f i GRPObjectBuilderAlgorithmStroke.obj
 0001:0010f140       ?Clean@GRPOBJECTBUILDERALGORITHMSTROKE@@AAEXXZ 00510140 f i GRPObjectBuilderAlgorithmStroke.obj
 0001:0010f1c0       ?GetIsEar@GRPOBJECTBUILDERALGORITHMTRIANGULIZATIONEAR@@QAE_NPAV?$XVECTOR@PAVGRPPOINT@@@@PAVGRPPOINT@@@Z 005101c0 f   GRPObjectBuilderAlgorithmTriangulationEar.obj
 0001:0010f2f0       ?ClipEar@GRPOBJECTBUILDERALGORITHMTRIANGULIZATIONEAR@@QAE_NPAV?$XVECTOR@PAVGRPPOINT@@@@PAV?$XVECTOR@PAVGRPFACE@@@@@Z 005102f0 f   GRPObjectBuilderAlgorithmTriangulationEar.obj
 0001:0010fda0       ?Execute@GRPOBJECTBUILDERALGORITHMTRIANGULIZATIONEAR@@UAEPAVGRPELEMENT@@PAVGRPSHAPE@@@Z 00510da0 f   GRPObjectBuilderAlgorithmTriangulationEar.obj
 0001:001100e0       ?DotProduct@GRPOBJECTBUILDERALGORITHMTRIANGULIZATIONEAR@@AAEMMMMMMM@Z 005110e0 f   GRPObjectBuilderAlgorithmTriangulationEar.obj
 0001:00110150       ?CrossProductLength@GRPOBJECTBUILDERALGORITHMTRIANGULIZATIONEAR@@AAEMMMMMMM@Z 00511150 f   GRPObjectBuilderAlgorithmTriangulationEar.obj
 0001:001101c0       ?GetAngleToHorizontalaxis@GRPOBJECTBUILDERALGORITHMTRIANGULIZATIONEAR@@AAEMPAVGRPPOINT@@0@Z 005111c0 f   GRPObjectBuilderAlgorithmTriangulationEar.obj
 0001:00110260       ?Delete@?$XVECTOR@PAVGRPPOINT@@@@QAE_NPAVGRPPOINT@@@Z 00511260 f i GRPObjectBuilderAlgorithmTriangulationEar.obj
 0001:001102d0       ?DeleteIndex@?$XVECTOR@PAVGRPPOINT@@@@QAE_NH@Z 005112d0 f i GRPObjectBuilderAlgorithmTriangulationEar.obj
 0001:00110320       ?ResizeRemove@?$XVECTOR@PAVGRPPOINT@@@@AAE_NI@Z 00511320 f i GRPObjectBuilderAlgorithmTriangulationEar.obj
 0001:00110390       ??BGRPOBJECTLIBRARYITEM@@QAEPA_WXZ 00511390 f   GRPObjectLibrary.obj
 0001:001103b0       ??BGRPOBJECTLIBRARYITEM@@QAEPAVGRPMESH@@XZ 005113b0 f   GRPObjectLibrary.obj
 0001:001103d0       ??BGRPOBJECTLIBRARYITEM@@QAEPAVGRPMATERIAL@@XZ 005113d0 f   GRPObjectLibrary.obj
 0001:001103f0       ??BGRPOBJECTLIBRARYITEM@@QAEPAVGRPSHADERPROGRAM@@XZ 005113f0 f   GRPObjectLibrary.obj
 0001:00110410       ??BGRPOBJECTLIBRARYITEM@@QAEPAVGRPELEMENT@@XZ 00511410 f   GRPObjectLibrary.obj
 0001:00110530       ?Get@GRPOBJECTLIBRARY@@SAPAV1@XZ 00511530 f   GRPObjectLibrary.obj
 0001:001105c0       ?Destroy@GRPOBJECTLIBRARY@@SAXXZ 005115c0 f   GRPObjectLibrary.obj
 0001:00110630       ?GetSubjectType@GRPOBJECTLIBRARY@@UAEIXZ 00511630 f   GRPObjectLibrary.obj
 0001:00110640       ??1GRPOBJECTLIBRARY@@UAE@XZ 00511640 f   GRPObjectLibrary.obj
 0001:00110760       ?GetMeshIndex@GRPOBJECTLIBRARY@@QAEHPA_W@Z 00511760 f   GRPObjectLibrary.obj
 0001:001107c0       ?GetElement@GRPOBJECTLIBRARY@@QAEPAVGRPOBJECTLIBRARYITEM@@PA_W@Z 005117c0 f   GRPObjectLibrary.obj
 0001:00110830       ?GetMesh@GRPOBJECTLIBRARY@@QAEPAVGRPMESH@@PA_W@Z 00511830 f   GRPObjectLibrary.obj
 0001:001108a0       ?CreateElement@GRPOBJECTLIBRARY@@QAEPAVGRPELEMENT@@PA_W@Z 005118a0 f   GRPObjectLibrary.obj
 0001:001108d0       ?CreateObject@GRPOBJECTLIBRARY@@QAEPAVGRPOBJECT@@PA_W@Z 005118d0 f   GRPObjectLibrary.obj
 0001:001108e0       ?IndexElement@GRPOBJECTLIBRARY@@QAE_NPA_WPAVGRPELEMENT@@@Z 005118e0 f   GRPObjectLibrary.obj
 0001:00110a30       ?IndexMesh@GRPOBJECTLIBRARY@@QAE_NPA_WPAVGRPMESH@@@Z 00511a30 f   GRPObjectLibrary.obj
 0001:00110b00       ?GetLoader@GRPOBJECTLIBRARY@@QAEPAVGRPLOADER@@XZ 00511b00 f   GRPObjectLibrary.obj
 0001:00110b20       ??0GRPOBJECTLIBRARY@@IAE@XZ 00511b20 f   GRPObjectLibrary.obj
 0001:00110c50       ??0?$XMAP@PAVXSTRING@@PAVGRPMESH@@@@QAE@XZ 00511c50 f i GRPObjectLibrary.obj
 0001:00110cd0       ??0?$XMAP@PAVXSTRING@@PAVGRPOBJECT@@@@QAE@XZ 00511cd0 f i GRPObjectLibrary.obj
 0001:00110d50       ??0?$XMAP@PAVXSTRING@@PAVGRPOBJECTLIBRARYITEM@@@@QAE@XZ 00511d50 f i GRPObjectLibrary.obj
 0001:00110dd0       ??0?$XVECTOR@PAVGRPOBJECTLIBRARYITEM@@@@QAE@XZ 00511dd0 f i GRPObjectLibrary.obj
 0001:00110df0       ??0GRPOBJECTLIBRARYITEM@@QAE@XZ 00511df0 f i GRPObjectLibrary.obj
 0001:00110e60       ??1?$XMAP@PAVXSTRING@@PAVGRPMESH@@@@UAE@XZ 00511e60 f i GRPObjectLibrary.obj
 0001:00110e90       ??1?$XMAP@PAVXSTRING@@PAVGRPOBJECT@@@@UAE@XZ 00511e90 f i GRPObjectLibrary.obj
 0001:00110ec0       ??1?$XMAP@PAVXSTRING@@PAVGRPOBJECTLIBRARYITEM@@@@UAE@XZ 00511ec0 f i GRPObjectLibrary.obj
 0001:00110ef0       ??1?$XVECTOR@PAVGRPOBJECTLIBRARYITEM@@@@UAE@XZ 00511ef0 f i GRPObjectLibrary.obj
 0001:00110f40       ??1GRPOBJECTLIBRARYITEM@@UAE@XZ 00511f40 f i GRPObjectLibrary.obj
 0001:00110f60       ??_DGRPOBJECTLIBRARY@@QAEXXZ 00511f60 f i GRPObjectLibrary.obj
 0001:00110f90       ??_G?$XMAP@PAVXSTRING@@PAVGRPMESH@@@@UAEPAXI@Z 00511f90 f i GRPObjectLibrary.obj
 0001:00110f90       ??_E?$XMAP@PAVXSTRING@@PAVGRPMESH@@@@UAEPAXI@Z 00511f90 f i GRPObjectLibrary.obj
 0001:00110fc0       ??_E?$XMAP@PAVXSTRING@@PAVGRPOBJECT@@@@UAEPAXI@Z 00511fc0 f i GRPObjectLibrary.obj
 0001:00110fc0       ??_G?$XMAP@PAVXSTRING@@PAVGRPOBJECT@@@@UAEPAXI@Z 00511fc0 f i GRPObjectLibrary.obj
 0001:00110ff0       ??_E?$XMAP@PAVXSTRING@@PAVGRPOBJECTLIBRARYITEM@@@@UAEPAXI@Z 00511ff0 f i GRPObjectLibrary.obj
 0001:00110ff0       ??_G?$XMAP@PAVXSTRING@@PAVGRPOBJECTLIBRARYITEM@@@@UAEPAXI@Z 00511ff0 f i GRPObjectLibrary.obj
 0001:00111020       ??_E?$XVECTOR@PAVGRPOBJECTLIBRARYITEM@@@@UAEPAXI@Z 00512020 f i GRPObjectLibrary.obj
 0001:00111020       ??_G?$XVECTOR@PAVGRPOBJECTLIBRARYITEM@@@@UAEPAXI@Z 00512020 f i GRPObjectLibrary.obj
 0001:00111050       ??_GGRPOBJECTLIBRARY@@UAEPAXI@Z 00512050 f i GRPObjectLibrary.obj
 0001:00111050       ??_EGRPOBJECTLIBRARY@@UAEPAXI@Z 00512050 f i GRPObjectLibrary.obj
 0001:001110a0       ??_EGRPOBJECTLIBRARYITEM@@UAEPAXI@Z 005120a0 f i GRPObjectLibrary.obj
 0001:001110a0       ??_GGRPOBJECTLIBRARYITEM@@UAEPAXI@Z 005120a0 f i GRPObjectLibrary.obj
 0001:001110d0       ?Add@?$XMAP@PAVXSTRING@@PAVGRPMESH@@@@QAE_NPAVXSTRING@@PAVGRPMESH@@@Z 005120d0 f i GRPObjectLibrary.obj
 0001:00111130       ?Add@?$XMAP@PAVXSTRING@@PAVGRPOBJECTLIBRARYITEM@@@@QAE_NPAVXSTRING@@PAVGRPOBJECTLIBRARYITEM@@@Z 00512130 f i GRPObjectLibrary.obj
 0001:00111190       ?Add@?$XVECTOR@PAVGRPOBJECTLIBRARYITEM@@@@QAE_NPAVGRPOBJECTLIBRARYITEM@@@Z 00512190 f i GRPObjectLibrary.obj
 0001:00111220       ?Clean@?$XVECTOR@PAVGRPOBJECTLIBRARYITEM@@@@AAEXXZ 00512220 f i GRPObjectLibrary.obj
 0001:00111260       ?Clean@GRPOBJECTLIBRARY@@EAEXXZ 00512260 f i GRPObjectLibrary.obj
 0001:00111280       ?DeleteAll@?$XMAP@PAVXSTRING@@PAVGRPMESH@@@@QAE_NXZ 00512280 f i GRPObjectLibrary.obj
 0001:001112b0       ?DeleteAll@?$XMAP@PAVXSTRING@@PAVGRPOBJECTLIBRARYITEM@@@@QAE_NXZ 005122b0 f i GRPObjectLibrary.obj
 0001:001112e0       ?DeleteAll@?$XVECTOR@PAVGRPOBJECTLIBRARYITEM@@@@QAE_NXZ 005122e0 f i GRPObjectLibrary.obj
 0001:00111330       ?DeleteContents@?$XVECTOR@PAVGRPMESH@@@@QAE_NXZ 00512330 f i GRPObjectLibrary.obj
 0001:001113e0       ?DeleteContents@?$XVECTOR@PAVGRPOBJECTLIBRARYITEM@@@@QAE_NXZ 005123e0 f i GRPObjectLibrary.obj
 0001:00111480       ?DeleteElementContents@?$XMAP@PAVXSTRING@@PAVGRPMESH@@@@QAE_NXZ 00512480 f i GRPObjectLibrary.obj
 0001:001114a0       ?DeleteElementContents@?$XMAP@PAVXSTRING@@PAVGRPOBJECTLIBRARYITEM@@@@QAE_NXZ 005124a0 f i GRPObjectLibrary.obj
 0001:001114c0       ?DeleteKeyContents@?$XMAP@PAVXSTRING@@PAVGRPMESH@@@@QAE_NXZ 005124c0 f i GRPObjectLibrary.obj
 0001:001114e0       ?DeleteKeyContents@?$XMAP@PAVXSTRING@@PAVGRPOBJECTLIBRARYITEM@@@@QAE_NXZ 005124e0 f i GRPObjectLibrary.obj
 0001:00111500       ?Get@?$XVECTOR@PAVGRPOBJECTLIBRARYITEM@@@@QAEPAVGRPOBJECTLIBRARYITEM@@H@Z 00512500 f i GRPObjectLibrary.obj
 0001:00111540       ?GetElement@?$XMAP@PAVXSTRING@@PAVGRPMESH@@@@QAEPAVGRPMESH@@H@Z 00512540 f i GRPObjectLibrary.obj
 0001:00111560       ?GetElement@?$XMAP@PAVXSTRING@@PAVGRPOBJECTLIBRARYITEM@@@@QAEPAVGRPOBJECTLIBRARYITEM@@H@Z 00512560 f i GRPObjectLibrary.obj
 0001:00111580       ?GetKey@?$XMAP@PAVXSTRING@@PAVGRPMESH@@@@QAEPAVXSTRING@@H@Z 00512580 f i GRPObjectLibrary.obj
 0001:001115a0       ?GetKey@?$XMAP@PAVXSTRING@@PAVGRPOBJECTLIBRARYITEM@@@@QAEPAVXSTRING@@H@Z 005125a0 f i GRPObjectLibrary.obj
 0001:001115c0       ?GetSize@?$XMAP@PAVXSTRING@@PAVGRPMESH@@@@QAEIXZ 005125c0 f i GRPObjectLibrary.obj
 0001:001115e0       ?GetSize@?$XMAP@PAVXSTRING@@PAVGRPOBJECTLIBRARYITEM@@@@QAEIXZ 005125e0 f i GRPObjectLibrary.obj
 0001:00111600       ?ResizeAdd@?$XVECTOR@PAVGRPOBJECTLIBRARYITEM@@@@AAE_NXZ 00512600 f i GRPObjectLibrary.obj
 0001:001116c0       ?Set@?$XMAP@PAVXSTRING@@PAVGRPMESH@@@@QAE_NPAVXSTRING@@PAVGRPMESH@@@Z 005126c0 f i GRPObjectLibrary.obj
 0001:00111700       ?Set@?$XVECTOR@PAVGRPMESH@@@@QAE_NHPAVGRPMESH@@@Z 00512700 f i GRPObjectLibrary.obj
 0001:00111740       ?SetIsMulti@?$XMAP@PAVXSTRING@@PAVGRPMESH@@@@QAEX_N@Z 00512740 f i GRPObjectLibrary.obj
 0001:00111770       ?SetIsMulti@?$XMAP@PAVXSTRING@@PAVGRPOBJECT@@@@QAEX_N@Z 00512770 f i GRPObjectLibrary.obj
 0001:001117a0       ?SetIsMulti@?$XMAP@PAVXSTRING@@PAVGRPOBJECTLIBRARYITEM@@@@QAEX_N@Z 005127a0 f i GRPObjectLibrary.obj
 0001:001117d0       ?SetIsMulti@?$XVECTOR@PAVGRPMESH@@@@QAEX_N@Z 005127d0 f i GRPObjectLibrary.obj
 0001:001117f0       ?SetIsMulti@?$XVECTOR@PAVGRPOBJECT@@@@QAEX_N@Z 005127f0 f i GRPObjectLibrary.obj
 0001:00111810       ?SetIsMulti@?$XVECTOR@PAVGRPOBJECTLIBRARYITEM@@@@QAEX_N@Z 00512810 f i GRPObjectLibrary.obj
 0001:00111830       ?GetSubjects@GRPOBSERVER@@QAEPAV?$XVECTOR@PAVGRPSUBJECT@@@@XZ 00512830 f   GRPObserver.obj
 0001:00111850       ?Subscribe@GRPOBSERVER@@QAE_NPAVGRPSUBJECT@@@Z 00512850 f   GRPObserver.obj
 0001:00111880       ?Unsubscribe@GRPOBSERVER@@QAEXXZ 00512880 f   GRPObserver.obj
 0001:00111900       ?DeleteIndex@?$XVECTOR@PAVGRPSUBJECT@@@@QAE_NH@Z 00512900 f i GRPObserver.obj
 0001:00111950       ?Find@?$XVECTOR@PAVGRPOBSERVER@@@@QAEHPAVGRPOBSERVER@@@Z 00512950 f i GRPObserver.obj
 0001:001119b0       ?Get@?$XVECTOR@PAVGRPSUBJECT@@@@QAEPAVGRPSUBJECT@@H@Z 005129b0 f i GRPObserver.obj
 0001:001119f0       ?GetSize@?$XVECTOR@PAVGRPSUBJECT@@@@QAEIXZ 005129f0 f i GRPObserver.obj
 0001:00111a10       ?ResizeRemove@?$XVECTOR@PAVGRPSUBJECT@@@@AAE_NI@Z 00512a10 f i GRPObserver.obj
 0001:00111a80       ?Ini@GRPOPENGLCTRL@@QAEXXZ 00512a80 f   GRPOpenGL.obj
 0001:00111b40       ?ClearErrors@GRPOPENGLCTRL@@SA_NXZ 00512b40 f   GRPOpenGL.obj
 0001:00111b60       ?Log@GRPOPENGLCTRL@@SA_NPAD@Z 00512b60 f   GRPOpenGL.obj
 0001:00111b70       ?CheckError@GRPOPENGLCTRL@@SA_NPA_WPBD1H@Z 00512b70 f   GRPOpenGL.obj
 0001:00111b80       ?Clear@COLOR@GRPOPENGLCTRL@@SAXI@Z 00512b80 f   GRPOpenGL.obj
 0001:00111b90       ?SetClearColor@COLOR@GRPOPENGLCTRL@@SAXMMMM@Z 00512b90 f   GRPOpenGL.obj
 0001:00111c50       ?SetColorWriting@COLOR@GRPOPENGLCTRL@@SAX_N0000@Z 00512c50 f   GRPOpenGL.obj
 0001:00111d00       ?SetDither@DITHER@GRPOPENGLCTRL@@SAX_N@Z 00512d00 f   GRPOpenGL.obj
 0001:00111d60       ?SetCurrentTexture@TEXTURE@GRPOPENGLCTRL@@SAXI@Z 00512d60 f   GRPOpenGL.obj
 0001:00112010       ?SetTextureMode@TEXTURE@GRPOPENGLCTRL@@SAX_NW4GRPTEXTUREMODE@@@Z 00513010 f   GRPOpenGL.obj
 0001:00112080       ?SetDepthTest@DEPTH@GRPOPENGLCTRL@@SAX_N@Z 00513080 f   GRPOpenGL.obj
 0001:001120f0       ?SetDepthWriting@DEPTH@GRPOPENGLCTRL@@SAX_N@Z 005130f0 f   GRPOpenGL.obj
 0001:00112160       ?SetDepthFunc@DEPTH@GRPOPENGLCTRL@@SAXW4GRPDEPTHFUNC@@@Z 00513160 f   GRPOpenGL.obj
 0001:00112190       ?SetClearDepth@DEPTH@GRPOPENGLCTRL@@SAXM@Z 00513190 f   GRPOpenGL.obj
 0001:001121e0       ?SetBackFaceCulling@CULLING@GRPOPENGLCTRL@@SAX_NW4GRPCULLMODE@@@Z 005131e0 f   GRPOpenGL.obj
 0001:001122a0       ?SetScissor@SCISSOR@GRPOPENGLCTRL@@SAX_NHHHH@Z 005132a0 f   GRPOpenGL.obj
 0001:00112380       ?SetAlphaBlending@BLENDING@GRPOPENGLCTRL@@SAX_NW4GRPBLENDINGMODE@@@Z 00513380 f   GRPOpenGL.obj
 0001:00112420       ?SetBlendingMode@BLENDING@GRPOPENGLCTRL@@SAXW4GRPBLENDINGMODE@@@Z 00513420 f   GRPOpenGL.obj
 0001:00112500       ?SetBlendingFunction@BLENDING@GRPOPENGLCTRL@@SAXW4GRPBLENDINGFUNCTION@@0@Z 00513500 f   GRPOpenGL.obj
 0001:00112540       ?SetBlendingEquation@BLENDING@GRPOPENGLCTRL@@SAXW4GRPBLENDINGEQUATION@@@Z 00513540 f   GRPOpenGL.obj
 0001:00112570       ?SetStencil@STENCIL@GRPOPENGLCTRL@@SAX_N@Z 00513570 f   GRPOpenGL.obj
 0001:001125c0       ?SetStencilOperation@STENCIL@GRPOPENGLCTRL@@SAXW4GRPSTENCILBUFFER@@W4GRPSTENCILOPERATION@@11@Z 005135c0 f   GRPOpenGL.obj
 0001:00112630       ?SetStencilFunction@STENCIL@GRPOPENGLCTRL@@SAXW4GRPSTENCILFUNCTION@@I@Z 00513630 f   GRPOpenGL.obj
 0001:00112670       ?SetStencilMask@STENCIL@GRPOPENGLCTRL@@SAXI@Z 00513670 f   GRPOpenGL.obj
 0001:001126a0       ??0?$GRPRECTBASE@H@@QAE@HHHH@Z 005136a0 f i GRPOpenGL.obj
 0001:001126e0       ??4?$GRPRECTBASE@H@@QAEAAV0@ABV0@@Z 005136e0 f i GRPOpenGL.obj
 0001:00112720       ??1GRPPASS@@UAE@XZ         00513720 f   GRPPass.obj
 0001:00112840       ?Compare@COMPARATOR@GRPPASS@@UAEHPAV2@0@Z 00513840 f   GRPPass.obj
